GAS LISTING C:\Users\duchu\AppData\Local\Temp\ccRefKAd.s 			page 1


   1              		.file	"Asw_DtcMng.c"
   2              		.section	".text","axv"
   3              	.Ltext0:
   4              		.cfi_sections	.debug_frame
   5              		.section	.text.DtcSetNormalFromError,"axv",@progbits
   6              		.align 1
   7              		.p2align 4,,15
   8              		.type	DtcSetNormalFromError, @function
   9              	DtcSetNormalFromError:
  10              	.LFB24:
  11              		.file 1 "./source/ASW/Asw_DtcMng.c"
  12              		.loc 1 536 0
  13              		.cfi_startproc
  14              	.LVL0:
  15              		.loc 1 537 0
  16 0000 8073     		se_lbz %r7,0(%r3)
  17 0002 2A97     		se_cmpi %r7,9
  18 0004 7A020008 		e_bne %cr0,.L1
  19              		.loc 1 538 0
  20 0008 4887     		se_li %r7,8
  21 000a 9073     		se_stb %r7,0(%r3)
  22              	.L1:
  23 000c 0004     		se_blr
  24              		.cfi_endproc
  25              	.LFE24:
  26              		.size	DtcSetNormalFromError, .-DtcSetNormalFromError
  27              		.section	.text.DtcMng_DtcCodeUpdate,"axv",@progbits
  28              		.align 1
  29              		.p2align 4,,15
  30              		.globl DtcMng_DtcCodeUpdate
  31              		.type	DtcMng_DtcCodeUpdate, @function
  32              	DtcMng_DtcCodeUpdate:
  33              	.LFB4:
  34              		.loc 1 103 0
  35              		.cfi_startproc
  36              	.LVL1:
  37 0000 182106F0 		e_stwu %r1,-16(%r1)
  38              	.LCFI0:
  39              		.cfi_def_cfa_offset 16
  40 0004 0080     		se_mflr %r0
  41 0006 D501     		se_stw %r0,20(%r1)
  42 0008 D3F1     		se_stw %r31,12(%r1)
  43              		.cfi_offset 65, 4
  44              		.cfi_offset 31, -4
  45 000a 013F     		se_mr %r31,%r3
  46              	.LVL2:
  47              	.LBB78:
  48              	.LBB79:
  49              		.loc 1 179 0
  50 000c 70E0E000 		e_lis %r7,Dia_Vin+26@ha
  51 0010 30E70000 		e_lbz %r7,Dia_Vin+26@l(%r7)
  52 0014 2A17     		se_cmpi %r7,1
  53 0016 7A02000C 		e_bne %cr0,.L4
  54              	.LVL3:
  55              	.LBB80:
  56              	.LBB81:
  57              		.loc 1 552 0
GAS LISTING C:\Users\duchu\AppData\Local\Temp\ccRefKAd.s 			page 2


  58 001a 4897     		se_li %r7,9
  59 001c 9273     		se_stb %r7,2(%r3)
  60 001e 78000012 		e_b .L5
  61              	.LVL4:
  62              	.L4:
  63              	.LBE81:
  64              	.LBE80:
  65              		.loc 1 185 0
  66 0022 8273     		se_lbz %r7,2(%r3)
  67 0024 2A97     		se_cmpi %r7,9
  68 0026 7A02000A 		e_bne %cr0,.L5
  69              		.loc 1 186 0
  70 002a 2013     		se_addi %r3,2
  71              	.LVL5:
  72 002c 78000001 		e_bl DtcSetNormalFromError
  73              	.LVL6:
  74              	.L5:
  75              	.LBE79:
  76              	.LBE78:
  77              	.LBB82:
  78              	.LBB83:
  79              		.loc 1 200 0
  80 0030 70E0E000 		e_lis %r7,Dia_Vin+27@ha
  81 0034 30E70000 		e_lbz %r7,Dia_Vin+27@l(%r7)
  82 0038 2A17     		se_cmpi %r7,1
  83 003a 7A02000C 		e_bne %cr0,.L6
  84              	.LVL7:
  85              	.LBB84:
  86              	.LBB85:
  87              		.loc 1 552 0
  88 003e 4897     		se_li %r7,9
  89 0040 937F     		se_stb %r7,3(%r31)
  90 0042 78000014 		e_b .L7
  91              	.LVL8:
  92              	.L6:
  93              	.LBE85:
  94              	.LBE84:
  95              		.loc 1 206 0
  96 0046 837F     		se_lbz %r7,3(%r31)
  97 0048 2A97     		se_cmpi %r7,9
  98 004a 7A02000C 		e_bne %cr0,.L7
  99              		.loc 1 207 0
 100 004e 187F8003 		e_addi %r3,%r31,3
 101 0052 78000001 		e_bl DtcSetNormalFromError
 102              	.LVL9:
 103              	.L7:
 104              	.LBE83:
 105              	.LBE82:
 106              	.LBB86:
 107              	.LBB87:
 108              		.loc 1 221 0
 109 0056 70E0E000 		e_lis %r7,Dia_Vout+26@ha
 110 005a 30E70000 		e_lbz %r7,Dia_Vout+26@l(%r7)
 111 005e 2A17     		se_cmpi %r7,1
 112 0060 7A02000C 		e_bne %cr0,.L8
 113              	.LVL10:
 114              	.LBB88:
GAS LISTING C:\Users\duchu\AppData\Local\Temp\ccRefKAd.s 			page 3


 115              	.LBB89:
 116              		.loc 1 552 0
 117 0064 4897     		se_li %r7,9
 118 0066 947F     		se_stb %r7,4(%r31)
 119 0068 78000014 		e_b .L9
 120              	.LVL11:
 121              	.L8:
 122              	.LBE89:
 123              	.LBE88:
 124              		.loc 1 227 0
 125 006c 847F     		se_lbz %r7,4(%r31)
 126 006e 2A97     		se_cmpi %r7,9
 127 0070 7A02000C 		e_bne %cr0,.L9
 128              		.loc 1 228 0
 129 0074 187F8004 		e_addi %r3,%r31,4
 130 0078 78000001 		e_bl DtcSetNormalFromError
 131              	.LVL12:
 132              	.L9:
 133              	.LBE87:
 134              	.LBE86:
 135              	.LBB90:
 136              	.LBB91:
 137              		.loc 1 242 0
 138 007c 70E0E000 		e_lis %r7,Dia_Vout+27@ha
 139 0080 30E70000 		e_lbz %r7,Dia_Vout+27@l(%r7)
 140 0084 2A17     		se_cmpi %r7,1
 141 0086 7A02000C 		e_bne %cr0,.L10
 142              	.LVL13:
 143              	.LBB92:
 144              	.LBB93:
 145              		.loc 1 552 0
 146 008a 4897     		se_li %r7,9
 147 008c 957F     		se_stb %r7,5(%r31)
 148 008e 78000014 		e_b .L11
 149              	.LVL14:
 150              	.L10:
 151              	.LBE93:
 152              	.LBE92:
 153              		.loc 1 248 0
 154 0092 857F     		se_lbz %r7,5(%r31)
 155 0094 2A97     		se_cmpi %r7,9
 156 0096 7A02000C 		e_bne %cr0,.L11
 157              		.loc 1 249 0
 158 009a 187F8005 		e_addi %r3,%r31,5
 159 009e 78000001 		e_bl DtcSetNormalFromError
 160              	.LVL15:
 161              	.L11:
 162              	.LBE91:
 163              	.LBE90:
 164              	.LBB94:
 165              	.LBB95:
 166              		.loc 1 137 0
 167 00a2 70E0E000 		e_lis %r7,Dia_Batt+26@ha
 168 00a6 30E70000 		e_lbz %r7,Dia_Batt+26@l(%r7)
 169 00aa 2A17     		se_cmpi %r7,1
 170 00ac 7A02000C 		e_bne %cr0,.L12
 171              	.LVL16:
GAS LISTING C:\Users\duchu\AppData\Local\Temp\ccRefKAd.s 			page 4


 172              	.LBB96:
 173              	.LBB97:
 174              		.loc 1 552 0
 175 00b0 4897     		se_li %r7,9
 176 00b2 907F     		se_stb %r7,0(%r31)
 177 00b4 78000012 		e_b .L13
 178              	.LVL17:
 179              	.L12:
 180              	.LBE97:
 181              	.LBE96:
 182              		.loc 1 143 0
 183 00b8 807F     		se_lbz %r7,0(%r31)
 184 00ba 2A97     		se_cmpi %r7,9
 185 00bc 7A02000A 		e_bne %cr0,.L13
 186              		.loc 1 144 0
 187 00c0 01F3     		se_mr %r3,%r31
 188 00c2 78000001 		e_bl DtcSetNormalFromError
 189              	.LVL18:
 190              	.L13:
 191              	.LBE95:
 192              	.LBE94:
 193              	.LBB98:
 194              	.LBB99:
 195              		.loc 1 158 0
 196 00c6 70E0E000 		e_lis %r7,Dia_Batt+27@ha
 197 00ca 30E70000 		e_lbz %r7,Dia_Batt+27@l(%r7)
 198 00ce 2A17     		se_cmpi %r7,1
 199 00d0 7A02000C 		e_bne %cr0,.L14
 200              	.LVL19:
 201              	.LBB100:
 202              	.LBB101:
 203              		.loc 1 552 0
 204 00d4 4897     		se_li %r7,9
 205 00d6 917F     		se_stb %r7,1(%r31)
 206 00d8 78000014 		e_b .L15
 207              	.LVL20:
 208              	.L14:
 209              	.LBE101:
 210              	.LBE100:
 211              		.loc 1 164 0
 212 00dc 817F     		se_lbz %r7,1(%r31)
 213 00de 2A97     		se_cmpi %r7,9
 214 00e0 7A02000C 		e_bne %cr0,.L15
 215              		.loc 1 165 0
 216 00e4 187F8001 		e_addi %r3,%r31,1
 217 00e8 78000001 		e_bl DtcSetNormalFromError
 218              	.LVL21:
 219              	.L15:
 220              	.LBE99:
 221              	.LBE98:
 222              	.LBB102:
 223              	.LBB103:
 224              		.loc 1 264 0
 225 00ec 70E0E000 		e_lis %r7,Dia_Iout+28@ha
 226 00f0 30E70000 		e_lbz %r7,Dia_Iout+28@l(%r7)
 227 00f4 2A17     		se_cmpi %r7,1
 228 00f6 7A02000C 		e_bne %cr0,.L16
GAS LISTING C:\Users\duchu\AppData\Local\Temp\ccRefKAd.s 			page 5


 229              	.LVL22:
 230              	.LBB104:
 231              	.LBB105:
 232              		.loc 1 552 0
 233 00fa 4897     		se_li %r7,9
 234 00fc 967F     		se_stb %r7,6(%r31)
 235 00fe 78000014 		e_b .L17
 236              	.LVL23:
 237              	.L16:
 238              	.LBE105:
 239              	.LBE104:
 240              		.loc 1 270 0
 241 0102 867F     		se_lbz %r7,6(%r31)
 242 0104 2A97     		se_cmpi %r7,9
 243 0106 7A02000C 		e_bne %cr0,.L17
 244              		.loc 1 271 0
 245 010a 187F8006 		e_addi %r3,%r31,6
 246 010e 78000001 		e_bl DtcSetNormalFromError
 247              	.LVL24:
 248              	.L17:
 249              	.LBE103:
 250              	.LBE102:
 251              	.LBB106:
 252              	.LBB107:
 253              		.loc 1 285 0
 254 0112 70E0E000 		e_lis %r7,Dia_Iout+26@ha
 255 0116 30E70000 		e_lbz %r7,Dia_Iout+26@l(%r7)
 256 011a 2A17     		se_cmpi %r7,1
 257 011c 7A02000C 		e_bne %cr0,.L18
 258              	.LVL25:
 259              	.LBB108:
 260              	.LBB109:
 261              		.loc 1 552 0
 262 0120 4897     		se_li %r7,9
 263 0122 977F     		se_stb %r7,7(%r31)
 264 0124 78000014 		e_b .L19
 265              	.LVL26:
 266              	.L18:
 267              	.LBE109:
 268              	.LBE108:
 269              		.loc 1 291 0
 270 0128 877F     		se_lbz %r7,7(%r31)
 271 012a 2A97     		se_cmpi %r7,9
 272 012c 7A02000C 		e_bne %cr0,.L19
 273              		.loc 1 292 0
 274 0130 187F8007 		e_addi %r3,%r31,7
 275 0134 78000001 		e_bl DtcSetNormalFromError
 276              	.LVL27:
 277              	.L19:
 278              	.LBE107:
 279              	.LBE106:
 280              	.LBB110:
 281              	.LBB111:
 282              		.loc 1 306 0
 283 0138 70E0E000 		e_lis %r7,Dia_Temp+14@ha
 284 013c 30E70000 		e_lbz %r7,Dia_Temp+14@l(%r7)
 285 0140 2A17     		se_cmpi %r7,1
GAS LISTING C:\Users\duchu\AppData\Local\Temp\ccRefKAd.s 			page 6


 286 0142 7A02000C 		e_bne %cr0,.L20
 287              	.LVL28:
 288              	.LBB112:
 289              	.LBB113:
 290              		.loc 1 552 0
 291 0146 4897     		se_li %r7,9
 292 0148 987F     		se_stb %r7,8(%r31)
 293 014a 78000014 		e_b .L21
 294              	.LVL29:
 295              	.L20:
 296              	.LBE113:
 297              	.LBE112:
 298              		.loc 1 312 0
 299 014e 887F     		se_lbz %r7,8(%r31)
 300 0150 2A97     		se_cmpi %r7,9
 301 0152 7A02000C 		e_bne %cr0,.L21
 302              		.loc 1 313 0
 303 0156 187F8008 		e_addi %r3,%r31,8
 304 015a 78000001 		e_bl DtcSetNormalFromError
 305              	.LVL30:
 306              	.L21:
 307              	.LBE111:
 308              	.LBE110:
 309              	.LBB114:
 310              	.LBB115:
 311              		.loc 1 327 0
 312 015e 70E0E000 		e_lis %r7,Dia_Temp+15@ha
 313 0162 30E70000 		e_lbz %r7,Dia_Temp+15@l(%r7)
 314 0166 2A17     		se_cmpi %r7,1
 315 0168 7A02000C 		e_bne %cr0,.L22
 316              	.LVL31:
 317              	.LBB116:
 318              	.LBB117:
 319              		.loc 1 552 0
 320 016c 4897     		se_li %r7,9
 321 016e 997F     		se_stb %r7,9(%r31)
 322 0170 78000014 		e_b .L23
 323              	.LVL32:
 324              	.L22:
 325              	.LBE117:
 326              	.LBE116:
 327              		.loc 1 333 0
 328 0174 897F     		se_lbz %r7,9(%r31)
 329 0176 2A97     		se_cmpi %r7,9
 330 0178 7A02000C 		e_bne %cr0,.L23
 331              		.loc 1 334 0
 332 017c 187F8009 		e_addi %r3,%r31,9
 333 0180 78000001 		e_bl DtcSetNormalFromError
 334              	.LVL33:
 335              	.L23:
 336              	.LBE115:
 337              	.LBE114:
 338              	.LBB118:
 339              	.LBB119:
 340              		.loc 1 348 0
 341 0184 70E0E000 		e_lis %r7,Dia_Temp+16@ha
 342 0188 30E70000 		e_lbz %r7,Dia_Temp+16@l(%r7)
GAS LISTING C:\Users\duchu\AppData\Local\Temp\ccRefKAd.s 			page 7


 343 018c 2A17     		se_cmpi %r7,1
 344 018e 7A02000C 		e_bne %cr0,.L24
 345              	.LVL34:
 346              	.LBB120:
 347              	.LBB121:
 348              		.loc 1 552 0
 349 0192 4897     		se_li %r7,9
 350 0194 9A7F     		se_stb %r7,10(%r31)
 351 0196 78000014 		e_b .L25
 352              	.LVL35:
 353              	.L24:
 354              	.LBE121:
 355              	.LBE120:
 356              		.loc 1 354 0
 357 019a 8A7F     		se_lbz %r7,10(%r31)
 358 019c 2A97     		se_cmpi %r7,9
 359 019e 7A02000C 		e_bne %cr0,.L25
 360              		.loc 1 355 0
 361 01a2 187F800A 		e_addi %r3,%r31,10
 362 01a6 78000001 		e_bl DtcSetNormalFromError
 363              	.LVL36:
 364              	.L25:
 365              	.LBE119:
 366              	.LBE118:
 367              	.LBB122:
 368              	.LBB123:
 369              		.loc 1 369 0
 370 01aa 70E0E000 		e_lis %r7,Dia_Iout_Sens+11@ha
 371 01ae 30E70000 		e_lbz %r7,Dia_Iout_Sens+11@l(%r7)
 372 01b2 2A17     		se_cmpi %r7,1
 373 01b4 7A02000C 		e_bne %cr0,.L26
 374              	.LVL37:
 375              	.LBB124:
 376              	.LBB125:
 377              		.loc 1 552 0
 378 01b8 4897     		se_li %r7,9
 379 01ba 9B7F     		se_stb %r7,11(%r31)
 380 01bc 78000014 		e_b .L27
 381              	.LVL38:
 382              	.L26:
 383              	.LBE125:
 384              	.LBE124:
 385              		.loc 1 375 0
 386 01c0 8B7F     		se_lbz %r7,11(%r31)
 387 01c2 2A97     		se_cmpi %r7,9
 388 01c4 7A02000C 		e_bne %cr0,.L27
 389              		.loc 1 376 0
 390 01c8 187F800B 		e_addi %r3,%r31,11
 391 01cc 78000001 		e_bl DtcSetNormalFromError
 392              	.LVL39:
 393              	.L27:
 394              	.LBE123:
 395              	.LBE122:
 396              	.LBB126:
 397              	.LBB127:
 398              		.loc 1 390 0
 399 01d0 70E0E000 		e_lis %r7,Dia_Iout_Sens+10@ha
GAS LISTING C:\Users\duchu\AppData\Local\Temp\ccRefKAd.s 			page 8


 400 01d4 30E70000 		e_lbz %r7,Dia_Iout_Sens+10@l(%r7)
 401 01d8 2A17     		se_cmpi %r7,1
 402 01da 7A02000C 		e_bne %cr0,.L28
 403              	.LVL40:
 404              	.LBB128:
 405              	.LBB129:
 406              		.loc 1 552 0
 407 01de 4897     		se_li %r7,9
 408 01e0 9C7F     		se_stb %r7,12(%r31)
 409 01e2 78000014 		e_b .L29
 410              	.LVL41:
 411              	.L28:
 412              	.LBE129:
 413              	.LBE128:
 414              		.loc 1 396 0
 415 01e6 8C7F     		se_lbz %r7,12(%r31)
 416 01e8 2A97     		se_cmpi %r7,9
 417 01ea 7A02000C 		e_bne %cr0,.L29
 418              		.loc 1 397 0
 419 01ee 187F800C 		e_addi %r3,%r31,12
 420 01f2 78000001 		e_bl DtcSetNormalFromError
 421              	.LVL42:
 422              	.L29:
 423              	.LBE127:
 424              	.LBE126:
 425              	.LBB130:
 426              	.LBB131:
 427              		.loc 1 411 0
 428 01f6 70E0E000 		e_lis %r7,Dia_Temp_Sens+11@ha
 429 01fa 30E70000 		e_lbz %r7,Dia_Temp_Sens+11@l(%r7)
 430 01fe 2A17     		se_cmpi %r7,1
 431 0200 7A02000C 		e_bne %cr0,.L30
 432              	.LVL43:
 433              	.LBB132:
 434              	.LBB133:
 435              		.loc 1 552 0
 436 0204 4897     		se_li %r7,9
 437 0206 9D7F     		se_stb %r7,13(%r31)
 438 0208 78000014 		e_b .L31
 439              	.LVL44:
 440              	.L30:
 441              	.LBE133:
 442              	.LBE132:
 443              		.loc 1 417 0
 444 020c 8D7F     		se_lbz %r7,13(%r31)
 445 020e 2A97     		se_cmpi %r7,9
 446 0210 7A02000C 		e_bne %cr0,.L31
 447              		.loc 1 418 0
 448 0214 187F800D 		e_addi %r3,%r31,13
 449 0218 78000001 		e_bl DtcSetNormalFromError
 450              	.LVL45:
 451              	.L31:
 452              	.LBE131:
 453              	.LBE130:
 454              	.LBB134:
 455              	.LBB135:
 456              		.loc 1 432 0
GAS LISTING C:\Users\duchu\AppData\Local\Temp\ccRefKAd.s 			page 9


 457 021c 70E0E000 		e_lis %r7,Dia_Temp_Sens+10@ha
 458 0220 30E70000 		e_lbz %r7,Dia_Temp_Sens+10@l(%r7)
 459 0224 2A17     		se_cmpi %r7,1
 460 0226 7A02000C 		e_bne %cr0,.L32
 461              	.LVL46:
 462              	.LBB136:
 463              	.LBB137:
 464              		.loc 1 552 0
 465 022a 4897     		se_li %r7,9
 466 022c 9E7F     		se_stb %r7,14(%r31)
 467 022e 78000014 		e_b .L33
 468              	.LVL47:
 469              	.L32:
 470              	.LBE137:
 471              	.LBE136:
 472              		.loc 1 438 0
 473 0232 8E7F     		se_lbz %r7,14(%r31)
 474 0234 2A97     		se_cmpi %r7,9
 475 0236 7A02000C 		e_bne %cr0,.L33
 476              		.loc 1 439 0
 477 023a 187F800E 		e_addi %r3,%r31,14
 478 023e 78000001 		e_bl DtcSetNormalFromError
 479              	.LVL48:
 480              	.L33:
 481              	.LBE135:
 482              	.LBE134:
 483              	.LBB138:
 484              	.LBB139:
 485              		.loc 1 453 0
 486 0242 70E0E000 		e_lis %r7,Dia_CAN+2@ha
 487 0246 58E70000 		e_lhz %r7,Dia_CAN+2@l(%r7)
 488 024a 2A17     		se_cmpi %r7,1
 489 024c 7A02000C 		e_bne %cr0,.L34
 490              	.LVL49:
 491              	.LBB140:
 492              	.LBB141:
 493              		.loc 1 552 0
 494 0250 4897     		se_li %r7,9
 495 0252 9F7F     		se_stb %r7,15(%r31)
 496 0254 78000014 		e_b .L35
 497              	.LVL50:
 498              	.L34:
 499              	.LBE141:
 500              	.LBE140:
 501              		.loc 1 459 0
 502 0258 8F7F     		se_lbz %r7,15(%r31)
 503 025a 2A97     		se_cmpi %r7,9
 504 025c 7A02000C 		e_bne %cr0,.L35
 505              		.loc 1 460 0
 506 0260 187F800F 		e_addi %r3,%r31,15
 507 0264 78000001 		e_bl DtcSetNormalFromError
 508              	.LVL51:
 509              	.L35:
 510              	.LBE139:
 511              	.LBE138:
 512              	.LBB142:
 513              	.LBB143:
GAS LISTING C:\Users\duchu\AppData\Local\Temp\ccRefKAd.s 			page 10


 514              		.loc 1 474 0
 515 0268 70E0E000 		e_lis %r7,Dia_CAN+6@ha
 516 026c 58E70000 		e_lhz %r7,Dia_CAN+6@l(%r7)
 517 0270 2A17     		se_cmpi %r7,1
 518 0272 7A02000E 		e_bne %cr0,.L36
 519              	.LVL52:
 520              	.LBB144:
 521              	.LBB145:
 522              		.loc 1 552 0
 523 0276 4897     		se_li %r7,9
 524 0278 34FF0010 		e_stb %r7,16(%r31)
 525 027c 78000016 		e_b .L37
 526              	.LVL53:
 527              	.L36:
 528              	.LBE145:
 529              	.LBE144:
 530              		.loc 1 480 0
 531 0280 30FF0010 		e_lbz %r7,16(%r31)
 532 0284 2A97     		se_cmpi %r7,9
 533 0286 7A02000C 		e_bne %cr0,.L37
 534              		.loc 1 481 0
 535 028a 187F8010 		e_addi %r3,%r31,16
 536 028e 78000001 		e_bl DtcSetNormalFromError
 537              	.LVL54:
 538              	.L37:
 539              	.LBE143:
 540              	.LBE142:
 541              	.LBB146:
 542              	.LBB147:
 543              		.loc 1 495 0
 544 0292 70E0E000 		e_lis %r7,Dia_CAN@ha
 545 0296 58E70000 		e_lhz %r7,Dia_CAN@l(%r7)
 546 029a 2A17     		se_cmpi %r7,1
 547 029c 7A02000E 		e_bne %cr0,.L38
 548              	.LVL55:
 549              	.LBB148:
 550              	.LBB149:
 551              		.loc 1 552 0
 552 02a0 4897     		se_li %r7,9
 553 02a2 34FF0012 		e_stb %r7,18(%r31)
 554 02a6 78000016 		e_b .L39
 555              	.LVL56:
 556              	.L38:
 557              	.LBE149:
 558              	.LBE148:
 559              		.loc 1 501 0
 560 02aa 30FF0012 		e_lbz %r7,18(%r31)
 561 02ae 2A97     		se_cmpi %r7,9
 562 02b0 7A02000C 		e_bne %cr0,.L39
 563              		.loc 1 502 0
 564 02b4 187F8012 		e_addi %r3,%r31,18
 565 02b8 78000001 		e_bl DtcSetNormalFromError
 566              	.LVL57:
 567              	.L39:
 568              	.LBE147:
 569              	.LBE146:
 570              	.LBB150:
GAS LISTING C:\Users\duchu\AppData\Local\Temp\ccRefKAd.s 			page 11


 571              	.LBB151:
 572              		.loc 1 516 0
 573 02bc 70E0E000 		e_lis %r7,Dia_CAN+4@ha
 574 02c0 58E70000 		e_lhz %r7,Dia_CAN+4@l(%r7)
 575 02c4 2A17     		se_cmpi %r7,1
 576 02c6 7A02000E 		e_bne %cr0,.L40
 577              	.LVL58:
 578              	.LBB152:
 579              	.LBB153:
 580              		.loc 1 552 0
 581 02ca 4897     		se_li %r7,9
 582 02cc 34FF0013 		e_stb %r7,19(%r31)
 583 02d0 78000016 		e_b .L3
 584              	.LVL59:
 585              	.L40:
 586              	.LBE153:
 587              	.LBE152:
 588              		.loc 1 522 0
 589 02d4 30FF0013 		e_lbz %r7,19(%r31)
 590 02d8 2A97     		se_cmpi %r7,9
 591 02da 7A02000C 		e_bne %cr0,.L3
 592              		.loc 1 523 0
 593 02de 187F8013 		e_addi %r3,%r31,19
 594 02e2 78000001 		e_bl DtcSetNormalFromError
 595              	.LVL60:
 596              	.L3:
 597              	.LBE151:
 598              	.LBE150:
 599              		.loc 1 125 0
 600 02e6 C501     		se_lwz %r0,20(%r1)
 601 02e8 0090     		se_mtlr %r0
 602              		.cfi_restore 65
 603 02ea C3F1     		se_lwz %r31,12(%r1)
 604              	.LVL61:
 605 02ec 20F1     		se_addi %r1,16
 606              	.LCFI1:
 607              		.cfi_restore 31
 608              		.cfi_def_cfa_offset 0
 609 02ee 0004     		se_blr
 610              		.cfi_endproc
 611              	.LFE4:
 612              		.size	DtcMng_DtcCodeUpdate, .-DtcMng_DtcCodeUpdate
 613              		.section	".text","axv"
 614              	.Letext0:
 615              		.file 2 "c:\\spc5studio\\eclipse\\plugins\\com.st.tools.spc5.tools.gnu.gcc.ppcvle.win32_4.9.4.2019
 616              		.file 3 "c:\\spc5studio\\eclipse\\plugins\\com.st.tools.spc5.tools.gnu.gcc.ppcvle.win32_4.9.4.2019
 617              		.file 4 "./source/ASW/Asw_FaultDetection.h"
 618              		.file 5 "./source/ASW/Asw_DtcMng.h"
 619              		.file 6 "./source/ASW/LdcConfig.h"