GAS LISTING C:\Users\duchu\AppData\Local\Temp\ccP5V09c.s 			page 1


   1              		.file	"Asw_Utility.c"
   2              		.section	".text","axv"
   3              	.Ltext0:
   4              		.cfi_sections	.debug_frame
   5              		.section	.text.Asw_GetIgnSts,"axv",@progbits
   6              		.align 1
   7              		.p2align 4,,15
   8              		.globl Asw_GetIgnSts
   9              		.type	Asw_GetIgnSts, @function
  10              	Asw_GetIgnSts:
  11              	.LFB4:
  12              		.file 1 "./source/ASW/Asw_Utility.c"
  13              		.loc 1 113 0
  14              		.cfi_startproc
  15              	.LVL0:
  16              		.loc 1 122 0
  17 0000 4813     		se_li %r3,1
  18 0002 0004     		se_blr
  19              		.cfi_endproc
  20              	.LFE4:
  21              		.size	Asw_GetIgnSts, .-Asw_GetIgnSts
  22              		.section	.text.Asw_FindCurrentAdd,"axv",@progbits
  23              		.align 1
  24              		.p2align 4,,15
  25              		.globl Asw_FindCurrentAdd
  26              		.type	Asw_FindCurrentAdd, @function
  27              	Asw_FindCurrentAdd:
  28              	.LFB5:
  29              		.loc 1 132 0
  30              		.cfi_startproc
  31 0000 182106E0 		e_stwu %r1,-32(%r1)
  32              	.LCFI0:
  33              		.cfi_def_cfa_offset 32
  34 0004 0080     		se_mflr %r0
  35 0006 D901     		se_stw %r0,36(%r1)
  36 0008 1B410908 		e_stmw %r26,8(%r1)
  37              		.cfi_offset 65, 4
  38              		.cfi_offset 26, -24
  39              		.cfi_offset 27, -20
  40              		.cfi_offset 28, -16
  41              		.cfi_offset 29, -12
  42              		.cfi_offset 30, -8
  43              		.cfi_offset 31, -4
  44              	.LVL1:
  45              		.loc 1 141 0
  46 000c 6283     		se_bgeni %r3,8
  47 000e 7067C7C0 		e_or2i %r3,16320
  48 0012 78000001 		e_bl UDS_EEP_ReadDataByIdentifier
  49              	.LVL2:
  50              		.loc 1 143 0
  51 0016 628E     		se_bgeni %r30,8
  52              		.loc 1 141 0
  53 0018 73E39FFF 		e_cmp16i %r3,-1
  54 001c 7A02005E 		e_bne %cr0,.L3
  55              		.loc 1 147 0
  56 0020 6283     		se_bgeni %r3,8
  57 0022 6523     		se_bseti %r3,18
GAS LISTING C:\Users\duchu\AppData\Local\Temp\ccP5V09c.s 			page 2


  58 0024 78000001 		e_bl UDS_EEP_ReadDataByIdentifier
  59              	.LVL3:
  60              		.loc 1 153 0
  61 0028 73E39FFF 		e_cmp16i %r3,-1
  62 002c 6287     		se_bgeni %r7,8
  63 002e 6527     		se_bseti %r7,18
  64 0030 7FDE389E 		isel %r30,%r30,%r7,2
  65 0034 78000046 		e_b .L3
  66              	.LVL4:
  67              	.L5:
  68              		.loc 1 159 0
  69 0038 01E3     		se_mr %r3,%r30
  70 003a 78000001 		e_bl UDS_EEP_ReadDataByIdentifier
  71              	.LVL5:
  72 003e 013D     		se_mr %r29,%r3
  73              	.LVL6:
  74              		.loc 1 160 0
  75 0040 187E8004 		e_addi %r3,%r30,4
  76              	.LVL7:
  77 0044 78000001 		e_bl UDS_EEP_ReadDataByIdentifier
  78              	.LVL8:
  79 0048 013C     		se_mr %r28,%r3
  80              	.LVL9:
  81              		.loc 1 161 0
  82 004a 187E8008 		e_addi %r3,%r30,8
  83              	.LVL10:
  84 004e 78000001 		e_bl UDS_EEP_ReadDataByIdentifier
  85              	.LVL11:
  86 0052 013F     		se_mr %r31,%r3
  87              	.LVL12:
  88              		.loc 1 162 0
  89 0054 187E800C 		e_addi %r3,%r30,12
  90              	.LVL13:
  91 0058 78000001 		e_bl UDS_EEP_ReadDataByIdentifier
  92              	.LVL14:
  93              		.loc 1 164 0
  94 005c 46CD     		se_and %r29,%r28
  95              	.LVL15:
  96 005e 46DF     		se_and %r31,%r29
  97              	.LVL16:
  98 0060 46F3     		se_and %r3,%r31
  99              	.LVL17:
 100 0062 0CB3     		se_cmp %r3,%r27
 101 0064 7A12000A 		e_beq %cr0,.L4
 102              	.LVL18:
 103              		.loc 1 166 0
 104 0068 04AE     		se_add %r30,%r26
 105              	.LVL19:
 106 006a 79FFFFCE 		e_b .L5
 107              	.L4:
 108              	.LVL20:
 109              		.loc 1 171 0
 110 006e 70E0E000 		e_lis %r7,.LANCHOR0@ha
 111 0072 57C70000 		e_stw %r30,.LANCHOR0@l(%r7)
 112 0076 7800000C 		e_b .L8
 113              	.LVL21:
 114              	.L3:
GAS LISTING C:\Users\duchu\AppData\Local\Temp\ccP5V09c.s 			page 3


 115              		.loc 1 164 0
 116 007a 2C0B     		se_bmaski %r27,0
 117              		.loc 1 166 0
 118 007c 4C0A     		se_li %r26,64
 119 007e 79FFFFBA 		e_b .L5
 120              	.LVL22:
 121              	.L8:
 122              		.loc 1 174 0
 123 0082 C901     		se_lwz %r0,36(%r1)
 124 0084 0090     		se_mtlr %r0
 125              		.cfi_restore 65
 126 0086 1B410808 		e_lmw %r26,8(%r1)
 127              	.LVL23:
 128 008a 21F1     		se_addi %r1,32
 129              	.LCFI1:
 130              		.cfi_restore 31
 131              		.cfi_restore 30
 132              		.cfi_restore 29
 133              		.cfi_restore 28
 134              		.cfi_restore 27
 135              		.cfi_restore 26
 136              		.cfi_def_cfa_offset 0
 137 008c 0004     		se_blr
 138              		.cfi_endproc
 139              	.LFE5:
 140              		.size	Asw_FindCurrentAdd, .-Asw_FindCurrentAdd
 141              		.section	.text.Asw_DTC_Eeprom_Read,"axv",@progbits
 142              		.align 1
 143              		.p2align 4,,15
 144              		.globl Asw_DTC_Eeprom_Read
 145              		.type	Asw_DTC_Eeprom_Read, @function
 146              	Asw_DTC_Eeprom_Read:
 147              	.LFB6:
 148              		.loc 1 184 0
 149              		.cfi_startproc
 150              	.LVL24:
 151 0000 182106D0 		e_stwu %r1,-48(%r1)
 152              	.LCFI2:
 153              		.cfi_def_cfa_offset 48
 154 0004 0080     		se_mflr %r0
 155 0006 DD01     		se_stw %r0,52(%r1)
 156 0008 1AE1090C 		e_stmw %r23,12(%r1)
 157              		.cfi_offset 65, 4
 158              		.cfi_offset 23, -36
 159              		.cfi_offset 24, -32
 160              		.cfi_offset 25, -28
 161              		.cfi_offset 26, -24
 162              		.cfi_offset 27, -20
 163              		.cfi_offset 28, -16
 164              		.cfi_offset 29, -12
 165              		.cfi_offset 30, -8
 166              		.cfi_offset 31, -4
 167 000c 013B     		se_mr %r27,%r3
 168              		.loc 1 191 0
 169 000e 18A384C0 		e_addi %r5,%r3,-64
 170 0012 1803AA80 		e_cmpi %cr0,%r3,8388608
 171 0016 6286     		se_bgeni %r6,8
GAS LISTING C:\Users\duchu\AppData\Local\Temp\ccP5V09c.s 			page 4


 172 0018 70C7C7C0 		e_or2i %r6,16320
 173 001c 7CE6289E 		isel %r7,%r6,%r5,2
 174              	.LVL25:
 175 0020 1BA78020 		e_addi %r29,%r7,32
 176              		.loc 1 190 0
 177 0024 017F     		se_mr %r31,%r7
 178              		.loc 1 197 0
 179 0026 2D7E     		se_bmaski %r30,23
 180 0028 6289     		se_bgeni %r25,8
 181 002a 7327C7DF 		e_or2i %r25,16351
 182              		.loc 1 201 0
 183 002e 72FF7FFF 		e_li %r23,-1
 184 0032 7F8700D0 		neg %r28,%r7
 185 0036 70E0E000 		e_lis %r7,.LANCHOR1@ha
 186              	.LVL26:
 187 003a 1CE70000 		e_la %r7,.LANCHOR1@l(%r7)
 188 003e 7F47E214 		add %r26,%r7,%r28
 189 0042 70E0E000 		e_lis %r7,.LANCHOR2@ha
 190 0046 1F070000 		e_la %r24,.LANCHOR2@l(%r7)
 191              	.LVL27:
 192              	.L12:
 193              		.loc 1 197 0
 194 004a 0DEF     		se_cmpl %r31,%r30
 195 004c 7A010024 		e_ble %cr0,.L11
 196              		.loc 1 197 0 is_stmt 0 discriminator 1
 197 0050 0D9B     		se_cmpl %r27,%r25
 198 0052 7A11001E 		e_bgt %cr0,.L11
 199              		.loc 1 199 0 is_stmt 1
 200 0056 01F3     		se_mr %r3,%r31
 201 0058 78000001 		e_bl UDS_EEP_ReadDataByIdentifier
 202              	.LVL28:
 203              		.loc 1 201 0
 204 005c 7C03B800 		cmp %cr0,%r3,%r23
 205 0060 7A120010 		e_beq %cr0,.L11
 206              		.loc 1 203 0
 207 0064 7C7AF92E 		stwx %r3,%r26,%r31
 208 0068 7CF8E214 		add %r7,%r24,%r28
 209              		.loc 1 204 0
 210 006c 7C67F92E 		stwx %r3,%r7,%r31
 211              	.LVL29:
 212              	.L11:
 213 0070 203F     		se_addi %r31,4
 214              	.LVL30:
 215              		.loc 1 193 0 discriminator 2
 216 0072 0DDF     		se_cmpl %r31,%r29
 217 0074 7A02FFD6 		e_bne %cr0,.L12
 218              		.loc 1 208 0
 219 0078 CD01     		se_lwz %r0,52(%r1)
 220 007a 0090     		se_mtlr %r0
 221              		.cfi_restore 65
 222 007c 1AE1080C 		e_lmw %r23,12(%r1)
 223              	.LVL31:
 224 0080 18218030 		e_addi %r1,%r1,48
 225              	.LCFI3:
 226              		.cfi_restore 31
 227              		.cfi_restore 30
 228              		.cfi_restore 29
GAS LISTING C:\Users\duchu\AppData\Local\Temp\ccP5V09c.s 			page 5


 229              		.cfi_restore 28
 230              		.cfi_restore 27
 231              		.cfi_restore 26
 232              		.cfi_restore 25
 233              		.cfi_restore 24
 234              		.cfi_restore 23
 235              		.cfi_def_cfa_offset 0
 236 0084 0004     		se_blr
 237              		.cfi_endproc
 238              	.LFE6:
 239              		.size	Asw_DTC_Eeprom_Read, .-Asw_DTC_Eeprom_Read
 240              		.section	.text.Asw_DTC_Eeprom_Write,"axv",@progbits
 241              		.align 1
 242              		.p2align 4,,15
 243              		.globl Asw_DTC_Eeprom_Write
 244              		.type	Asw_DTC_Eeprom_Write, @function
 245              	Asw_DTC_Eeprom_Write:
 246              	.LFB7:
 247              		.loc 1 218 0
 248              		.cfi_startproc
 249 0000 182106F0 		e_stwu %r1,-16(%r1)
 250              	.LCFI4:
 251              		.cfi_def_cfa_offset 16
 252 0004 1BC10908 		e_stmw %r30,8(%r1)
 253              		.cfi_offset 30, -8
 254              		.cfi_offset 31, -4
 255              	.LVL32:
 256              		.loc 1 228 0
 257 0008 70E0E000 		e_lis %r7,u32g_LDC_ERR_Sts@ha
 258 000c 53E70000 		e_lwz %r31,u32g_LDC_ERR_Sts@l(%r7)
 259 0010 70E0E000 		e_lis %r7,.LANCHOR3@ha
 260 0014 50E70000 		e_lwz %r7,.LANCHOR3@l(%r7)
 261 0018 0CF7     		se_cmp %r7,%r31
 262 001a 7A1200AA 		e_beq %cr0,.L15
 263 001e 4805     		se_li %r5,0
 264              		.loc 1 232 0
 265 0020 4810     		se_li %r0,1
 266              		.loc 1 245 0
 267 0022 7060E000 		e_lis %r3,.LANCHOR1@ha
 268 0026 1C630000 		e_la %r3,.LANCHOR1@l(%r3)
 269              		.loc 1 239 0
 270 002a 71600009 		e_li %r11,9
 271 002e 4947     		se_li %r7,20
 272 0030 00B7     		se_mtctr %r7
 273              	.LVL33:
 274              	.L19:
 275 0032 74A7063F 		e_rlwinm %r7,%r5,0,0xff
 276              	.LVL34:
 277              		.loc 1 233 0
 278 0036 7CE61470 		e_srwi %r6,%r7,2
 279              	.LVL35:
 280              		.loc 1 234 0
 281 003a 2E37     		se_andi %r7,3
 282              	.LVL36:
 283              		.loc 1 232 0
 284 003c 7C042830 		slw %r4,%r0,%r5
 285              		.loc 1 237 0
GAS LISTING C:\Users\duchu\AppData\Local\Temp\ccP5V09c.s 			page 6


 286 0040 7C9EF839 		and. %r30,%r4,%r31
 287 0044 7A12001A 		e_beq %cr0,.L17
 288              	.LVL37:
 289              		.loc 1 240 0
 290 0048 6C26     		se_slwi %r6, 2
 291              	.LVL38:
 292              		.loc 1 239 0
 293 004a 6C37     		se_slwi %r7, 3
 294              	.LVL39:
 295 004c 7D643830 		slw %r4,%r11,%r7
 296              		.loc 1 240 0
 297 0050 7CE3302E 		lwzx %r7,%r3,%r6
 298 0054 4447     		se_or %r7,%r4
 299 0056 7CE3312E 		stwx %r7,%r3,%r6
 300 005a 78000018 		e_b .L18
 301              	.LVL40:
 302              	.L17:
 303              		.loc 1 245 0
 304 005e 6C26     		se_slwi %r6, 2
 305              	.LVL41:
 306              		.loc 1 244 0
 307 0060 6C37     		se_slwi %r7, 3
 308              	.LVL42:
 309 0062 7C073830 		slw %r7,%r0,%r7
 310              		.loc 1 245 0
 311 0066 7C83302E 		lwzx %r4,%r3,%r6
 312 006a 7C873878 		andc %r7,%r4,%r7
 313 006e 7CE3312E 		stwx %r7,%r3,%r6
 314              	.LVL43:
 315              	.L18:
 316 0072 2005     		se_addi %r5,1
 317              	.LVL44:
 318              		.loc 1 230 0 discriminator 2
 319 0074 7A20FFBE 		e_bdnz .L19
 320 0078 70E0E000 		e_lis %r7,.LANCHOR4@ha
 321 007c 30670000 		e_lbz %r3,.LANCHOR4@l(%r7)
 322 0080 7080E000 		e_lis %r4,.LANCHOR1@ha
 323 0084 1C840000 		e_la %r4,.LANCHOR1@l(%r4)
 324 0088 188484FC 		e_addi %r4,%r4,-4
 325 008c 70C0E000 		e_lis %r6,.LANCHOR2@ha
 326 0090 1CC60000 		e_la %r6,.LANCHOR2@l(%r6)
 327 0094 18C684FC 		e_addi %r6,%r6,-4
 328              		.loc 1 254 0
 329 0098 4810     		se_li %r0,1
 330 009a 4887     		se_li %r7,8
 331 009c 00B7     		se_mtctr %r7
 332              	.LVL45:
 333              	.L21:
 334              		.loc 1 251 0
 335 009e 18A40204 		e_lwzu %r5,4(%r4)
 336 00a2 18E60204 		e_lwzu %r7,4(%r6)
 337 00a6 0C75     		se_cmp %r5,%r7
 338 00a8 7A120008 		e_beq %cr0,.L20
 339              		.loc 1 253 0
 340 00ac D056     		se_stw %r5,0(%r6)
 341              		.loc 1 254 0
 342 00ae 0103     		se_mr %r3,%r0
GAS LISTING C:\Users\duchu\AppData\Local\Temp\ccP5V09c.s 			page 7


 343              	.L20:
 344              		.loc 1 249 0 discriminator 2
 345 00b0 7A20FFEE 		e_bdnz .L21
 346 00b4 70E0E000 		e_lis %r7,.LANCHOR4@ha
 347 00b8 34670000 		e_stb %r3,.LANCHOR4@l(%r7)
 348              		.loc 1 258 0
 349 00bc 70E0E000 		e_lis %r7,.LANCHOR3@ha
 350 00c0 57E70000 		e_stw %r31,.LANCHOR3@l(%r7)
 351              	.L15:
 352              		.loc 1 260 0
 353 00c4 1BC10808 		e_lmw %r30,8(%r1)
 354 00c8 20F1     		se_addi %r1,16
 355              	.LCFI5:
 356              		.cfi_restore 31
 357              		.cfi_restore 30
 358              		.cfi_def_cfa_offset 0
 359 00ca 0004     		se_blr
 360              		.cfi_endproc
 361              	.LFE7:
 362              		.size	Asw_DTC_Eeprom_Write, .-Asw_DTC_Eeprom_Write
 363              		.section	.text.Asw_DID_Eeprom_Read,"axv",@progbits
 364              		.align 1
 365              		.p2align 4,,15
 366              		.globl Asw_DID_Eeprom_Read
 367              		.type	Asw_DID_Eeprom_Read, @function
 368              	Asw_DID_Eeprom_Read:
 369              	.LFB8:
 370              		.loc 1 270 0
 371              		.cfi_startproc
 372              	.LVL46:
 373 0000 182106D0 		e_stwu %r1,-48(%r1)
 374              	.LCFI6:
 375              		.cfi_def_cfa_offset 48
 376 0004 0080     		se_mflr %r0
 377 0006 DD01     		se_stw %r0,52(%r1)
 378 0008 1AE1090C 		e_stmw %r23,12(%r1)
 379              		.cfi_offset 65, 4
 380              		.cfi_offset 23, -36
 381              		.cfi_offset 24, -32
 382              		.cfi_offset 25, -28
 383              		.cfi_offset 26, -24
 384              		.cfi_offset 27, -20
 385              		.cfi_offset 28, -16
 386              		.cfi_offset 29, -12
 387              		.cfi_offset 30, -8
 388              		.cfi_offset 31, -4
 389 000c 013B     		se_mr %r27,%r3
 390              		.loc 1 277 0
 391 000e 18A384E0 		e_addi %r5,%r3,-32
 392 0012 1803AA80 		e_cmpi %cr0,%r3,8388608
 393 0016 6286     		se_bgeni %r6,8
 394 0018 70C7C7E0 		e_or2i %r6,16352
 395 001c 7CE6289E 		isel %r7,%r6,%r5,2
 396              	.LVL47:
 397 0020 1BA78020 		e_addi %r29,%r7,32
 398              		.loc 1 276 0
 399 0024 017F     		se_mr %r31,%r7
GAS LISTING C:\Users\duchu\AppData\Local\Temp\ccP5V09c.s 			page 8


 400              		.loc 1 283 0
 401 0026 2D7E     		se_bmaski %r30,23
 402 0028 6289     		se_bgeni %r25,8
 403 002a 7327C7FF 		e_or2i %r25,16383
 404              		.loc 1 287 0
 405 002e 72FF7FFF 		e_li %r23,-1
 406 0032 7F8700D0 		neg %r28,%r7
 407 0036 70E0E000 		e_lis %r7,.LANCHOR5@ha
 408              	.LVL48:
 409 003a 1CE70000 		e_la %r7,.LANCHOR5@l(%r7)
 410 003e 7F47E214 		add %r26,%r7,%r28
 411 0042 70E0E000 		e_lis %r7,.LANCHOR6@ha
 412 0046 1F070000 		e_la %r24,.LANCHOR6@l(%r7)
 413              	.LVL49:
 414              	.L27:
 415              		.loc 1 283 0
 416 004a 0DEF     		se_cmpl %r31,%r30
 417 004c 7A010024 		e_ble %cr0,.L26
 418              		.loc 1 283 0 is_stmt 0 discriminator 1
 419 0050 0D9B     		se_cmpl %r27,%r25
 420 0052 7A11001E 		e_bgt %cr0,.L26
 421              		.loc 1 285 0 is_stmt 1
 422 0056 01F3     		se_mr %r3,%r31
 423 0058 78000001 		e_bl UDS_EEP_ReadDataByIdentifier
 424              	.LVL50:
 425              		.loc 1 287 0
 426 005c 7C03B800 		cmp %cr0,%r3,%r23
 427 0060 7A120010 		e_beq %cr0,.L26
 428              		.loc 1 289 0
 429 0064 7C7AF92E 		stwx %r3,%r26,%r31
 430 0068 7CF8E214 		add %r7,%r24,%r28
 431              		.loc 1 290 0
 432 006c 7C67F92E 		stwx %r3,%r7,%r31
 433              	.LVL51:
 434              	.L26:
 435 0070 203F     		se_addi %r31,4
 436              	.LVL52:
 437              		.loc 1 279 0 discriminator 2
 438 0072 0DDF     		se_cmpl %r31,%r29
 439 0074 7A02FFD6 		e_bne %cr0,.L27
 440              		.loc 1 294 0
 441 0078 CD01     		se_lwz %r0,52(%r1)
 442 007a 0090     		se_mtlr %r0
 443              		.cfi_restore 65
 444 007c 1AE1080C 		e_lmw %r23,12(%r1)
 445              	.LVL53:
 446 0080 18218030 		e_addi %r1,%r1,48
 447              	.LCFI7:
 448              		.cfi_restore 31
 449              		.cfi_restore 30
 450              		.cfi_restore 29
 451              		.cfi_restore 28
 452              		.cfi_restore 27
 453              		.cfi_restore 26
 454              		.cfi_restore 25
 455              		.cfi_restore 24
 456              		.cfi_restore 23
GAS LISTING C:\Users\duchu\AppData\Local\Temp\ccP5V09c.s 			page 9


 457              		.cfi_def_cfa_offset 0
 458 0084 0004     		se_blr
 459              		.cfi_endproc
 460              	.LFE8:
 461              		.size	Asw_DID_Eeprom_Read, .-Asw_DID_Eeprom_Read
 462              		.section	.text.Asw_DID_Eeprom_Write,"axv",@progbits
 463              		.align 1
 464              		.p2align 4,,15
 465              		.globl Asw_DID_Eeprom_Write
 466              		.type	Asw_DID_Eeprom_Write, @function
 467              	Asw_DID_Eeprom_Write:
 468              	.LFB9:
 469              		.loc 1 304 0
 470              		.cfi_startproc
 471              	.LVL54:
 472 0000 70E0E000 		e_lis %r7,.LANCHOR4@ha
 473 0004 30070000 		e_lbz %r0,.LANCHOR4@l(%r7)
 474 0008 70C0E000 		e_lis %r6,u8g_Eeprom_WriteData+3@ha
 475 000c 1CC60000 		e_la %r6,u8g_Eeprom_WriteData+3@l(%r6)
 476 0010 7060E000 		e_lis %r3,.LANCHOR5@ha
 477 0014 1C630000 		e_la %r3,.LANCHOR5@l(%r3)
 478 0018 186384FC 		e_addi %r3,%r3,-4
 479 001c 7080E000 		e_lis %r4,.LANCHOR6@ha
 480 0020 1C840000 		e_la %r4,.LANCHOR6@l(%r4)
 481 0024 188484FC 		e_addi %r4,%r4,-4
 482              		.loc 1 318 0
 483 0028 71600001 		e_li %r11,1
 484 002c 4887     		se_li %r7,8
 485 002e 00B7     		se_mtctr %r7
 486              	.LVL55:
 487              	.L32:
 488              		.loc 1 310 0
 489 0030 8076     		se_lbz %r7,0(%r6)
 490 0032 7CE5C070 		e_slwi %r5,%r7,24
 491              		.loc 1 311 0
 492 0036 30E6FFFF 		e_lbz %r7,-1(%r6)
 493 003a 6D07     		se_slwi %r7, 16
 494 003c 4457     		se_or %r7,%r5
 495              		.loc 1 313 0
 496 003e 30A6FFFD 		e_lbz %r5,-3(%r6)
 497 0042 4475     		se_or %r5,%r7
 498              		.loc 1 312 0
 499 0044 30E6FFFE 		e_lbz %r7,-2(%r6)
 500 0048 6C87     		se_slwi %r7, 8
 501              		.loc 1 310 0
 502 004a 4457     		se_or %r7,%r5
 503 004c 18E30604 		e_stwu %r7,4(%r3)
 504              		.loc 1 315 0
 505 0050 18A40204 		e_lwzu %r5,4(%r4)
 506 0054 0C57     		se_cmp %r7,%r5
 507 0056 7A120008 		e_beq %cr0,.L31
 508              		.loc 1 317 0
 509 005a D074     		se_stw %r7,0(%r4)
 510              		.loc 1 318 0
 511 005c 0330     		se_mfar %r0,%r11
 512              	.L31:
 513 005e 2036     		se_addi %r6,4
GAS LISTING C:\Users\duchu\AppData\Local\Temp\ccP5V09c.s 			page 10


 514              		.loc 1 308 0 discriminator 2
 515 0060 7A20FFD0 		e_bdnz .L32
 516 0064 70E0E000 		e_lis %r7,.LANCHOR4@ha
 517 0068 34070000 		e_stb %r0,.LANCHOR4@l(%r7)
 518 006c 0004     		se_blr
 519              		.cfi_endproc
 520              	.LFE9:
 521              		.size	Asw_DID_Eeprom_Write, .-Asw_DID_Eeprom_Write
 522              		.section	.text.UTILS_REF_INV,"axv",@progbits
 523              		.align 1
 524              		.p2align 4,,15
 525              		.globl UTILS_REF_INV
 526              		.type	UTILS_REF_INV, @function
 527              	UTILS_REF_INV:
 528              	.LFB10:
 529              		.loc 1 331 0
 530              		.cfi_startproc
 531              	.LVL56:
 532              		.loc 1 338 0
 533 0000 A175     		se_lhz %r7,2(%r5)
 534 0002 0D37     		se_cmpl %r7,%r3
 535 0004 7A110098 		e_bgt %cr0,.L39
 536              		.loc 1 339 0 discriminator 1
 537 0008 A275     		se_lhz %r7,4(%r5)
 538 000a 0D37     		se_cmpl %r7,%r3
 539 000c 7A110096 		e_bgt %cr0,.L40
 540              		.loc 1 340 0
 541 0010 A375     		se_lhz %r7,6(%r5)
 542 0012 0D37     		se_cmpl %r7,%r3
 543 0014 7A110094 		e_bgt %cr0,.L41
 544              		.loc 1 341 0
 545 0018 A475     		se_lhz %r7,8(%r5)
 546 001a 0D37     		se_cmpl %r7,%r3
 547 001c 7A110092 		e_bgt %cr0,.L42
 548              		.loc 1 342 0
 549 0020 A575     		se_lhz %r7,10(%r5)
 550 0022 0D37     		se_cmpl %r7,%r3
 551 0024 7A110090 		e_bgt %cr0,.L43
 552              		.loc 1 343 0
 553 0028 A675     		se_lhz %r7,12(%r5)
 554 002a 0D37     		se_cmpl %r7,%r3
 555 002c 7A11008E 		e_bgt %cr0,.L44
 556              		.loc 1 344 0
 557 0030 A775     		se_lhz %r7,14(%r5)
 558 0032 0D37     		se_cmpl %r7,%r3
 559 0034 7A11008C 		e_bgt %cr0,.L45
 560              		.loc 1 345 0
 561 0038 A875     		se_lhz %r7,16(%r5)
 562 003a 0D37     		se_cmpl %r7,%r3
 563 003c 7A11008A 		e_bgt %cr0,.L46
 564              		.loc 1 346 0
 565 0040 A975     		se_lhz %r7,18(%r5)
 566 0042 0D37     		se_cmpl %r7,%r3
 567 0044 7A110088 		e_bgt %cr0,.L47
 568              		.loc 1 347 0
 569 0048 AA75     		se_lhz %r7,20(%r5)
 570 004a 0D37     		se_cmpl %r7,%r3
GAS LISTING C:\Users\duchu\AppData\Local\Temp\ccP5V09c.s 			page 11


 571 004c 7A110086 		e_bgt %cr0,.L48
 572              		.loc 1 348 0
 573 0050 AB75     		se_lhz %r7,22(%r5)
 574 0052 0D37     		se_cmpl %r7,%r3
 575 0054 7A110084 		e_bgt %cr0,.L49
 576              		.loc 1 349 0
 577 0058 AC75     		se_lhz %r7,24(%r5)
 578 005a 0D37     		se_cmpl %r7,%r3
 579 005c 7A110082 		e_bgt %cr0,.L50
 580              		.loc 1 350 0
 581 0060 AD75     		se_lhz %r7,26(%r5)
 582 0062 0D37     		se_cmpl %r7,%r3
 583 0064 7A110080 		e_bgt %cr0,.L51
 584              		.loc 1 351 0
 585 0068 AE75     		se_lhz %r7,28(%r5)
 586 006a 0D37     		se_cmpl %r7,%r3
 587 006c 7A11007E 		e_bgt %cr0,.L52
 588              		.loc 1 352 0
 589 0070 AF75     		se_lhz %r7,30(%r5)
 590 0072 0D37     		se_cmpl %r7,%r3
 591 0074 7A11007C 		e_bgt %cr0,.L53
 592              		.loc 1 353 0
 593 0078 58E50020 		e_lhz %r7,32(%r5)
 594 007c 0D37     		se_cmpl %r7,%r3
 595 007e 7A110078 		e_bgt %cr0,.L54
 596              		.loc 1 354 0
 597 0082 58E50022 		e_lhz %r7,34(%r5)
 598 0086 0D37     		se_cmpl %r7,%r3
 599 0088 7A110074 		e_bgt %cr0,.L55
 600              		.loc 1 355 0
 601 008c 58E50024 		e_lhz %r7,36(%r5)
 602 0090 4910     		se_li %r0,17
 603 0092 0D37     		se_cmpl %r7,%r3
 604 0094 7A11006A 		e_bgt %cr0,.L35
 605 0098 7800009E 		e_b .L37
 606              	.L39:
 607              		.loc 1 338 0
 608 009c 4800     		se_li %r0,0
 609 009e 78000060 		e_b .L35
 610              	.L40:
 611              		.loc 1 339 0
 612 00a2 4810     		se_li %r0,1
 613 00a4 7800005A 		e_b .L35
 614              	.L41:
 615              		.loc 1 340 0
 616 00a8 4820     		se_li %r0,2
 617 00aa 78000054 		e_b .L35
 618              	.L42:
 619              		.loc 1 341 0
 620 00ae 4830     		se_li %r0,3
 621 00b0 7800004E 		e_b .L35
 622              	.L43:
 623              		.loc 1 342 0
 624 00b4 4840     		se_li %r0,4
 625 00b6 78000048 		e_b .L35
 626              	.L44:
 627              		.loc 1 343 0
GAS LISTING C:\Users\duchu\AppData\Local\Temp\ccP5V09c.s 			page 12


 628 00ba 4850     		se_li %r0,5
 629 00bc 78000042 		e_b .L35
 630              	.L45:
 631              		.loc 1 344 0
 632 00c0 4860     		se_li %r0,6
 633 00c2 7800003C 		e_b .L35
 634              	.L46:
 635              		.loc 1 345 0
 636 00c6 4870     		se_li %r0,7
 637 00c8 78000036 		e_b .L35
 638              	.L47:
 639              		.loc 1 346 0
 640 00cc 4880     		se_li %r0,8
 641 00ce 78000030 		e_b .L35
 642              	.L48:
 643              		.loc 1 347 0
 644 00d2 4890     		se_li %r0,9
 645 00d4 7800002A 		e_b .L35
 646              	.L49:
 647              		.loc 1 348 0
 648 00d8 48A0     		se_li %r0,10
 649 00da 78000024 		e_b .L35
 650              	.L50:
 651              		.loc 1 349 0
 652 00de 48B0     		se_li %r0,11
 653 00e0 7800001E 		e_b .L35
 654              	.L51:
 655              		.loc 1 350 0
 656 00e4 48C0     		se_li %r0,12
 657 00e6 78000018 		e_b .L35
 658              	.L52:
 659              		.loc 1 351 0
 660 00ea 48D0     		se_li %r0,13
 661 00ec 78000012 		e_b .L35
 662              	.L53:
 663              		.loc 1 352 0
 664 00f0 48E0     		se_li %r0,14
 665 00f2 7800000C 		e_b .L35
 666              	.L54:
 667              		.loc 1 353 0
 668 00f6 48F0     		se_li %r0,15
 669 00f8 78000006 		e_b .L35
 670              	.L55:
 671              		.loc 1 354 0
 672 00fc 4900     		se_li %r0,16
 673              	.L35:
 674              	.LVL57:
 675              		.loc 1 360 0
 676 00fe 2000     		se_addi %r0,1
 677              	.LVL58:
 678 0100 6C10     		se_slwi %r0, 1
 679              	.LVL59:
 680 0102 18E084FE 		e_addi %r7,%r0,-2
 681 0106 7D643A2E 		lhzx %r11,%r4,%r7
 682 010a 7D253A2E 		lhzx %r9,%r5,%r7
 683              	.LVL60:
 684 010e 7CC4022E 		lhzx %r6,%r4,%r0
GAS LISTING C:\Users\duchu\AppData\Local\Temp\ccP5V09c.s 			page 13


 685              	.LVL61:
 686 0112 7CEB3050 		subf %r7, %r11, %r6
 687              	.LVL62:
 688 0116 7CC91850 		subf %r6, %r9, %r3
 689              	.LVL63:
 690 011a 0576     		se_mullw %r6,%r7
 691              		.loc 1 361 0
 692 011c 7CE5022E 		lhzx %r7,%r5,%r0
 693 0120 7C693850 		subf %r3, %r9, %r7
 694              	.LVL64:
 695              		.loc 1 362 0
 696 0124 74C7043F 		e_rlwinm %r7,%r6,0,0xffff
 697 0128 00E3     		se_extzh %r3
 698 012a 7C671B96 		divwu %r3,%r7,%r3
 699              		.loc 1 363 0
 700 012e 00F3     		se_extsh %r3
 701 0130 7C635A14 		add %r3,%r3,%r11
 702              	.LVL65:
 703 0134 0004     		se_blr
 704              	.LVL66:
 705              	.L37:
 706              		.loc 1 367 0
 707 0136 58640024 		e_lhz %r3,36(%r4)
 708              	.LVL67:
 709              		.loc 1 371 0
 710 013a 0004     		se_blr
 711              		.cfi_endproc
 712              	.LFE10:
 713              		.size	UTILS_REF_INV, .-UTILS_REF_INV
 714              		.section	.text.Asw_IoRef_TemperDerating,"axv",@progbits
 715              		.align 1
 716              		.p2align 4,,15
 717              		.globl Asw_IoRef_TemperDerating
 718              		.type	Asw_IoRef_TemperDerating, @function
 719              	Asw_IoRef_TemperDerating:
 720              	.LFB11:
 721              		.loc 1 381 0
 722              		.cfi_startproc
 723              	.LVL68:
 724              		.loc 1 384 0
 725 0000 70E0E000 		e_lis %r7,.LANCHOR7@ha
 726 0004 30E70000 		e_lbz %r7,.LANCHOR7@l(%r7)
 727 0008 2A07     		se_cmpi %r7,0
 728 000a 7A02005C 		e_bne %cr0,.L58
 729              		.loc 1 386 0
 730 000e 7003A886 		e_cmpl16i %r3,134
 731 0012 7A010080 		e_ble %cr0,.L57
 732              		.loc 1 390 0
 733 0016 18E38479 		e_addi %r7,%r3,-135
 734 001a 00E7     		se_extzh %r7
 735 001c 2287     		se_cmpli %r7,9
 736 001e 7A110014 		e_bgt %cr0,.L60
 737              		.loc 1 392 0
 738 0022 70C109A0 		e_li %r6,68000
 739 0026 70E0E000 		e_lis %r7,.LANCHOR8@ha
 740 002a 54C70000 		e_stw %r6,.LANCHOR8@l(%r7)
 741 002e 78000038 		e_b .L58
GAS LISTING C:\Users\duchu\AppData\Local\Temp\ccP5V09c.s 			page 14


 742              	.L60:
 743              		.loc 1 394 0
 744 0032 18E3846F 		e_addi %r7,%r3,-145
 745 0036 00E7     		se_extzh %r7
 746 0038 2287     		se_cmpli %r7,9
 747 003a 7A110014 		e_bgt %cr0,.L61
 748              		.loc 1 396 0
 749 003e 70D404A0 		e_li %r6,42144
 750 0042 70E0E000 		e_lis %r7,.LANCHOR8@ha
 751 0046 54C70000 		e_stw %r6,.LANCHOR8@l(%r7)
 752 004a 7800001C 		e_b .L58
 753              	.L61:
 754              		.loc 1 400 0
 755 004e 4806     		se_li %r6,0
 756 0050 70E0E000 		e_lis %r7,.LANCHOR8@ha
 757 0054 54C70000 		e_stw %r6,.LANCHOR8@l(%r7)
 758              		.loc 1 401 0
 759 0058 4816     		se_li %r6,1
 760 005a 70E0E000 		e_lis %r7,.LANCHOR7@ha
 761 005e 34C70000 		e_stb %r6,.LANCHOR7@l(%r7)
 762 0062 78000012 		e_b .L62
 763              	.L58:
 764              		.loc 1 405 0
 765 0066 70E0E000 		e_lis %r7,.LANCHOR7@ha
 766 006a 30E70000 		e_lbz %r7,.LANCHOR7@l(%r7)
 767 006e 2A17     		se_cmpi %r7,1
 768 0070 7A020022 		e_bne %cr0,.L57
 769              	.L62:
 770              		.loc 1 408 0
 771 0074 7003A87C 		e_cmpl16i %r3,124
 772 0078 7A11001A 		e_bgt %cr0,.L57
 773              		.loc 1 410 0
 774 007c 4806     		se_li %r6,0
 775 007e 70E0E000 		e_lis %r7,.LANCHOR7@ha
 776 0082 34C70000 		e_stb %r6,.LANCHOR7@l(%r7)
 777              		.loc 1 411 0
 778 0086 70C90A20 		e_li %r6,84512
 779 008a 70E0E000 		e_lis %r7,.LANCHOR8@ha
 780 008e 54C70000 		e_stw %r6,.LANCHOR8@l(%r7)
 781              	.L57:
 782 0092 0004     		se_blr
 783              		.cfi_endproc
 784              	.LFE11:
 785              		.size	Asw_IoRef_TemperDerating, .-Asw_IoRef_TemperDerating
 786              		.section	.text.Asw_LDC_OFF,"axv",@progbits
 787              		.align 1
 788              		.p2align 4,,15
 789              		.globl Asw_LDC_OFF
 790              		.type	Asw_LDC_OFF, @function
 791              	Asw_LDC_OFF:
 792              	.LFB12:
 793              		.loc 1 424 0
 794              		.cfi_startproc
 795              	.LVL69:
 796 0000 182106F8 		e_stwu %r1,-8(%r1)
 797              	.LCFI8:
 798              		.cfi_def_cfa_offset 8
GAS LISTING C:\Users\duchu\AppData\Local\Temp\ccP5V09c.s 			page 15


 799 0004 0080     		se_mflr %r0
 800 0006 D301     		se_stw %r0,12(%r1)
 801              		.cfi_offset 65, 4
 802              	.LVL70:
 803              		.loc 1 429 0
 804 0008 2223     		se_cmpli %r3,3
 805 000a 7A01000E 		e_ble %cr0,.L64
 806              		.loc 1 431 0
 807 000e 186384FD 		e_addi %r3,%r3,-3
 808              	.LVL71:
 809 0012 00E3     		se_extzh %r3
 810              	.LVL72:
 811 0014 7800000A 		e_b .L65
 812              	.LVL73:
 813              	.L64:
 814              		.loc 1 436 0
 815 0018 78000001 		e_bl Bsw_PwmDisable
 816              	.LVL74:
 817              		.loc 1 435 0
 818 001c 4803     		se_li %r3,0
 819              	.LVL75:
 820              	.L65:
 821              		.loc 1 440 0
 822 001e C301     		se_lwz %r0,12(%r1)
 823 0020 0090     		se_mtlr %r0
 824              		.cfi_restore 65
 825 0022 2071     		se_addi %r1,8
 826              	.LCFI9:
 827              		.cfi_def_cfa_offset 0
 828 0024 0004     		se_blr
 829              		.cfi_endproc
 830              	.LFE12:
 831              		.size	Asw_LDC_OFF, .-Asw_LDC_OFF
 832              		.globl u8g_Asw_WriteEEPROM_Flag
 833              		.globl u32g_Asw_VoReference
 834              		.globl u32g_Asw_IoReference
 835              		.globl u8g_Asw_LDC_ENB
 836              		.globl u8g_Asw_Ldc_State_Run
 837              		.globl u8g_Asw_Ldc_State_Ready
 838              		.globl u32g_Asw_present_addr
 839              		.globl u32g_Asw_EEPROM_LAST_BUFFER_DID
 840              		.globl u32g_Asw_EEPROM_BUFFER_DID
 841              		.globl u32g_Asw_EEPROM_BUFFER_DTC
 842              		.globl u32g_Asw_EEPROM_LAST_BUFFER_DTC
 843              		.globl u8g_Asw_DTC_CODE_Array
 844              		.section	.bss.u32g_Asw_present_addr,"aw",@nobits
 845              		.align 2
 846              		.set	.LANCHOR0,. + 0
 847              		.type	u32g_Asw_present_addr, @object
 848              		.size	u32g_Asw_present_addr, 4
 849              	u32g_Asw_present_addr:
 850 0000 00000000 		.zero	4
 851              		.section	.bss.u8g_Asw_Ldc_State_Run,"aw",@nobits
 852              		.type	u8g_Asw_Ldc_State_Run, @object
 853              		.size	u8g_Asw_Ldc_State_Run, 1
 854              	u8g_Asw_Ldc_State_Run:
 855 0000 00       		.zero	1
GAS LISTING C:\Users\duchu\AppData\Local\Temp\ccP5V09c.s 			page 16


 856              		.section	.bss.u32g_Asw_EEPROM_BUFFER_DID,"aw",@nobits
 857              		.align 2
 858              		.set	.LANCHOR5,. + 0
 859              		.type	u32g_Asw_EEPROM_BUFFER_DID, @object
 860              		.size	u32g_Asw_EEPROM_BUFFER_DID, 32
 861              	u32g_Asw_EEPROM_BUFFER_DID:
 862 0000 00000000 		.zero	32
 862      00000000 
 862      00000000 
 862      00000000 
 862      00000000 
 863              		.section	.bss.u32g_Asw_EEPROM_LAST_BUFFER_DID,"aw",@nobits
 864              		.align 2
 865              		.set	.LANCHOR6,. + 0
 866              		.type	u32g_Asw_EEPROM_LAST_BUFFER_DID, @object
 867              		.size	u32g_Asw_EEPROM_LAST_BUFFER_DID, 32
 868              	u32g_Asw_EEPROM_LAST_BUFFER_DID:
 869 0000 00000000 		.zero	32
 869      00000000 
 869      00000000 
 869      00000000 
 869      00000000 
 870              		.section	.bss.u32s_LDC_ERR_Sts_bku.11113,"aw",@nobits
 871              		.align 2
 872              		.set	.LANCHOR3,. + 0
 873              		.type	u32s_LDC_ERR_Sts_bku.11113, @object
 874              		.size	u32s_LDC_ERR_Sts_bku.11113, 4
 875              	u32s_LDC_ERR_Sts_bku.11113:
 876 0000 00000000 		.zero	4
 877              		.section	.bss.u8g_Asw_LDC_ENB,"aw",@nobits
 878              		.type	u8g_Asw_LDC_ENB, @object
 879              		.size	u8g_Asw_LDC_ENB, 1
 880              	u8g_Asw_LDC_ENB:
 881 0000 00       		.zero	1
 882              		.section	.bss.u32g_Asw_VoReference,"aw",@nobits
 883              		.align 2
 884              		.type	u32g_Asw_VoReference, @object
 885              		.size	u32g_Asw_VoReference, 4
 886              	u32g_Asw_VoReference:
 887 0000 00000000 		.zero	4
 888              		.section	.bss.u8g_Asw_Ldc_State_Ready,"aw",@nobits
 889              		.type	u8g_Asw_Ldc_State_Ready, @object
 890              		.size	u8g_Asw_Ldc_State_Ready, 1
 891              	u8g_Asw_Ldc_State_Ready:
 892 0000 00       		.zero	1
 893              		.section	.rodata.u8g_Asw_DTC_CODE_Array,"a",@progbits
 894              		.align 2
 895              		.type	u8g_Asw_DTC_CODE_Array, @object
 896              		.size	u8g_Asw_DTC_CODE_Array, 20
 897              	u8g_Asw_DTC_CODE_Array:
 898 0000 23       		.byte	35
 899 0001 24       		.byte	36
 900 0002 03       		.byte	3
 901 0003 04       		.byte	4
 902 0004 13       		.byte	19
 903 0005 14       		.byte	20
 904 0006 34       		.byte	52
GAS LISTING C:\Users\duchu\AppData\Local\Temp\ccP5V09c.s 			page 17


 905 0007 33       		.byte	51
 906 0008 4E       		.byte	78
 907 0009 40       		.byte	64
 908 000a 41       		.byte	65
 909 000b 45       		.byte	69
 910 000c 46       		.byte	70
 911 000d 35       		.byte	53
 912 000e 36       		.byte	54
 913 000f 52       		.byte	82
 914 0010 62       		.byte	98
 915 0011 12       		.byte	18
 916 0012 56       		.byte	86
 917 0013 66       		.byte	102
 918              		.section	.bss.u8g_Asw_WriteEEPROM_Flag,"aw",@nobits
 919              		.set	.LANCHOR4,. + 0
 920              		.type	u8g_Asw_WriteEEPROM_Flag, @object
 921              		.size	u8g_Asw_WriteEEPROM_Flag, 1
 922              	u8g_Asw_WriteEEPROM_Flag:
 923 0000 00       		.zero	1
 924              		.section	.bss.u32g_Asw_EEPROM_LAST_BUFFER_DTC,"aw",@nobits
 925              		.align 2
 926              		.set	.LANCHOR2,. + 0
 927              		.type	u32g_Asw_EEPROM_LAST_BUFFER_DTC, @object
 928              		.size	u32g_Asw_EEPROM_LAST_BUFFER_DTC, 32
 929              	u32g_Asw_EEPROM_LAST_BUFFER_DTC:
 930 0000 00000000 		.zero	32
 930      00000000 
 930      00000000 
 930      00000000 
 930      00000000 
 931              		.section	.bss.u32g_Asw_IoReference,"aw",@nobits
 932              		.align 2
 933              		.set	.LANCHOR8,. + 0
 934              		.type	u32g_Asw_IoReference, @object
 935              		.size	u32g_Asw_IoReference, 4
 936              	u32g_Asw_IoReference:
 937 0000 00000000 		.zero	4
 938              		.section	.bss.overTempFlag.11156,"aw",@nobits
 939              		.set	.LANCHOR7,. + 0
 940              		.type	overTempFlag.11156, @object
 941              		.size	overTempFlag.11156, 1
 942              	overTempFlag.11156:
 943 0000 00       		.zero	1
 944              		.section	.bss.u32g_Asw_EEPROM_BUFFER_DTC,"aw",@nobits
 945              		.align 2
 946              		.set	.LANCHOR1,. + 0
 947              		.type	u32g_Asw_EEPROM_BUFFER_DTC, @object
 948              		.size	u32g_Asw_EEPROM_BUFFER_DTC, 32
 949              	u32g_Asw_EEPROM_BUFFER_DTC:
 950 0000 00000000 		.zero	32
 950      00000000 
 950      00000000 
 950      00000000 
 950      00000000 
 951              		.section	".text","axv"
 952              	.Letext0:
 953              		.file 2 "c:\\spc5studio\\eclipse\\plugins\\com.st.tools.spc5.tools.gnu.gcc.ppcvle.win32_4.9.4.2019
GAS LISTING C:\Users\duchu\AppData\Local\Temp\ccP5V09c.s 			page 18


 954              		.file 3 "c:\\spc5studio\\eclipse\\plugins\\com.st.tools.spc5.tools.gnu.gcc.ppcvle.win32_4.9.4.2019
 955              		.file 4 "./source/ASW/Asw_FaultDetection.h"
 956              		.file 5 "./source/UDS/Uds_Func.h"
 957              		.file 6 "./source/UDS/GpFunc.h"
 958              		.file 7 "./source/BSW/Bsw_Pwm.h"