GAS LISTING C:\Users\duchu\AppData\Local\Temp\ccq39x1x.s 			page 1


   1              		.file	"Asw_FaultDetection.c"
   2              		.section	".text","axv"
   3              	.Ltext0:
   4              		.cfi_sections	.debug_frame
   5              		.section	.text.Asw_Diagnostic_OverMode,"axv",@progbits
   6              		.align 1
   7              		.p2align 4,,15
   8              		.type	Asw_Diagnostic_OverMode, @function
   9              	Asw_Diagnostic_OverMode:
  10              	.LFB22:
  11              		.file 1 "./source/ASW/Asw_FaultDetection.c"
  12              		.loc 1 724 0
  13              		.cfi_startproc
  14              	.LVL0:
  15              		.loc 1 725 0
  16 0000 C174     		se_lwz %r7,4(%r4)
  17 0002 0D73     		se_cmpl %r3,%r7
  18 0004 7A00000C 		e_bge %cr0,.L2
  19              		.loc 1 727 0
  20 0008 4807     		se_li %r7,0
  21 000a 34E4001D 		e_stb %r7,29(%r4)
  22 000e 0004     		se_blr
  23              	.L2:
  24              		.loc 1 729 0 discriminator 1
  25 0010 C274     		se_lwz %r7,8(%r4)
  26 0012 0D73     		se_cmpl %r3,%r7
  27 0014 7A110040 		e_bgt %cr0,.L4
  28              		.loc 1 731 0
  29 0018 4817     		se_li %r7,1
  30 001a 34E4001D 		e_stb %r7,29(%r4)
  31 001e 0004     		se_blr
  32              	.L6:
  33              		.loc 1 735 0
  34 0020 30E4001A 		e_lbz %r7,26(%r4)
  35 0024 2A07     		se_cmpi %r7,0
  36 0026 7A02003A 		e_bne %cr0,.L1
  37              		.loc 1 736 0
  38 002a 4817     		se_li %r7,1
  39 002c 34E4001D 		e_stb %r7,29(%r4)
  40 0030 0004     		se_blr
  41              	.L8:
  42              		.loc 1 741 0
  43 0032 A964     		se_lhz %r6,18(%r4)
  44 0034 AC74     		se_lhz %r7,24(%r4)
  45 0036 0D67     		se_cmpl %r7,%r6
  46 0038 7A010014 		e_ble %cr0,.L5
  47              		.loc 1 743 0
  48 003c 2006     		se_addi %r6,1
  49 003e B964     		se_sth %r6,18(%r4)
  50              		.loc 1 745 0
  51 0040 4807     		se_li %r7,0
  52 0042 34E4001B 		e_stb %r7,27(%r4)
  53              		.loc 1 746 0
  54 0046 4807     		se_li %r7,0
  55 0048 BA74     		se_sth %r7,20(%r4)
  56 004a 0004     		se_blr
  57              	.L5:
GAS LISTING C:\Users\duchu\AppData\Local\Temp\ccq39x1x.s 			page 2


  58              		.loc 1 750 0
  59 004c 4817     		se_li %r7,1
  60 004e 34E4001A 		e_stb %r7,26(%r4)
  61 0052 0004     		se_blr
  62              	.L4:
  63              		.loc 1 733 0
  64 0054 C074     		se_lwz %r7,0(%r4)
  65 0056 0D73     		se_cmpl %r3,%r7
  66 0058 7A01FFC8 		e_ble %cr0,.L6
  67 005c 79FFFFD6 		e_b .L8
  68              	.L1:
  69 0060 0004     		se_blr
  70              		.cfi_endproc
  71              	.LFE22:
  72              		.size	Asw_Diagnostic_OverMode, .-Asw_Diagnostic_OverMode
  73              		.section	.text.Asw_Diagnostic_NormalMode,"axv",@progbits
  74              		.align 1
  75              		.p2align 4,,15
  76              		.type	Asw_Diagnostic_NormalMode, @function
  77              	Asw_Diagnostic_NormalMode:
  78              	.LFB23:
  79              		.loc 1 763 0
  80              		.cfi_startproc
  81              	.LVL1:
  82              		.loc 1 764 0
  83 0000 C174     		se_lwz %r7,4(%r4)
  84 0002 0D73     		se_cmpl %r3,%r7
  85 0004 7A000010 		e_bge %cr0,.L10
  86              		.loc 1 766 0
  87 0008 4807     		se_li %r7,0
  88 000a 34E4001D 		e_stb %r7,29(%r4)
  89              		.loc 1 767 0
  90 000e 4807     		se_li %r7,0
  91 0010 BB74     		se_sth %r7,22(%r4)
  92 0012 0004     		se_blr
  93              	.L10:
  94              		.loc 1 769 0
  95 0014 C074     		se_lwz %r7,0(%r4)
  96 0016 0D73     		se_cmpl %r3,%r7
  97 0018 7A010010 		e_ble %cr0,.L12
  98              		.loc 1 771 0
  99 001c 4827     		se_li %r7,2
 100 001e 34E4001D 		e_stb %r7,29(%r4)
 101              		.loc 1 772 0
 102 0022 4807     		se_li %r7,0
 103 0024 BB74     		se_sth %r7,22(%r4)
 104 0026 0004     		se_blr
 105              	.L12:
 106              		.loc 1 776 0
 107 0028 AB74     		se_lhz %r7,22(%r4)
 108 002a 7007A831 		e_cmpl16i %r7,49
 109 002e 7A110018 		e_bgt %cr0,.L9
 110              		.loc 1 778 0
 111 0032 2007     		se_addi %r7,1
 112 0034 BB74     		se_sth %r7,22(%r4)
 113              		.loc 1 779 0
 114 0036 4807     		se_li %r7,0
GAS LISTING C:\Users\duchu\AppData\Local\Temp\ccq39x1x.s 			page 3


 115 0038 34E4001A 		e_stb %r7,26(%r4)
 116              		.loc 1 780 0
 117 003c 4807     		se_li %r7,0
 118 003e B974     		se_sth %r7,18(%r4)
 119              		.loc 1 781 0
 120 0040 34E4001B 		e_stb %r7,27(%r4)
 121              		.loc 1 782 0
 122 0044 BA74     		se_sth %r7,20(%r4)
 123              	.L9:
 124 0046 0004     		se_blr
 125              		.cfi_endproc
 126              	.LFE23:
 127              		.size	Asw_Diagnostic_NormalMode, .-Asw_Diagnostic_NormalMode
 128              		.section	.text.Asw_Diagnostic_UnderMode,"axv",@progbits
 129              		.align 1
 130              		.p2align 4,,15
 131              		.type	Asw_Diagnostic_UnderMode, @function
 132              	Asw_Diagnostic_UnderMode:
 133              	.LFB24:
 134              		.loc 1 794 0
 135              		.cfi_startproc
 136              	.LVL2:
 137              		.loc 1 795 0
 138 0000 C174     		se_lwz %r7,4(%r4)
 139 0002 0D73     		se_cmpl %r3,%r7
 140 0004 7A10001E 		e_blt %cr0,.L14
 141              		.loc 1 795 0 is_stmt 0 discriminator 1
 142 0008 C374     		se_lwz %r7,12(%r4)
 143 000a 0D73     		se_cmpl %r3,%r7
 144 000c 7A00001E 		e_bge %cr0,.L15
 145              		.loc 1 797 0 is_stmt 1
 146 0010 30E4001B 		e_lbz %r7,27(%r4)
 147 0014 2A07     		se_cmpi %r7,0
 148 0016 7A020054 		e_bne %cr0,.L13
 149              		.loc 1 799 0
 150 001a 4817     		se_li %r7,1
 151 001c 34E4001D 		e_stb %r7,29(%r4)
 152 0020 0004     		se_blr
 153              	.L14:
 154              		.loc 1 802 0
 155 0022 C374     		se_lwz %r7,12(%r4)
 156 0024 0D73     		se_cmpl %r3,%r7
 157 0026 7A100014 		e_blt %cr0,.L17
 158              	.L15:
 159              		.loc 1 802 0 is_stmt 0 discriminator 1
 160 002a C074     		se_lwz %r7,0(%r4)
 161 002c 0D73     		se_cmpl %r3,%r7
 162 002e 7A110014 		e_bgt %cr0,.L18
 163              		.loc 1 804 0 is_stmt 1
 164 0032 4817     		se_li %r7,1
 165 0034 34E4001D 		e_stb %r7,29(%r4)
 166 0038 0004     		se_blr
 167              	.L17:
 168              		.loc 1 806 0
 169 003a C074     		se_lwz %r7,0(%r4)
 170 003c 0D73     		se_cmpl %r3,%r7
 171 003e 7A01000C 		e_ble %cr0,.L19
GAS LISTING C:\Users\duchu\AppData\Local\Temp\ccq39x1x.s 			page 4


 172              	.L18:
 173              		.loc 1 808 0
 174 0042 4827     		se_li %r7,2
 175 0044 34E4001D 		e_stb %r7,29(%r4)
 176 0048 0004     		se_blr
 177              	.L19:
 178              		.loc 1 812 0
 179 004a AA64     		se_lhz %r6,20(%r4)
 180 004c AC74     		se_lhz %r7,24(%r4)
 181 004e 0D67     		se_cmpl %r7,%r6
 182 0050 7A010014 		e_ble %cr0,.L20
 183              		.loc 1 814 0
 184 0054 2006     		se_addi %r6,1
 185 0056 BA64     		se_sth %r6,20(%r4)
 186              		.loc 1 816 0
 187 0058 4807     		se_li %r7,0
 188 005a 34E4001A 		e_stb %r7,26(%r4)
 189              		.loc 1 817 0
 190 005e 4807     		se_li %r7,0
 191 0060 B974     		se_sth %r7,18(%r4)
 192 0062 0004     		se_blr
 193              	.L20:
 194              		.loc 1 821 0
 195 0064 4817     		se_li %r7,1
 196 0066 34E4001B 		e_stb %r7,27(%r4)
 197              	.L13:
 198 006a 0004     		se_blr
 199              		.cfi_endproc
 200              	.LFE24:
 201              		.size	Asw_Diagnostic_UnderMode, .-Asw_Diagnostic_UnderMode
 202              		.section	.text.Asw_Diagnostic_Init,"axv",@progbits
 203              		.align 1
 204              		.p2align 4,,15
 205              		.globl Asw_Diagnostic_Init
 206              		.type	Asw_Diagnostic_Init, @function
 207              	Asw_Diagnostic_Init:
 208              	.LFB4:
 209              		.loc 1 129 0
 210              		.cfi_startproc
 211              		.loc 1 130 0
 212 0000 70A0E000 		e_lis %r5,.LANCHOR0@ha
 213 0004 1CC50000 		e_la %r6,.LANCHOR0@l(%r5)
 214 0008 49E7     		se_li %r7,30
 215 000a BC76     		se_sth %r7,24(%r6)
 216              		.loc 1 131 0
 217 000c 70820072 		e_li %r4,4210
 218 0010 54850000 		e_stw %r4,.LANCHOR0@l(%r5)
 219              		.loc 1 132 0
 220 0014 70A10192 		e_li %r5,2450
 221 0018 D156     		se_stw %r5,4(%r6)
 222              		.loc 1 133 0
 223 001a 70A20036 		e_li %r5,4150
 224 001e D256     		se_stw %r5,8(%r6)
 225              		.loc 1 134 0
 226 0020 70A1028C 		e_li %r5,2700
 227 0024 D356     		se_stw %r5,12(%r6)
 228              		.loc 1 136 0
GAS LISTING C:\Users\duchu\AppData\Local\Temp\ccq39x1x.s 			page 5


 229 0026 70A0E000 		e_lis %r5,.LANCHOR1@ha
 230 002a 1CC50000 		e_la %r6,.LANCHOR1@l(%r5)
 231 002e BC76     		se_sth %r7,24(%r6)
 232              		.loc 1 137 0
 233 0030 70000140 		e_li %r0,320
 234 0034 54050000 		e_stw %r0,.LANCHOR1@l(%r5)
 235              		.loc 1 138 0
 236 0038 706000A0 		e_li %r3,160
 237 003c D136     		se_stw %r3,4(%r6)
 238              		.loc 1 139 0
 239 003e 7080012C 		e_li %r4,300
 240 0042 D246     		se_stw %r4,8(%r6)
 241              		.loc 1 140 0
 242 0044 70A000B4 		e_li %r5,180
 243 0048 D356     		se_stw %r5,12(%r6)
 244              		.loc 1 142 0
 245 004a 7160E000 		e_lis %r11,.LANCHOR2@ha
 246 004e 1CCB0000 		e_la %r6,.LANCHOR2@l(%r11)
 247 0052 BC76     		se_sth %r7,24(%r6)
 248              		.loc 1 143 0
 249 0054 540B0000 		e_stw %r0,.LANCHOR2@l(%r11)
 250              		.loc 1 144 0
 251 0058 D136     		se_stw %r3,4(%r6)
 252              		.loc 1 145 0
 253 005a D246     		se_stw %r4,8(%r6)
 254              		.loc 1 146 0
 255 005c D356     		se_stw %r5,12(%r6)
 256              		.loc 1 148 0
 257 005e 70A0E000 		e_lis %r5,.LANCHOR3@ha
 258 0062 1CC50000 		e_la %r6,.LANCHOR3@l(%r5)
 259 0066 BC76     		se_sth %r7,24(%r6)
 260              		.loc 1 149 0
 261 0068 70E10034 		e_li %r7,2100
 262 006c 54E50000 		e_stw %r7,.LANCHOR3@l(%r5)
 263              		.loc 1 150 0
 264 0070 49E7     		se_li %r7,30
 265 0072 D176     		se_stw %r7,4(%r6)
 266              		.loc 1 152 0
 267 0074 70E0E000 		e_lis %r7,.LANCHOR4@ha
 268 0078 1CA70000 		e_la %r5,.LANCHOR4@l(%r7)
 269 007c 70C0009B 		e_li %r6,155
 270 0080 5CC70000 		e_sth %r6,.LANCHOR4@l(%r7)
 271              		.loc 1 153 0
 272 0084 4FD7     		se_li %r7,125
 273 0086 B275     		se_sth %r7,4(%r5)
 274              		.loc 1 154 0
 275 0088 48A6     		se_li %r6,10
 276 008a B165     		se_sth %r6,2(%r5)
 277              		.loc 1 155 0
 278 008c 4B27     		se_li %r7,50
 279 008e B375     		se_sth %r7,6(%r5)
 280              		.loc 1 157 0
 281 0090 7080E000 		e_lis %r4,.LANCHOR5@ha
 282 0094 1CA40000 		e_la %r5,.LANCHOR5@l(%r4)
 283 0098 706107A0 		e_li %r3,4000
 284 009c B135     		se_sth %r3,2(%r5)
 285              		.loc 1 158 0
GAS LISTING C:\Users\duchu\AppData\Local\Temp\ccq39x1x.s 			page 6


 286 009e 5CC40000 		e_sth %r6,.LANCHOR5@l(%r4)
 287              		.loc 1 159 0
 288 00a2 B475     		se_sth %r7,8(%r5)
 289              		.loc 1 161 0
 290 00a4 7080E000 		e_lis %r4,.LANCHOR6@ha
 291 00a8 1CA40000 		e_la %r5,.LANCHOR6@l(%r4)
 292 00ac B135     		se_sth %r3,2(%r5)
 293              		.loc 1 162 0
 294 00ae 5CC40000 		e_sth %r6,.LANCHOR6@l(%r4)
 295              		.loc 1 163 0
 296 00b2 B475     		se_sth %r7,8(%r5)
 297 00b4 0004     		se_blr
 298              		.cfi_endproc
 299              	.LFE4:
 300              		.size	Asw_Diagnostic_Init, .-Asw_Diagnostic_Init
 301              		.section	.text.Asw_Diagnostic_Fault,"axv",@progbits
 302              		.align 1
 303              		.p2align 4,,15
 304              		.globl Asw_Diagnostic_Fault
 305              		.type	Asw_Diagnostic_Fault, @function
 306              	Asw_Diagnostic_Fault:
 307              	.LFB5:
 308              		.loc 1 174 0
 309              		.cfi_startproc
 310 0000 182106F0 		e_stwu %r1,-16(%r1)
 311              	.LCFI0:
 312              		.cfi_def_cfa_offset 16
 313 0004 0080     		se_mflr %r0
 314 0006 D501     		se_stw %r0,20(%r1)
 315 0008 D3F1     		se_stw %r31,12(%r1)
 316              		.cfi_offset 65, 4
 317              		.cfi_offset 31, -4
 318              		.loc 1 178 0
 319 000a 70E0E000 		e_lis %r7,eng_LDC_Sts@ha
 320 000e 50E70000 		e_lwz %r7,eng_LDC_Sts@l(%r7)
 321 0012 18E784FD 		e_addi %r7,%r7,-3
 322              		.loc 1 176 0
 323 0016 2217     		se_cmpli %r7,2
 324 0018 7A1100A2 		e_bgt %cr0,.L23
 325              		.loc 1 180 0
 326 001c 70E0E000 		e_lis %r7,u16g_Bsw_realVin@ha
 327 0020 58670000 		e_lhz %r3,u16g_Bsw_realVin@l(%r7)
 328              	.LVL3:
 329              	.LBB24:
 330              	.LBB25:
 331              		.loc 1 228 0
 332 0024 70E0E000 		e_lis %r7,.LANCHOR0+29@ha
 333              	.LVL4:
 334 0028 30E70000 		e_lbz %r7,.LANCHOR0+29@l(%r7)
 335 002c 2A17     		se_cmpi %r7,1
 336 002e 7A120042 		e_beq %cr0,.L24
 337 0032 2207     		se_cmpli %r7,1
 338 0034 7A10000E 		e_blt %cr0,.L25
 339 0038 2A27     		se_cmpi %r7,2
 340 003a 7A120056 		e_beq %cr0,.L26
 341 003e 7800007C 		e_b .L23
 342              	.L25:
GAS LISTING C:\Users\duchu\AppData\Local\Temp\ccq39x1x.s 			page 7


 343              		.loc 1 231 0
 344 0042 73E0E000 		e_lis %r31,.LANCHOR0@ha
 345 0046 1FFF0000 		e_la %r31,.LANCHOR0@l(%r31)
 346 004a 01F4     		se_mr %r4,%r31
 347 004c 78000001 		e_bl Asw_Diagnostic_UnderMode
 348              	.LVL5:
 349              		.loc 1 233 0
 350 0050 30FF001B 		e_lbz %r7,27(%r31)
 351 0054 2A17     		se_cmpi %r7,1
 352 0056 7A020064 		e_bne %cr0,.L23
 353              		.loc 1 234 0
 354 005a 70C0E000 		e_lis %r6,.LANCHOR7@ha
 355 005e 50E60000 		e_lwz %r7,.LANCHOR7@l(%r6)
 356 0062 18E7C4F3 		e_andi %r7,%r7,-13
 357 0066 65C7     		se_bseti %r7,28
 358 0068 54E60000 		e_stw %r7,.LANCHOR7@l(%r6)
 359 006c 7800004E 		e_b .L23
 360              	.LVL6:
 361              	.L24:
 362              		.loc 1 238 0
 363 0070 7080E000 		e_lis %r4,.LANCHOR0@ha
 364 0074 1C840000 		e_la %r4,.LANCHOR0@l(%r4)
 365 0078 78000001 		e_bl Asw_Diagnostic_NormalMode
 366              	.LVL7:
 367              		.loc 1 240 0
 368 007c 70C0E000 		e_lis %r6,.LANCHOR7@ha
 369 0080 50E60000 		e_lwz %r7,.LANCHOR7@l(%r6)
 370 0084 18E7C4F3 		e_andi %r7,%r7,-13
 371 0088 54E60000 		e_stw %r7,.LANCHOR7@l(%r6)
 372 008c 7800002E 		e_b .L23
 373              	.LVL8:
 374              	.L26:
 375              		.loc 1 243 0
 376 0090 73E0E000 		e_lis %r31,.LANCHOR0@ha
 377 0094 1FFF0000 		e_la %r31,.LANCHOR0@l(%r31)
 378 0098 01F4     		se_mr %r4,%r31
 379 009a 78000001 		e_bl Asw_Diagnostic_OverMode
 380              	.LVL9:
 381              		.loc 1 245 0
 382 009e 30FF001A 		e_lbz %r7,26(%r31)
 383 00a2 2A17     		se_cmpi %r7,1
 384 00a4 7A020016 		e_bne %cr0,.L23
 385              		.loc 1 246 0
 386 00a8 70C0E000 		e_lis %r6,.LANCHOR7@ha
 387 00ac 50E60000 		e_lwz %r7,.LANCHOR7@l(%r6)
 388 00b0 18E7C4F3 		e_andi %r7,%r7,-13
 389 00b4 65C7     		se_bseti %r7,28
 390 00b6 54E60000 		e_stw %r7,.LANCHOR7@l(%r6)
 391              	.LVL10:
 392              	.L23:
 393              	.LBE25:
 394              	.LBE24:
 395              		.loc 1 185 0
 396 00ba 70E0E000 		e_lis %r7,u16g_Bsw_realVout@ha
 397 00be 58670000 		e_lhz %r3,u16g_Bsw_realVout@l(%r7)
 398              	.LVL11:
 399              	.LBB26:
GAS LISTING C:\Users\duchu\AppData\Local\Temp\ccq39x1x.s 			page 8


 400              	.LBB27:
 401              		.loc 1 263 0
 402 00c2 70E0E000 		e_lis %r7,.LANCHOR1+29@ha
 403              	.LVL12:
 404 00c6 30E70000 		e_lbz %r7,.LANCHOR1+29@l(%r7)
 405 00ca 2A17     		se_cmpi %r7,1
 406 00cc 7A120042 		e_beq %cr0,.L28
 407 00d0 2207     		se_cmpli %r7,1
 408 00d2 7A10000E 		e_blt %cr0,.L29
 409 00d6 2A27     		se_cmpi %r7,2
 410 00d8 7A120056 		e_beq %cr0,.L30
 411 00dc 7800007C 		e_b .L27
 412              	.L29:
 413              		.loc 1 266 0
 414 00e0 73E0E000 		e_lis %r31,.LANCHOR1@ha
 415 00e4 1FFF0000 		e_la %r31,.LANCHOR1@l(%r31)
 416 00e8 01F4     		se_mr %r4,%r31
 417 00ea 78000001 		e_bl Asw_Diagnostic_UnderMode
 418              	.LVL13:
 419              		.loc 1 268 0
 420 00ee 30FF001B 		e_lbz %r7,27(%r31)
 421 00f2 2A17     		se_cmpi %r7,1
 422 00f4 7A020064 		e_bne %cr0,.L27
 423              		.loc 1 269 0
 424 00f8 70C0E000 		e_lis %r6,.LANCHOR7@ha
 425 00fc 50E60000 		e_lwz %r7,.LANCHOR7@l(%r6)
 426 0100 18E7C4CF 		e_andi %r7,%r7,-49
 427 0104 65A7     		se_bseti %r7,26
 428 0106 54E60000 		e_stw %r7,.LANCHOR7@l(%r6)
 429 010a 7800004E 		e_b .L27
 430              	.LVL14:
 431              	.L28:
 432              		.loc 1 273 0
 433 010e 7080E000 		e_lis %r4,.LANCHOR1@ha
 434 0112 1C840000 		e_la %r4,.LANCHOR1@l(%r4)
 435 0116 78000001 		e_bl Asw_Diagnostic_NormalMode
 436              	.LVL15:
 437              		.loc 1 275 0
 438 011a 70C0E000 		e_lis %r6,.LANCHOR7@ha
 439 011e 50E60000 		e_lwz %r7,.LANCHOR7@l(%r6)
 440 0122 18E7C4CF 		e_andi %r7,%r7,-49
 441 0126 54E60000 		e_stw %r7,.LANCHOR7@l(%r6)
 442 012a 7800002E 		e_b .L27
 443              	.LVL16:
 444              	.L30:
 445              		.loc 1 278 0
 446 012e 73E0E000 		e_lis %r31,.LANCHOR1@ha
 447 0132 1FFF0000 		e_la %r31,.LANCHOR1@l(%r31)
 448 0136 01F4     		se_mr %r4,%r31
 449 0138 78000001 		e_bl Asw_Diagnostic_OverMode
 450              	.LVL17:
 451              		.loc 1 280 0
 452 013c 30FF001A 		e_lbz %r7,26(%r31)
 453 0140 2A17     		se_cmpi %r7,1
 454 0142 7A020016 		e_bne %cr0,.L27
 455              		.loc 1 281 0
 456 0146 70C0E000 		e_lis %r6,.LANCHOR7@ha
GAS LISTING C:\Users\duchu\AppData\Local\Temp\ccq39x1x.s 			page 9


 457 014a 50E60000 		e_lwz %r7,.LANCHOR7@l(%r6)
 458 014e 18E7C4CF 		e_andi %r7,%r7,-49
 459 0152 65B7     		se_bseti %r7,27
 460 0154 54E60000 		e_stw %r7,.LANCHOR7@l(%r6)
 461              	.L27:
 462              	.LBE27:
 463              	.LBE26:
 464              		.loc 1 189 0
 465 0158 70E0E000 		e_lis %r7,u16g_Bsw_realBatt@ha
 466 015c 58670000 		e_lhz %r3,u16g_Bsw_realBatt@l(%r7)
 467              	.LVL18:
 468              	.LBB28:
 469              	.LBB29:
 470              		.loc 1 298 0
 471 0160 70E0E000 		e_lis %r7,.LANCHOR2+29@ha
 472              	.LVL19:
 473 0164 30E70000 		e_lbz %r7,.LANCHOR2+29@l(%r7)
 474 0168 2A17     		se_cmpi %r7,1
 475 016a 7A120042 		e_beq %cr0,.L32
 476 016e 2207     		se_cmpli %r7,1
 477 0170 7A10000E 		e_blt %cr0,.L33
 478 0174 2A27     		se_cmpi %r7,2
 479 0176 7A120056 		e_beq %cr0,.L34
 480 017a 7800007C 		e_b .L31
 481              	.L33:
 482              		.loc 1 301 0
 483 017e 73E0E000 		e_lis %r31,.LANCHOR2@ha
 484 0182 1FFF0000 		e_la %r31,.LANCHOR2@l(%r31)
 485 0186 01F4     		se_mr %r4,%r31
 486 0188 78000001 		e_bl Asw_Diagnostic_UnderMode
 487              	.LVL20:
 488              		.loc 1 303 0
 489 018c 30FF001B 		e_lbz %r7,27(%r31)
 490 0190 2A17     		se_cmpi %r7,1
 491 0192 7A020064 		e_bne %cr0,.L31
 492              		.loc 1 304 0
 493 0196 70C0E000 		e_lis %r6,.LANCHOR7@ha
 494 019a 50E60000 		e_lwz %r7,.LANCHOR7@l(%r6)
 495 019e 18E7C4FC 		e_andi %r7,%r7,-4
 496 01a2 65E7     		se_bseti %r7,30
 497 01a4 54E60000 		e_stw %r7,.LANCHOR7@l(%r6)
 498 01a8 7800004E 		e_b .L31
 499              	.LVL21:
 500              	.L32:
 501              		.loc 1 308 0
 502 01ac 7080E000 		e_lis %r4,.LANCHOR2@ha
 503 01b0 1C840000 		e_la %r4,.LANCHOR2@l(%r4)
 504 01b4 78000001 		e_bl Asw_Diagnostic_NormalMode
 505              	.LVL22:
 506              		.loc 1 310 0
 507 01b8 70C0E000 		e_lis %r6,.LANCHOR7@ha
 508 01bc 50E60000 		e_lwz %r7,.LANCHOR7@l(%r6)
 509 01c0 18E7C4FC 		e_andi %r7,%r7,-4
 510 01c4 54E60000 		e_stw %r7,.LANCHOR7@l(%r6)
 511 01c8 7800002E 		e_b .L31
 512              	.LVL23:
 513              	.L34:
GAS LISTING C:\Users\duchu\AppData\Local\Temp\ccq39x1x.s 			page 10


 514              		.loc 1 313 0
 515 01cc 73E0E000 		e_lis %r31,.LANCHOR2@ha
 516 01d0 1FFF0000 		e_la %r31,.LANCHOR2@l(%r31)
 517 01d4 01F4     		se_mr %r4,%r31
 518 01d6 78000001 		e_bl Asw_Diagnostic_OverMode
 519              	.LVL24:
 520              		.loc 1 315 0
 521 01da 30FF001A 		e_lbz %r7,26(%r31)
 522 01de 2A17     		se_cmpi %r7,1
 523 01e0 7A020016 		e_bne %cr0,.L31
 524              		.loc 1 316 0
 525 01e4 70C0E000 		e_lis %r6,.LANCHOR7@ha
 526 01e8 50E60000 		e_lwz %r7,.LANCHOR7@l(%r6)
 527 01ec 18E7C4FC 		e_andi %r7,%r7,-4
 528 01f0 65F7     		se_bseti %r7,31
 529 01f2 54E60000 		e_stw %r7,.LANCHOR7@l(%r6)
 530              	.L31:
 531              	.LBE29:
 532              	.LBE28:
 533              		.loc 1 193 0
 534 01f6 70E0E000 		e_lis %r7,u16g_Bsw_realTemp@ha
 535 01fa 58A70000 		e_lhz %r5,u16g_Bsw_realTemp@l(%r7)
 536              	.LVL25:
 537              	.LBB30:
 538              	.LBB31:
 539              		.loc 1 333 0
 540 01fe 70E0E000 		e_lis %r7,.LANCHOR4@ha
 541              	.LVL26:
 542 0202 1CE70000 		e_la %r7,.LANCHOR4@l(%r7)
 543 0206 30C70011 		e_lbz %r6,17(%r7)
 544 020a 2226     		se_cmpli %r6,3
 545 020c 7A1102E6 		e_bgt %cr0,.L35
 546 0210 70E0E000 		e_lis %r7,.L37@ha
 547 0214 1CE70000 		e_la %r7,.L37@l(%r7)
 548 0218 6C26     		se_slwi %r6, 2
 549 021a 7CC7302E 		lwzx %r6,%r7,%r6
 550 021e 7CE63A14 		add %r7,%r6,%r7
 551 0222 00B7     		se_mtctr %r7
 552 0224 0006     		se_bctr
 553              		.section	.rodata.Asw_Diagnostic_Fault,"a",@progbits
 554              		.align 2
 555              		.align 2
 556              	.L37:
 557 0000 00000000 		.long .L36-.L37
 558 0004 00000000 		.long .L38-.L37
 559 0008 00000000 		.long .L39-.L37
 560 000c 00000000 		.long .L40-.L37
 561              		.section	.text.Asw_Diagnostic_Fault
 562              	.L36:
 563              	.LVL27:
 564              	.LBB32:
 565              	.LBB33:
 566              		.loc 1 380 0
 567 0226 70E0E000 		e_lis %r7,.LANCHOR4+2@ha
 568 022a 58E70000 		e_lhz %r7,.LANCHOR4+2@l(%r7)
 569 022e 0D57     		se_cmpl %r7,%r5
 570 0230 7A110020 		e_bgt %cr0,.L41
GAS LISTING C:\Users\duchu\AppData\Local\Temp\ccq39x1x.s 			page 11


 571 0234 70E0E000 		e_lis %r7,.LANCHOR4+4@ha
 572 0238 58E70000 		e_lhz %r7,.LANCHOR4+4@l(%r7)
 573 023c 0D57     		se_cmpl %r7,%r5
 574 023e 7A010020 		e_ble %cr0,.L42
 575              		.loc 1 382 0
 576 0242 4816     		se_li %r6,1
 577 0244 70E0E000 		e_lis %r7,.LANCHOR4+17@ha
 578 0248 34C70000 		e_stb %r6,.LANCHOR4+17@l(%r7)
 579 024c 780002A6 		e_b .L35
 580              	.L41:
 581              		.loc 1 384 0
 582 0250 70E0E000 		e_lis %r7,.LANCHOR4+4@ha
 583 0254 58E70000 		e_lhz %r7,.LANCHOR4+4@l(%r7)
 584 0258 0D57     		se_cmpl %r7,%r5
 585 025a 7A110020 		e_bgt %cr0,.L43
 586              	.L42:
 587 025e 70E0E000 		e_lis %r7,.LANCHOR4@ha
 588 0262 58E70000 		e_lhz %r7,.LANCHOR4@l(%r7)
 589 0266 0D57     		se_cmpl %r7,%r5
 590 0268 7A010020 		e_ble %cr0,.L44
 591              		.loc 1 386 0
 592 026c 4836     		se_li %r6,3
 593 026e 70E0E000 		e_lis %r7,.LANCHOR4+17@ha
 594 0272 34C70000 		e_stb %r6,.LANCHOR4+17@l(%r7)
 595 0276 7800027C 		e_b .L35
 596              	.L43:
 597              		.loc 1 388 0
 598 027a 70E0E000 		e_lis %r7,.LANCHOR4@ha
 599 027e 58E70000 		e_lhz %r7,.LANCHOR4@l(%r7)
 600 0282 0D57     		se_cmpl %r7,%r5
 601 0284 7A110012 		e_bgt %cr0,.L45
 602              	.L44:
 603              		.loc 1 390 0
 604 0288 4826     		se_li %r6,2
 605 028a 70E0E000 		e_lis %r7,.LANCHOR4+17@ha
 606 028e 34C70000 		e_stb %r6,.LANCHOR4+17@l(%r7)
 607 0292 78000260 		e_b .L35
 608              	.L45:
 609              		.loc 1 394 0
 610 0296 70E0E000 		e_lis %r7,.LANCHOR4@ha
 611 029a 1CE70000 		e_la %r7,.LANCHOR4@l(%r7)
 612 029e A567     		se_lhz %r6,10(%r7)
 613 02a0 A377     		se_lhz %r7,6(%r7)
 614 02a2 0D67     		se_cmpl %r7,%r6
 615 02a4 7A010022 		e_ble %cr0,.L46
 616              		.loc 1 396 0
 617 02a8 70E0E000 		e_lis %r7,.LANCHOR4@ha
 618 02ac 1CE70000 		e_la %r7,.LANCHOR4@l(%r7)
 619 02b0 2006     		se_addi %r6,1
 620 02b2 B567     		se_sth %r6,10(%r7)
 621              		.loc 1 398 0
 622 02b4 4806     		se_li %r6,0
 623 02b6 34C70010 		e_stb %r6,16(%r7)
 624              		.loc 1 399 0
 625 02ba 4806     		se_li %r6,0
 626 02bc B667     		se_sth %r6,12(%r7)
 627              		.loc 1 400 0
GAS LISTING C:\Users\duchu\AppData\Local\Temp\ccq39x1x.s 			page 12


 628 02be 9E67     		se_stb %r6,14(%r7)
 629              		.loc 1 401 0
 630 02c0 B467     		se_sth %r6,8(%r7)
 631 02c2 78000230 		e_b .L35
 632              	.L46:
 633              		.loc 1 405 0
 634 02c6 4816     		se_li %r6,1
 635 02c8 70E0E000 		e_lis %r7,.LANCHOR4+15@ha
 636 02cc 34C70000 		e_stb %r6,.LANCHOR4+15@l(%r7)
 637              		.loc 1 406 0
 638 02d0 70C0E000 		e_lis %r6,.LANCHOR7@ha
 639 02d4 50E60000 		e_lwz %r7,.LANCHOR7@l(%r6)
 640 02d8 18E7C5F8 		e_andi %r7,%r7,-1793
 641 02dc 6557     		se_bseti %r7,21
 642 02de 54E60000 		e_stw %r7,.LANCHOR7@l(%r6)
 643 02e2 78000210 		e_b .L35
 644              	.LVL28:
 645              	.L38:
 646              	.LBE33:
 647              	.LBE32:
 648              	.LBB34:
 649              	.LBB35:
 650              		.loc 1 422 0
 651 02e6 70E0E000 		e_lis %r7,.LANCHOR4+2@ha
 652 02ea 58E70000 		e_lhz %r7,.LANCHOR4+2@l(%r7)
 653 02ee 0D57     		se_cmpl %r7,%r5
 654 02f0 7A01001E 		e_ble %cr0,.L47
 655              		.loc 1 424 0
 656 02f4 4806     		se_li %r6,0
 657 02f6 70E0E000 		e_lis %r7,.LANCHOR4@ha
 658 02fa 1CE70000 		e_la %r7,.LANCHOR4@l(%r7)
 659 02fe 34C70011 		e_stb %r6,17(%r7)
 660              		.loc 1 425 0
 661 0302 70E0E000 		e_lis %r7,.LANCHOR8@ha
 662 0306 34C70000 		e_stb %r6,.LANCHOR8@l(%r7)
 663 030a 780001E8 		e_b .L35
 664              	.L47:
 665              		.loc 1 427 0
 666 030e 70E0E000 		e_lis %r7,.LANCHOR4+4@ha
 667 0312 58E70000 		e_lhz %r7,.LANCHOR4+4@l(%r7)
 668 0316 0D57     		se_cmpl %r7,%r5
 669 0318 7A11002A 		e_bgt %cr0,.L48
 670 031c 70E0E000 		e_lis %r7,.LANCHOR4@ha
 671 0320 58E70000 		e_lhz %r7,.LANCHOR4@l(%r7)
 672 0324 0D57     		se_cmpl %r7,%r5
 673 0326 7A01002A 		e_ble %cr0,.L49
 674              		.loc 1 429 0
 675 032a 4836     		se_li %r6,3
 676 032c 70E0E000 		e_lis %r7,.LANCHOR4+17@ha
 677 0330 34C70000 		e_stb %r6,.LANCHOR4+17@l(%r7)
 678              		.loc 1 430 0
 679 0334 4806     		se_li %r6,0
 680 0336 70E0E000 		e_lis %r7,.LANCHOR8@ha
 681 033a 34C70000 		e_stb %r6,.LANCHOR8@l(%r7)
 682 033e 780001B4 		e_b .L35
 683              	.L48:
 684              		.loc 1 432 0
GAS LISTING C:\Users\duchu\AppData\Local\Temp\ccq39x1x.s 			page 13


 685 0342 70E0E000 		e_lis %r7,.LANCHOR4@ha
 686 0346 58E70000 		e_lhz %r7,.LANCHOR4@l(%r7)
 687 034a 0D57     		se_cmpl %r7,%r5
 688 034c 7A11001C 		e_bgt %cr0,.L50
 689              	.L49:
 690              		.loc 1 434 0
 691 0350 4826     		se_li %r6,2
 692 0352 70E0E000 		e_lis %r7,.LANCHOR4+17@ha
 693 0356 34C70000 		e_stb %r6,.LANCHOR4+17@l(%r7)
 694              		.loc 1 435 0
 695 035a 4806     		se_li %r6,0
 696 035c 70E0E000 		e_lis %r7,.LANCHOR8@ha
 697 0360 34C70000 		e_stb %r6,.LANCHOR8@l(%r7)
 698 0364 7800018E 		e_b .L35
 699              	.L50:
 700              		.loc 1 439 0
 701 0368 70E0E000 		e_lis %r7,.LANCHOR8@ha
 702 036c 30E70000 		e_lbz %r7,.LANCHOR8@l(%r7)
 703 0370 2287     		se_cmpli %r7,9
 704 0372 7A110180 		e_bgt %cr0,.L35
 705              		.loc 1 441 0
 706 0376 2007     		se_addi %r7,1
 707 0378 70C0E000 		e_lis %r6,.LANCHOR8@ha
 708 037c 34E60000 		e_stb %r7,.LANCHOR8@l(%r6)
 709              		.loc 1 443 0
 710 0380 70E0E000 		e_lis %r7,.LANCHOR4@ha
 711 0384 1CE70000 		e_la %r7,.LANCHOR4@l(%r7)
 712 0388 4806     		se_li %r6,0
 713 038a 9F67     		se_stb %r6,15(%r7)
 714              		.loc 1 444 0
 715 038c 4806     		se_li %r6,0
 716 038e B567     		se_sth %r6,10(%r7)
 717              		.loc 1 445 0
 718 0390 34C70010 		e_stb %r6,16(%r7)
 719              		.loc 1 446 0
 720 0394 B667     		se_sth %r6,12(%r7)
 721              		.loc 1 447 0
 722 0396 9E67     		se_stb %r6,14(%r7)
 723              		.loc 1 448 0
 724 0398 B467     		se_sth %r6,8(%r7)
 725              		.loc 1 450 0
 726 039a 70C0E000 		e_lis %r6,.LANCHOR7@ha
 727 039e 50E60000 		e_lwz %r7,.LANCHOR7@l(%r6)
 728 03a2 18E7C5F8 		e_andi %r7,%r7,-1793
 729 03a6 54E60000 		e_stw %r7,.LANCHOR7@l(%r6)
 730 03aa 78000148 		e_b .L35
 731              	.LVL29:
 732              	.L39:
 733              	.LBE35:
 734              	.LBE34:
 735              	.LBB36:
 736              	.LBB37:
 737              		.loc 1 512 0
 738 03ae 70E0E000 		e_lis %r7,.LANCHOR4+2@ha
 739 03b2 58E70000 		e_lhz %r7,.LANCHOR4+2@l(%r7)
 740 03b6 0D57     		se_cmpl %r7,%r5
 741 03b8 7A010016 		e_ble %cr0,.L51
GAS LISTING C:\Users\duchu\AppData\Local\Temp\ccq39x1x.s 			page 14


 742              		.loc 1 514 0
 743 03bc 4806     		se_li %r6,0
 744 03be 70E0E000 		e_lis %r7,.LANCHOR4@ha
 745 03c2 1CE70000 		e_la %r7,.LANCHOR4@l(%r7)
 746 03c6 34C70011 		e_stb %r6,17(%r7)
 747 03ca 78000128 		e_b .L35
 748              	.L51:
 749              		.loc 1 516 0
 750 03ce 70E0E000 		e_lis %r7,.LANCHOR4+4@ha
 751 03d2 58E70000 		e_lhz %r7,.LANCHOR4+4@l(%r7)
 752 03d6 0D57     		se_cmpl %r7,%r5
 753 03d8 7A0101E4 		e_ble %cr0,.L52
 754              		.loc 1 518 0
 755 03dc 4816     		se_li %r6,1
 756 03de 70E0E000 		e_lis %r7,.LANCHOR4+17@ha
 757 03e2 34C70000 		e_stb %r6,.LANCHOR4+17@l(%r7)
 758 03e6 7800010C 		e_b .L35
 759              	.L65:
 760              		.loc 1 522 0
 761 03ea 4836     		se_li %r6,3
 762 03ec 70E0E000 		e_lis %r7,.LANCHOR4+17@ha
 763 03f0 34C70000 		e_stb %r6,.LANCHOR4+17@l(%r7)
 764 03f4 780000FE 		e_b .L35
 765              	.L67:
 766              		.loc 1 526 0
 767 03f8 70E0E000 		e_lis %r7,.LANCHOR4@ha
 768 03fc 1CE70000 		e_la %r7,.LANCHOR4@l(%r7)
 769 0400 4806     		se_li %r6,0
 770 0402 9F67     		se_stb %r6,15(%r7)
 771              		.loc 1 527 0
 772 0404 4806     		se_li %r6,0
 773 0406 B567     		se_sth %r6,10(%r7)
 774              		.loc 1 528 0
 775 0408 34C70010 		e_stb %r6,16(%r7)
 776              		.loc 1 529 0
 777 040c B667     		se_sth %r6,12(%r7)
 778              		.loc 1 531 0
 779 040e 70C0E000 		e_lis %r6,.LANCHOR7@ha
 780 0412 50E60000 		e_lwz %r7,.LANCHOR7@l(%r6)
 781 0416 18E7C5F8 		e_andi %r7,%r7,-1793
 782 041a 18E7D103 		e_ori %r7,%r7,768
 783 041e 54E60000 		e_stw %r7,.LANCHOR7@l(%r6)
 784 0422 780000D0 		e_b .L35
 785              	.LVL30:
 786              	.L40:
 787              	.LBE37:
 788              	.LBE36:
 789              	.LBB39:
 790              	.LBB40:
 791              		.loc 1 466 0
 792 0426 70E0E000 		e_lis %r7,.LANCHOR4+2@ha
 793 042a 58E70000 		e_lhz %r7,.LANCHOR4+2@l(%r7)
 794 042e 0D57     		se_cmpl %r7,%r5
 795 0430 7A01001E 		e_ble %cr0,.L53
 796              		.loc 1 468 0
 797 0434 4806     		se_li %r6,0
 798 0436 70E0E000 		e_lis %r7,.LANCHOR4@ha
GAS LISTING C:\Users\duchu\AppData\Local\Temp\ccq39x1x.s 			page 15


 799 043a 1CE70000 		e_la %r7,.LANCHOR4@l(%r7)
 800 043e 34C70011 		e_stb %r6,17(%r7)
 801              		.loc 1 469 0
 802 0442 70E0E000 		e_lis %r7,.LANCHOR9@ha
 803 0446 34C70000 		e_stb %r6,.LANCHOR9@l(%r7)
 804 044a 780000A8 		e_b .L35
 805              	.L53:
 806              		.loc 1 471 0
 807 044e 70E0E000 		e_lis %r7,.LANCHOR4+4@ha
 808 0452 58E70000 		e_lhz %r7,.LANCHOR4+4@l(%r7)
 809 0456 0D57     		se_cmpl %r7,%r5
 810 0458 7A01001C 		e_ble %cr0,.L54
 811              		.loc 1 473 0
 812 045c 4816     		se_li %r6,1
 813 045e 70E0E000 		e_lis %r7,.LANCHOR4+17@ha
 814 0462 34C70000 		e_stb %r6,.LANCHOR4+17@l(%r7)
 815              		.loc 1 474 0
 816 0466 4806     		se_li %r6,0
 817 0468 70E0E000 		e_lis %r7,.LANCHOR9@ha
 818 046c 34C70000 		e_stb %r6,.LANCHOR9@l(%r7)
 819 0470 78000082 		e_b .L35
 820              	.L54:
 821              		.loc 1 476 0
 822 0474 70E0E000 		e_lis %r7,.LANCHOR4@ha
 823 0478 58E70000 		e_lhz %r7,.LANCHOR4@l(%r7)
 824 047c 0D57     		se_cmpl %r7,%r5
 825 047e 7A11001C 		e_bgt %cr0,.L55
 826              		.loc 1 478 0
 827 0482 4826     		se_li %r6,2
 828 0484 70E0E000 		e_lis %r7,.LANCHOR4+17@ha
 829 0488 34C70000 		e_stb %r6,.LANCHOR4+17@l(%r7)
 830              		.loc 1 479 0
 831 048c 4806     		se_li %r6,0
 832 048e 70E0E000 		e_lis %r7,.LANCHOR9@ha
 833 0492 34C70000 		e_stb %r6,.LANCHOR9@l(%r7)
 834 0496 7800005C 		e_b .L35
 835              	.L55:
 836              		.loc 1 483 0
 837 049a 70E0E000 		e_lis %r7,.LANCHOR9@ha
 838 049e 30E70000 		e_lbz %r7,.LANCHOR9@l(%r7)
 839 04a2 2287     		se_cmpli %r7,9
 840 04a4 7A11004E 		e_bgt %cr0,.L35
 841              		.loc 1 485 0
 842 04a8 70E0E000 		e_lis %r7,.LANCHOR4@ha
 843 04ac 1CE70000 		e_la %r7,.LANCHOR4@l(%r7)
 844 04b0 A667     		se_lhz %r6,12(%r7)
 845 04b2 A377     		se_lhz %r7,6(%r7)
 846 04b4 0D67     		se_cmpl %r7,%r6
 847 04b6 7A010020 		e_ble %cr0,.L56
 848              		.loc 1 487 0
 849 04ba 70E0E000 		e_lis %r7,.LANCHOR4@ha
 850 04be 1CE70000 		e_la %r7,.LANCHOR4@l(%r7)
 851 04c2 2006     		se_addi %r6,1
 852 04c4 B667     		se_sth %r6,12(%r7)
 853              		.loc 1 489 0
 854 04c6 4806     		se_li %r6,0
 855 04c8 9F67     		se_stb %r6,15(%r7)
GAS LISTING C:\Users\duchu\AppData\Local\Temp\ccq39x1x.s 			page 16


 856              		.loc 1 490 0
 857 04ca 4806     		se_li %r6,0
 858 04cc B567     		se_sth %r6,10(%r7)
 859              		.loc 1 491 0
 860 04ce 9E67     		se_stb %r6,14(%r7)
 861              		.loc 1 492 0
 862 04d0 B467     		se_sth %r6,8(%r7)
 863 04d2 78000020 		e_b .L35
 864              	.L56:
 865              		.loc 1 496 0
 866 04d6 4816     		se_li %r6,1
 867 04d8 70E0E000 		e_lis %r7,.LANCHOR4+16@ha
 868 04dc 34C70000 		e_stb %r6,.LANCHOR4+16@l(%r7)
 869              		.loc 1 497 0
 870 04e0 70C0E000 		e_lis %r6,.LANCHOR7@ha
 871 04e4 50E60000 		e_lwz %r7,.LANCHOR7@l(%r6)
 872 04e8 18E7C5F8 		e_andi %r7,%r7,-1793
 873 04ec 6577     		se_bseti %r7,23
 874 04ee 54E60000 		e_stw %r7,.LANCHOR7@l(%r6)
 875              	.LVL31:
 876              	.L35:
 877              	.LBE40:
 878              	.LBE39:
 879              	.LBE31:
 880              	.LBE30:
 881              	.LBB43:
 882              	.LBB44:
 883              	.LBB45:
 884              	.LBB46:
 885              		.loc 1 835 0
 886 04f2 70E0E000 		e_lis %r7,u16g_Bsw_realIout@ha
 887 04f6 58E70000 		e_lhz %r7,u16g_Bsw_realIout@l(%r7)
 888 04fa 70C0E000 		e_lis %r6,.LANCHOR3+4@ha
 889 04fe 50C60000 		e_lwz %r6,.LANCHOR3+4@l(%r6)
 890 0502 0D67     		se_cmpl %r7,%r6
 891 0504 7A010040 		e_ble %cr0,.L57
 892 0508 70C0E000 		e_lis %r6,.LANCHOR3@ha
 893 050c 50C60000 		e_lwz %r6,.LANCHOR3@l(%r6)
 894 0510 0D67     		se_cmpl %r7,%r6
 895 0512 7A000032 		e_bge %cr0,.L57
 896              		.loc 1 837 0
 897 0516 70C0E000 		e_lis %r6,.LANCHOR3@ha
 898 051a 1CC60000 		e_la %r6,.LANCHOR3@l(%r6)
 899 051e A956     		se_lhz %r5,18(%r6)
 900 0520 AC66     		se_lhz %r6,24(%r6)
 901 0522 0D56     		se_cmpl %r6,%r5
 902 0524 7A010012 		e_ble %cr0,.L58
 903              		.loc 1 839 0
 904 0528 2005     		se_addi %r5,1
 905 052a 70C0E000 		e_lis %r6,.LANCHOR3+18@ha
 906 052e 5CA60000 		e_sth %r5,.LANCHOR3+18@l(%r6)
 907 0532 78000012 		e_b .L57
 908              	.L58:
 909              		.loc 1 843 0
 910 0536 4815     		se_li %r5,1
 911 0538 70C0E000 		e_lis %r6,.LANCHOR3+26@ha
 912 053c 34A60000 		e_stb %r5,.LANCHOR3+26@l(%r6)
GAS LISTING C:\Users\duchu\AppData\Local\Temp\ccq39x1x.s 			page 17


 913 0540 78000012 		e_b .L59
 914              	.L57:
 915              	.LBE46:
 916              	.LBE45:
 917              		.loc 1 361 0
 918 0544 70C0E000 		e_lis %r6,.LANCHOR3+26@ha
 919 0548 30C60000 		e_lbz %r6,.LANCHOR3+26@l(%r6)
 920 054c 2A16     		se_cmpi %r6,1
 921 054e 7A020012 		e_bne %cr0,.L60
 922              	.L59:
 923              		.loc 1 363 0
 924 0552 70A0E000 		e_lis %r5,.LANCHOR7@ha
 925 0556 50C50000 		e_lwz %r6,.LANCHOR7@l(%r5)
 926 055a 6596     		se_bseti %r6,25
 927 055c 54C50000 		e_stw %r6,.LANCHOR7@l(%r5)
 928              	.L60:
 929              	.LVL32:
 930              	.LBB47:
 931              	.LBB48:
 932              		.loc 1 859 0
 933 0560 70C0E000 		e_lis %r6,.LANCHOR3@ha
 934 0564 50C60000 		e_lwz %r6,.LANCHOR3@l(%r6)
 935 0568 0D67     		se_cmpl %r7,%r6
 936 056a 7A010032 		e_ble %cr0,.L61
 937              		.loc 1 861 0
 938 056e 70E0E000 		e_lis %r7,.LANCHOR3@ha
 939 0572 1CE70000 		e_la %r7,.LANCHOR3@l(%r7)
 940 0576 A867     		se_lhz %r6,16(%r7)
 941 0578 AC77     		se_lhz %r7,24(%r7)
 942 057a 0D67     		se_cmpl %r7,%r6
 943 057c 7A010012 		e_ble %cr0,.L62
 944              		.loc 1 863 0
 945 0580 2006     		se_addi %r6,1
 946 0582 70E0E000 		e_lis %r7,.LANCHOR3+16@ha
 947 0586 5CC70000 		e_sth %r6,.LANCHOR3+16@l(%r7)
 948 058a 78000012 		e_b .L61
 949              	.L62:
 950              		.loc 1 867 0
 951 058e 4816     		se_li %r6,1
 952 0590 70E0E000 		e_lis %r7,.LANCHOR3+28@ha
 953 0594 34C70000 		e_stb %r6,.LANCHOR3+28@l(%r7)
 954 0598 78000012 		e_b .L63
 955              	.L61:
 956              	.LBE48:
 957              	.LBE47:
 958              		.loc 1 366 0
 959 059c 70E0E000 		e_lis %r7,.LANCHOR3+28@ha
 960 05a0 30E70000 		e_lbz %r7,.LANCHOR3+28@l(%r7)
 961 05a4 2A17     		se_cmpi %r7,1
 962 05a6 7A020028 		e_bne %cr0,.L22
 963              	.L63:
 964              		.loc 1 368 0
 965 05aa 70C0E000 		e_lis %r6,.LANCHOR7@ha
 966 05ae 50E60000 		e_lwz %r7,.LANCHOR7@l(%r6)
 967 05b2 6587     		se_bseti %r7,24
 968 05b4 54E60000 		e_stw %r7,.LANCHOR7@l(%r6)
 969 05b8 78000016 		e_b .L22
GAS LISTING C:\Users\duchu\AppData\Local\Temp\ccq39x1x.s 			page 18


 970              	.LVL33:
 971              	.L52:
 972              	.LBE44:
 973              	.LBE43:
 974              	.LBB49:
 975              	.LBB42:
 976              	.LBB41:
 977              	.LBB38:
 978              		.loc 1 520 0
 979 05bc 70E0E000 		e_lis %r7,.LANCHOR4@ha
 980 05c0 58E70000 		e_lhz %r7,.LANCHOR4@l(%r7)
 981 05c4 0D57     		se_cmpl %r7,%r5
 982 05c6 7A01FE32 		e_ble %cr0,.L67
 983 05ca 79FFFE20 		e_b .L65
 984              	.LVL34:
 985              	.L22:
 986              	.LBE38:
 987              	.LBE41:
 988              	.LBE42:
 989              	.LBE49:
 990              		.loc 1 212 0
 991 05ce C501     		se_lwz %r0,20(%r1)
 992 05d0 0090     		se_mtlr %r0
 993              		.cfi_restore 65
 994 05d2 C3F1     		se_lwz %r31,12(%r1)
 995 05d4 20F1     		se_addi %r1,16
 996              	.LCFI1:
 997              		.cfi_restore 31
 998              		.cfi_def_cfa_offset 0
 999 05d6 0004     		se_blr
 1000              		.cfi_endproc
 1001              	.LFE5:
 1002              		.size	Asw_Diagnostic_Fault, .-Asw_Diagnostic_Fault
 1003              		.globl Dia_CAN
 1004              		.globl Dia_Iout_Sens
 1005              		.globl Dia_Temp_Sens
 1006              		.globl Dia_Temp
 1007              		.globl Dia_Iout
 1008              		.globl Dia_Batt
 1009              		.globl Dia_Vout
 1010              		.globl Dia_Vin
 1011              		.globl u32g_LDC_ERR_Sts
 1012              		.globl u8g_Asw_LDC_SYS_ERR_BATTERY_DIS
 1013              		.section	.bss.Dia_Iout,"aw",@nobits
 1014              		.align 2
 1015              		.set	.LANCHOR3,. + 0
 1016              		.type	Dia_Iout, @object
 1017              		.size	Dia_Iout, 32
 1018              	Dia_Iout:
 1019 0000 00000000 		.zero	32
 1019      00000000 
 1019      00000000 
 1019      00000000 
 1019      00000000 
 1020              		.section	.bss.u8_nrm_cnt.11203,"aw",@nobits
 1021              		.set	.LANCHOR8,. + 0
 1022              		.type	u8_nrm_cnt.11203, @object
GAS LISTING C:\Users\duchu\AppData\Local\Temp\ccq39x1x.s 			page 19


 1023              		.size	u8_nrm_cnt.11203, 1
 1024              	u8_nrm_cnt.11203:
 1025 0000 00       		.zero	1
 1026              		.section	.bss.u8_drt_cnt.11208,"aw",@nobits
 1027              		.set	.LANCHOR9,. + 0
 1028              		.type	u8_drt_cnt.11208, @object
 1029              		.size	u8_drt_cnt.11208, 1
 1030              	u8_drt_cnt.11208:
 1031 0000 00       		.zero	1
 1032              		.section	.bss.Dia_Vin,"aw",@nobits
 1033              		.align 2
 1034              		.set	.LANCHOR0,. + 0
 1035              		.type	Dia_Vin, @object
 1036              		.size	Dia_Vin, 32
 1037              	Dia_Vin:
 1038 0000 00000000 		.zero	32
 1038      00000000 
 1038      00000000 
 1038      00000000 
 1038      00000000 
 1039              		.section	.bss.Dia_Batt,"aw",@nobits
 1040              		.align 2
 1041              		.set	.LANCHOR2,. + 0
 1042              		.type	Dia_Batt, @object
 1043              		.size	Dia_Batt, 32
 1044              	Dia_Batt:
 1045 0000 00000000 		.zero	32
 1045      00000000 
 1045      00000000 
 1045      00000000 
 1045      00000000 
 1046              		.section	.bss.Dia_Temp_Sens,"aw",@nobits
 1047              		.align 1
 1048              		.set	.LANCHOR5,. + 0
 1049              		.type	Dia_Temp_Sens, @object
 1050              		.size	Dia_Temp_Sens, 12
 1051              	Dia_Temp_Sens:
 1052 0000 00000000 		.zero	12
 1052      00000000 
 1052      00000000 
 1053              		.section	.bss.Dia_CAN,"aw",@nobits
 1054              		.align 1
 1055              		.type	Dia_CAN, @object
 1056              		.size	Dia_CAN, 8
 1057              	Dia_CAN:
 1058 0000 00000000 		.zero	8
 1058      00000000 
 1059              		.section	.bss.Dia_Vout,"aw",@nobits
 1060              		.align 2
 1061              		.set	.LANCHOR1,. + 0
 1062              		.type	Dia_Vout, @object
 1063              		.size	Dia_Vout, 32
 1064              	Dia_Vout:
 1065 0000 00000000 		.zero	32
 1065      00000000 
 1065      00000000 
 1065      00000000 
GAS LISTING C:\Users\duchu\AppData\Local\Temp\ccq39x1x.s 			page 20


 1065      00000000 
 1066              		.section	.bss.u32g_LDC_ERR_Sts,"aw",@nobits
 1067              		.align 2
 1068              		.set	.LANCHOR7,. + 0
 1069              		.type	u32g_LDC_ERR_Sts, @object
 1070              		.size	u32g_LDC_ERR_Sts, 4
 1071              	u32g_LDC_ERR_Sts:
 1072 0000 00000000 		.zero	4
 1073              		.section	.bss.Dia_Iout_Sens,"aw",@nobits
 1074              		.align 1
 1075              		.set	.LANCHOR6,. + 0
 1076              		.type	Dia_Iout_Sens, @object
 1077              		.size	Dia_Iout_Sens, 12
 1078              	Dia_Iout_Sens:
 1079 0000 00000000 		.zero	12
 1079      00000000 
 1079      00000000 
 1080              		.section	.bss.Dia_Temp,"aw",@nobits
 1081              		.align 1
 1082              		.set	.LANCHOR4,. + 0
 1083              		.type	Dia_Temp, @object
 1084              		.size	Dia_Temp, 18
 1085              	Dia_Temp:
 1086 0000 00000000 		.zero	18
 1086      00000000 
 1086      00000000 
 1086      00000000 
 1086      0000
 1087              		.section	.bss.u8g_Asw_LDC_SYS_ERR_BATTERY_DIS,"aw",@nobits
 1088              		.type	u8g_Asw_LDC_SYS_ERR_BATTERY_DIS, @object
 1089              		.size	u8g_Asw_LDC_SYS_ERR_BATTERY_DIS, 1
 1090              	u8g_Asw_LDC_SYS_ERR_BATTERY_DIS:
 1091 0000 00       		.zero	1
 1092              		.section	".text","axv"
 1093              	.Letext0:
 1094              		.file 2 "c:\\spc5studio\\eclipse\\plugins\\com.st.tools.spc5.tools.gnu.gcc.ppcvle.win32_4.9.4.2019
 1095              		.file 3 "c:\\spc5studio\\eclipse\\plugins\\com.st.tools.spc5.tools.gnu.gcc.ppcvle.win32_4.9.4.2019
 1096              		.file 4 "./source/ASW/Asw_StateMachine.h"
 1097              		.file 5 "./source/ASW/LdcConfig.h"
 1098              		.file 6 "./source/ASW/Asw_FaultDetection.h"
 1099              		.file 7 "./source/BSW/Bsw_Adc.h"