GAS LISTING C:\Users\duchu\AppData\Local\Temp\cc1dp5PB.s 			page 1


   1              		.file	"Bsw_Eeprom.c"
   2              		.section	".text","axv"
   3              	.Ltext0:
   4              		.cfi_sections	.debug_frame
   5              		.section	.text.EEP_UPDATE_EEPROM,"axv",@progbits
   6              		.align 1
   7              		.p2align 4,,15
   8              		.globl EEP_UPDATE_EEPROM
   9              		.type	EEP_UPDATE_EEPROM, @function
  10              	EEP_UPDATE_EEPROM:
  11              	.LFB4:
  12              		.file 1 "./source/BSW/Bsw_Eeprom.c"
  13              		.loc 1 89 0
  14              		.cfi_startproc
  15              	.LVL0:
  16 0000 182106F8 		e_stwu %r1,-8(%r1)
  17              	.LCFI0:
  18              		.cfi_def_cfa_offset 8
  19 0004 0080     		se_mflr %r0
  20 0006 D301     		se_stw %r0,12(%r1)
  21              		.cfi_offset 65, 4
  22              	.LVL1:
  23              		.loc 1 95 0
  24 0008 2A04     		se_cmpi %r4,0
  25 000a 7A12004C 		e_beq %cr0,.L2
  26 000e 70E0E000 		e_lis %r7,.LANCHOR0@ha
  27 0012 31270000 		e_lbz %r9,.LANCHOR0@l(%r7)
  28 0016 2C06     		se_bmaski %r6,0
  29 0018 0463     		se_add %r3,%r6
  30              	.LVL2:
  31 001a 70E0E000 		e_lis %r7,.LANCHOR1@ha
  32 001e 1CE70000 		e_la %r7,.LANCHOR1@l(%r7)
  33 0022 0467     		se_add %r7,%r6
  34              		.loc 1 99 0
  35 0024 71400001 		e_li %r10,1
  36 0028 00B4     		se_mtctr %r4
  37              	.LVL3:
  38              	.L4:
  39 002a 2007     		se_addi %r7,1
  40              	.LVL4:
  41              		.loc 1 96 0
  42 002c 18030001 		e_lbzu %r0,1(%r3)
  43 0030 8067     		se_lbz %r6,0(%r7)
  44 0032 0C06     		se_cmp %r6,%r0
  45 0034 7A120016 		e_beq %cr0,.L3
  46              		.loc 1 97 0
  47 0038 18C084F8 		e_addi %r6,%r0,-8
  48 003c 00C6     		se_extzb %r6
  49 003e 2206     		se_cmpli %r6,1
  50 0040 7A11000A 		e_bgt %cr0,.L3
  51              		.loc 1 98 0
  52 0044 9007     		se_stb %r0,0(%r7)
  53              		.loc 1 99 0
  54 0046 7D495378 		mr %r9,%r10
  55              	.L3:
  56              	.LVL5:
  57              		.loc 1 95 0 discriminator 2
GAS LISTING C:\Users\duchu\AppData\Local\Temp\cc1dp5PB.s 			page 2


  58 004a 7A20FFE0 		e_bdnz .L4
  59 004e 70E0E000 		e_lis %r7,.LANCHOR0@ha
  60              	.LVL6:
  61 0052 35270000 		e_stb %r9,.LANCHOR0@l(%r7)
  62              	.L2:
  63              		.loc 1 104 0
  64 0056 2235     		se_cmpli %r5,4
  65 0058 7A12003C 		e_beq %cr0,.L1
  66              		.loc 1 104 0 is_stmt 0 discriminator 1
  67 005c 70E0E000 		e_lis %r7,.LANCHOR0@ha
  68 0060 30E70000 		e_lbz %r7,.LANCHOR0@l(%r7)
  69 0064 2A17     		se_cmpi %r7,1
  70 0066 7A02002E 		e_bne %cr0,.L1
  71 006a 0145     		se_mr %r5,%r4
  72              	.LVL7:
  73              		.loc 1 106 0 is_stmt 1
  74 006c 7060E000 		e_lis %r3,EEPROMD@ha
  75 0070 1C630000 		e_la %r3,EEPROMD@l(%r3)
  76 0074 4804     		se_li %r4,0
  77              	.LVL8:
  78 0076 70C0E000 		e_lis %r6,.LANCHOR1@ha
  79 007a 1CC60000 		e_la %r6,.LANCHOR1@l(%r6)
  80 007e 78000001 		e_bl eeprom_write
  81              	.LVL9:
  82 0082 70E0E000 		e_lis %r7,.LANCHOR2@ha
  83 0086 54670000 		e_stw %r3,.LANCHOR2@l(%r7)
  84              		.loc 1 109 0
  85 008a 4806     		se_li %r6,0
  86 008c 70E0E000 		e_lis %r7,.LANCHOR0@ha
  87 0090 34C70000 		e_stb %r6,.LANCHOR0@l(%r7)
  88              	.L1:
  89              		.loc 1 111 0
  90 0094 C301     		se_lwz %r0,12(%r1)
  91 0096 0090     		se_mtlr %r0
  92              		.cfi_restore 65
  93 0098 2071     		se_addi %r1,8
  94              	.LCFI1:
  95              		.cfi_def_cfa_offset 0
  96 009a 0004     		se_blr
  97              		.cfi_endproc
  98              	.LFE4:
  99              		.size	EEP_UPDATE_EEPROM, .-EEP_UPDATE_EEPROM
 100              		.section	.text.EEP_EEPROM_INIT,"axv",@progbits
 101              		.align 1
 102              		.p2align 4,,15
 103              		.globl EEP_EEPROM_INIT
 104              		.type	EEP_EEPROM_INIT, @function
 105              	EEP_EEPROM_INIT:
 106              	.LFB5:
 107              		.loc 1 121 0
 108              		.cfi_startproc
 109 0000 182106F8 		e_stwu %r1,-8(%r1)
 110              	.LCFI2:
 111              		.cfi_def_cfa_offset 8
 112 0004 0080     		se_mflr %r0
 113 0006 D301     		se_stw %r0,12(%r1)
 114              		.cfi_offset 65, 4
GAS LISTING C:\Users\duchu\AppData\Local\Temp\cc1dp5PB.s 			page 3


 115              		.loc 1 123 0
 116 0008 7060E000 		e_lis %r3,EEPROMD@ha
 117 000c 1C630000 		e_la %r3,EEPROMD@l(%r3)
 118 0010 7080E000 		e_lis %r4,eeprom_cfg@ha
 119 0014 1C840000 		e_la %r4,eeprom_cfg@l(%r4)
 120 0018 78000001 		e_bl eeprom_start
 121              	.LVL10:
 122 001c 70E0E000 		e_lis %r7,.LANCHOR2@ha
 123 0020 54670000 		e_stw %r3,.LANCHOR2@l(%r7)
 124              		.loc 1 126 0
 125 0024 C301     		se_lwz %r0,12(%r1)
 126 0026 0090     		se_mtlr %r0
 127              		.cfi_restore 65
 128 0028 2071     		se_addi %r1,8
 129              	.LCFI3:
 130              		.cfi_def_cfa_offset 0
 131 002a 0004     		se_blr
 132              		.cfi_endproc
 133              	.LFE5:
 134              		.size	EEP_EEPROM_INIT, .-EEP_EEPROM_INIT
 135              		.section	.text.EEP_EEPROM_READ,"axv",@progbits
 136              		.align 1
 137              		.p2align 4,,15
 138              		.globl EEP_EEPROM_READ
 139              		.type	EEP_EEPROM_READ, @function
 140              	EEP_EEPROM_READ:
 141              	.LFB6:
 142              		.loc 1 136 0
 143              		.cfi_startproc
 144 0000 182106F0 		e_stwu %r1,-16(%r1)
 145              	.LCFI4:
 146              		.cfi_def_cfa_offset 16
 147 0004 0080     		se_mflr %r0
 148 0006 D501     		se_stw %r0,20(%r1)
 149 0008 D3F1     		se_stw %r31,12(%r1)
 150              		.cfi_offset 65, 4
 151              		.cfi_offset 31, -4
 152              		.loc 1 138 0
 153 000a 70C0E000 		e_lis %r6,.LANCHOR4@ha
 154 000e 1FE60000 		e_la %r31,.LANCHOR4@l(%r6)
 155 0012 7060E000 		e_lis %r3,EEPROMD@ha
 156 0016 1C630000 		e_la %r3,EEPROMD@l(%r3)
 157 001a 4804     		se_li %r4,0
 158 001c 70A0E000 		e_lis %r5,.LANCHOR3@ha
 159 0020 1CA50000 		e_la %r5,.LANCHOR3@l(%r5)
 160 0024 01F6     		se_mr %r6,%r31
 161 0026 78000001 		e_bl eeprom_read
 162              	.LVL11:
 163 002a 70E0E000 		e_lis %r7,.LANCHOR2@ha
 164 002e 54670000 		e_stw %r3,.LANCHOR2@l(%r7)
 165              	.LVL12:
 166 0032 2C05     		se_bmaski %r5,0
 167 0034 7CDF2A14 		add %r6,%r31,%r5
 168 0038 70E0E000 		e_lis %r7,.LANCHOR1@ha
 169 003c 1CE70000 		e_la %r7,.LANCHOR1@l(%r7)
 170 0040 0457     		se_add %r7,%r5
 171 0042 4A85     		se_li %r5,40
GAS LISTING C:\Users\duchu\AppData\Local\Temp\cc1dp5PB.s 			page 4


 172 0044 00B5     		se_mtctr %r5
 173              	.LVL13:
 174              	.L9:
 175              	.LBB4:
 176              	.LBB5:
 177              		.loc 1 262 0
 178 0046 18A60001 		e_lbzu %r5,1(%r6)
 179              	.LVL14:
 180 004a 18A70401 		e_stbu %r5,1(%r7)
 181              	.LVL15:
 182              		.loc 1 261 0
 183 004e 7A20FFF8 		e_bdnz .L9
 184              	.LBE5:
 185              	.LBE4:
 186              		.loc 1 143 0
 187 0052 C501     		se_lwz %r0,20(%r1)
 188 0054 0090     		se_mtlr %r0
 189              		.cfi_restore 65
 190 0056 C3F1     		se_lwz %r31,12(%r1)
 191 0058 20F1     		se_addi %r1,16
 192              	.LCFI5:
 193              		.cfi_restore 31
 194              		.cfi_def_cfa_offset 0
 195 005a 0004     		se_blr
 196              		.cfi_endproc
 197              	.LFE6:
 198              		.size	EEP_EEPROM_READ, .-EEP_EEPROM_READ
 199              		.section	.text.EEP_EEPROM_WRITE,"axv",@progbits
 200              		.align 1
 201              		.p2align 4,,15
 202              		.globl EEP_EEPROM_WRITE
 203              		.type	EEP_EEPROM_WRITE, @function
 204              	EEP_EEPROM_WRITE:
 205              	.LFB7:
 206              		.loc 1 153 0
 207              		.cfi_startproc
 208              	.LVL16:
 209 0000 182106F8 		e_stwu %r1,-8(%r1)
 210              	.LCFI6:
 211              		.cfi_def_cfa_offset 8
 212 0004 0080     		se_mflr %r0
 213 0006 D301     		se_stw %r0,12(%r1)
 214              		.cfi_offset 65, 4
 215 0008 0145     		se_mr %r5,%r4
 216              		.loc 1 155 0
 217 000a 70E0E000 		e_lis %r7,.LANCHOR3@ha
 218 000e 54870000 		e_stw %r4,.LANCHOR3@l(%r7)
 219              		.loc 1 156 0
 220 0012 2A03     		se_cmpi %r3,0
 221 0014 7A120026 		e_beq %cr0,.L12
 222              	.LVL17:
 223              	.LBB8:
 224              	.LBB9:
 225              		.loc 1 261 0
 226 0018 2A04     		se_cmpi %r4,0
 227 001a 7A120020 		e_beq %cr0,.L12
 228 001e 2C06     		se_bmaski %r6,0
GAS LISTING C:\Users\duchu\AppData\Local\Temp\cc1dp5PB.s 			page 5


 229 0020 70E0E000 		e_lis %r7,.LANCHOR1@ha
 230 0024 1CE70000 		e_la %r7,.LANCHOR1@l(%r7)
 231 0028 0467     		se_add %r7,%r6
 232 002a 0463     		se_add %r3,%r6
 233              	.LVL18:
 234 002c 00B4     		se_mtctr %r4
 235              	.LVL19:
 236              	.L13:
 237              		.loc 1 262 0
 238 002e 18C30001 		e_lbzu %r6,1(%r3)
 239              	.LVL20:
 240 0032 18C70401 		e_stbu %r6,1(%r7)
 241              	.LVL21:
 242              		.loc 1 261 0
 243 0036 7A20FFF8 		e_bdnz .L13
 244              	.LVL22:
 245              	.L12:
 246              	.LBE9:
 247              	.LBE8:
 248              		.loc 1 160 0
 249 003a 7060E000 		e_lis %r3,EEPROMD@ha
 250 003e 1C630000 		e_la %r3,EEPROMD@l(%r3)
 251 0042 4804     		se_li %r4,0
 252              	.LVL23:
 253 0044 70C0E000 		e_lis %r6,.LANCHOR1@ha
 254 0048 1CC60000 		e_la %r6,.LANCHOR1@l(%r6)
 255 004c 78000001 		e_bl eeprom_write
 256              	.LVL24:
 257 0050 70E0E000 		e_lis %r7,.LANCHOR2@ha
 258 0054 54670000 		e_stw %r3,.LANCHOR2@l(%r7)
 259              		.loc 1 163 0
 260 0058 C301     		se_lwz %r0,12(%r1)
 261 005a 0090     		se_mtlr %r0
 262              		.cfi_restore 65
 263 005c 2071     		se_addi %r1,8
 264              	.LCFI7:
 265              		.cfi_def_cfa_offset 0
 266 005e 0004     		se_blr
 267              		.cfi_endproc
 268              	.LFE7:
 269              		.size	EEP_EEPROM_WRITE, .-EEP_EEPROM_WRITE
 270              		.section	.text.EEP_DTC_CLEAR,"axv",@progbits
 271              		.align 1
 272              		.p2align 4,,15
 273              		.globl EEP_DTC_CLEAR
 274              		.type	EEP_DTC_CLEAR, @function
 275              	EEP_DTC_CLEAR:
 276              	.LFB8:
 277              		.loc 1 173 0
 278              		.cfi_startproc
 279 0000 182106B8 		e_stwu %r1,-72(%r1)
 280              	.LCFI8:
 281              		.cfi_def_cfa_offset 72
 282 0004 0080     		se_mflr %r0
 283 0006 5401004C 		e_stw %r0,76(%r1)
 284 000a 1BA1093C 		e_stmw %r29,60(%r1)
 285              		.cfi_offset 65, 4
GAS LISTING C:\Users\duchu\AppData\Local\Temp\cc1dp5PB.s 			page 6


 286              		.cfi_offset 29, -12
 287              		.cfi_offset 30, -8
 288              		.cfi_offset 31, -4
 289              	.LVL25:
 290              		.loc 1 175 0
 291 000e 18618008 		e_addi %r3,%r1,8
 292 0012 4804     		se_li %r4,0
 293 0014 4A85     		se_li %r5,40
 294 0016 78000001 		e_bl memset
 295              	.LVL26:
 296              		.loc 1 179 0
 297 001a 480F     		se_li %r31,0
 298              		.loc 1 180 0
 299 001c 73A0E000 		e_lis %r29,EEPROMD@ha
 300 0020 1FBD0000 		e_la %r29,EEPROMD@l(%r29)
 301 0024 73C0E000 		e_lis %r30,.LANCHOR2@ha
 302 0028 1FDE0000 		e_la %r30,.LANCHOR2@l(%r30)
 303              	.LVL27:
 304              	.L16:
 305 002c 01D3     		se_mr %r3,%r29
 306 002e 77E4043F 		e_rlwinm %r4,%r31,0,0xffff
 307 0032 49D5     		se_li %r5,29
 308 0034 18C18008 		e_addi %r6,%r1,8
 309 0038 78000001 		e_bl eeprom_write
 310              	.LVL28:
 311 003c D03E     		se_stw %r3,0(%r30)
 312              		.loc 1 179 0
 313 003e 200F     		se_addi %r31,1
 314              	.LVL29:
 315 0040 701FA864 		e_cmpl16i %r31,100
 316 0044 7A02FFE8 		e_bne %cr0,.L16
 317              		.loc 1 184 0
 318 0048 5001004C 		e_lwz %r0,76(%r1)
 319 004c 0090     		se_mtlr %r0
 320              		.cfi_restore 65
 321 004e 1BA1083C 		e_lmw %r29,60(%r1)
 322              	.LVL30:
 323 0052 18218048 		e_addi %r1,%r1,72
 324              	.LCFI9:
 325              		.cfi_restore 31
 326              		.cfi_restore 30
 327              		.cfi_restore 29
 328              		.cfi_def_cfa_offset 0
 329 0056 0004     		se_blr
 330              		.cfi_endproc
 331              	.LFE8:
 332              		.size	EEP_DTC_CLEAR, .-EEP_DTC_CLEAR
 333              		.section	.text.EEP_CMP_BUFFER,"axv",@progbits
 334              		.align 1
 335              		.p2align 4,,15
 336              		.globl EEP_CMP_BUFFER
 337              		.type	EEP_CMP_BUFFER, @function
 338              	EEP_CMP_BUFFER:
 339              	.LFB9:
 340              		.loc 1 194 0
 341              		.cfi_startproc
 342              	.LVL31:
GAS LISTING C:\Users\duchu\AppData\Local\Temp\cc1dp5PB.s 			page 7


 343              		.loc 1 202 0
 344 0000 2A05     		se_cmpi %r5,0
 345 0002 7A120026 		e_beq %cr0,.L22
 346 0006 2C06     		se_bmaski %r6,0
 347 0008 0464     		se_add %r4,%r6
 348              	.LVL32:
 349 000a 7CC33214 		add %r6,%r3,%r6
 350 000e 4813     		se_li %r3,1
 351              	.LVL33:
 352              		.loc 1 204 0
 353 0010 4800     		se_li %r0,0
 354 0012 00B5     		se_mtctr %r5
 355              	.LVL34:
 356              	.L21:
 357              		.loc 1 203 0
 358 0014 18E60001 		e_lbzu %r7,1(%r6)
 359              	.LVL35:
 360 0018 18A40001 		e_lbzu %r5,1(%r4)
 361              		.loc 1 204 0
 362 001c 0D57     		se_cmpl %r7,%r5
 363 001e 7C63009E 		isel %r3,%r3,%r0,2
 364              	.LVL36:
 365              		.loc 1 202 0
 366 0022 7A20FFF2 		e_bdnz .L21
 367 0026 0004     		se_blr
 368              	.LVL37:
 369              	.L22:
 370              		.loc 1 196 0
 371 0028 4813     		se_li %r3,1
 372              	.LVL38:
 373              		.loc 1 209 0
 374 002a 0004     		se_blr
 375              		.cfi_endproc
 376              	.LFE9:
 377              		.size	EEP_CMP_BUFFER, .-EEP_CMP_BUFFER
 378              		.section	.text.EEP_GET_WRITE_BUFFER,"axv",@progbits
 379              		.align 1
 380              		.p2align 4,,15
 381              		.globl EEP_GET_WRITE_BUFFER
 382              		.type	EEP_GET_WRITE_BUFFER, @function
 383              	EEP_GET_WRITE_BUFFER:
 384              	.LFB10:
 385              		.loc 1 219 0
 386              		.cfi_startproc
 387              		.loc 1 221 0
 388 0000 7060E000 		e_lis %r3,.LANCHOR1@ha
 389 0004 1C630000 		e_la %r3,.LANCHOR1@l(%r3)
 390 0008 0004     		se_blr
 391              		.cfi_endproc
 392              	.LFE10:
 393              		.size	EEP_GET_WRITE_BUFFER, .-EEP_GET_WRITE_BUFFER
 394              		.section	.text.utils_memcpy,"axv",@progbits
 395              		.align 1
 396              		.p2align 4,,15
 397              		.globl utils_memcpy
 398              		.type	utils_memcpy, @function
 399              	utils_memcpy:
GAS LISTING C:\Users\duchu\AppData\Local\Temp\cc1dp5PB.s 			page 8


 400              	.LFB11:
 401              		.loc 1 231 0
 402              		.cfi_startproc
 403              	.LVL39:
 404              		.loc 1 237 0
 405 0000 2A05     		se_cmpi %r5,0
 406 0002 7A120018 		e_beq %cr0,.L25
 407 0006 2C07     		se_bmaski %r7,0
 408 0008 0473     		se_add %r3,%r7
 409              	.LVL40:
 410 000a 0474     		se_add %r4,%r7
 411              	.LVL41:
 412 000c 00B5     		se_mtctr %r5
 413              	.LVL42:
 414              	.L27:
 415              		.loc 1 238 0 discriminator 3
 416 000e 18E40001 		e_lbzu %r7,1(%r4)
 417              	.LVL43:
 418 0012 18E30401 		e_stbu %r7,1(%r3)
 419              	.LVL44:
 420              		.loc 1 237 0 discriminator 3
 421 0016 7A20FFF8 		e_bdnz .L27
 422              	.LVL45:
 423              	.L25:
 424 001a 0004     		se_blr
 425              		.cfi_endproc
 426              	.LFE11:
 427              		.size	utils_memcpy, .-utils_memcpy
 428              		.section	.bss.readBuffer,"aw",@nobits
 429              		.align 2
 430              		.set	.LANCHOR4,. + 0
 431              		.type	readBuffer, @object
 432              		.size	readBuffer, 40
 433              	readBuffer:
 434 0000 00000000 		.zero	40
 434      00000000 
 434      00000000 
 434      00000000 
 434      00000000 
 435              		.section	.bss.size,"aw",@nobits
 436              		.align 2
 437              		.set	.LANCHOR3,. + 0
 438              		.type	size, @object
 439              		.size	size, 4
 440              	size:
 441 0000 00000000 		.zero	4
 442              		.section	.bss.writeBuffer,"aw",@nobits
 443              		.align 2
 444              		.set	.LANCHOR1,. + 0
 445              		.type	writeBuffer, @object
 446              		.size	writeBuffer, 40
 447              	writeBuffer:
 448 0000 00000000 		.zero	40
 448      00000000 
 448      00000000 
 448      00000000 
 448      00000000 
GAS LISTING C:\Users\duchu\AppData\Local\Temp\cc1dp5PB.s 			page 9


 449              		.section	.bss.updateFlag,"aw",@nobits
 450              		.set	.LANCHOR0,. + 0
 451              		.type	updateFlag, @object
 452              		.size	updateFlag, 1
 453              	updateFlag:
 454 0000 00       		.zero	1
 455              		.section	.bss.returnvalue,"aw",@nobits
 456              		.align 2
 457              		.set	.LANCHOR2,. + 0
 458              		.type	returnvalue, @object
 459              		.size	returnvalue, 4
 460              	returnvalue:
 461 0000 00000000 		.zero	4
 462              		.section	".text","axv"
 463              	.Letext0:
 464              		.file 2 "c:\\spc5studio\\eclipse\\plugins\\com.st.tools.spc5.tools.gnu.gcc.ppcvle.win32_4.9.4.2019
 465              		.file 3 "c:\\spc5studio\\eclipse\\plugins\\com.st.tools.spc5.tools.gnu.gcc.ppcvle.win32_4.9.4.2019
 466              		.file 4 "./components/eeprom_emulation_driver/lib/include/eeprom.h"
 467              		.file 5 "./source/ASW/Asw_DtcMng.h"
 468              		.file 6 "./components/eeprom_emulation_driver/cfg/eeprom_cfg.h"
 469              		.file 7 "./source/ASW/Asw_StateMachine.h"