GAS LISTING C:\Users\duchu\AppData\Local\Temp\cctu3v3A.s 			page 1


   1              		.file	"Bsw_Can.c"
   2              		.section	".text","axv"
   3              	.Ltext0:
   4              		.cfi_sections	.debug_frame
   5              		.section	.text.Bsw_CAN1_Init,"axv",@progbits
   6              		.align 1
   7              		.p2align 4,,15
   8              		.globl Bsw_CAN1_Init
   9              		.type	Bsw_CAN1_Init, @function
  10              	Bsw_CAN1_Init:
  11              	.LFB4:
  12              		.file 1 "./source/BSW/Bsw_Can.c"
  13              		.loc 1 97 0
  14              		.cfi_startproc
  15 0000 182106F8 		e_stwu %r1,-8(%r1)
  16              	.LCFI0:
  17              		.cfi_def_cfa_offset 8
  18 0004 0080     		se_mflr %r0
  19 0006 D301     		se_stw %r0,12(%r1)
  20              		.cfi_offset 65, 4
  21              		.loc 1 98 0
  22 0008 78000001 		e_bl Hal_CAN1_Init
  23              	.LVL0:
  24              		.loc 1 99 0
  25 000c C301     		se_lwz %r0,12(%r1)
  26 000e 0090     		se_mtlr %r0
  27              		.cfi_restore 65
  28 0010 2071     		se_addi %r1,8
  29              	.LCFI1:
  30              		.cfi_def_cfa_offset 0
  31 0012 0004     		se_blr
  32              		.cfi_endproc
  33              	.LFE4:
  34              		.size	Bsw_CAN1_Init, .-Bsw_CAN1_Init
  35              		.section	.text.Bsw_CAN2_Init,"axv",@progbits
  36              		.align 1
  37              		.p2align 4,,15
  38              		.globl Bsw_CAN2_Init
  39              		.type	Bsw_CAN2_Init, @function
  40              	Bsw_CAN2_Init:
  41              	.LFB5:
  42              		.loc 1 109 0
  43              		.cfi_startproc
  44 0000 182106F8 		e_stwu %r1,-8(%r1)
  45              	.LCFI2:
  46              		.cfi_def_cfa_offset 8
  47 0004 0080     		se_mflr %r0
  48 0006 D301     		se_stw %r0,12(%r1)
  49              		.cfi_offset 65, 4
  50              		.loc 1 110 0
  51 0008 78000001 		e_bl Hal_CAN2_Init
  52              	.LVL1:
  53              		.loc 1 111 0
  54 000c C301     		se_lwz %r0,12(%r1)
  55 000e 0090     		se_mtlr %r0
  56              		.cfi_restore 65
  57 0010 2071     		se_addi %r1,8
GAS LISTING C:\Users\duchu\AppData\Local\Temp\cctu3v3A.s 			page 2


  58              	.LCFI3:
  59              		.cfi_def_cfa_offset 0
  60 0012 0004     		se_blr
  61              		.cfi_endproc
  62              	.LFE5:
  63              		.size	Bsw_CAN2_Init, .-Bsw_CAN2_Init
  64              		.section	.text.Bsw_Can_Tx,"axv",@progbits
  65              		.align 1
  66              		.p2align 4,,15
  67              		.globl Bsw_Can_Tx
  68              		.type	Bsw_Can_Tx, @function
  69              	Bsw_Can_Tx:
  70              	.LFB6:
  71              		.loc 1 120 0
  72              		.cfi_startproc
  73 0000 182106D8 		e_stwu %r1,-40(%r1)
  74              	.LCFI4:
  75              		.cfi_def_cfa_offset 40
  76 0004 0080     		se_mflr %r0
  77 0006 DB01     		se_stw %r0,44(%r1)
  78 0008 1BC10920 		e_stmw %r30,32(%r1)
  79              		.cfi_offset 65, 4
  80              		.cfi_offset 30, -8
  81              		.cfi_offset 31, -4
  82              		.loc 1 122 0
  83 000c 70C0E000 		e_lis %r6,.LANCHOR0@ha
  84 0010 1CE60000 		e_la %r7,.LANCHOR0@l(%r6)
  85 0014 70A3E0FF 		e_lis %r5,0x18ff
  86 0018 70A0C41A 		e_or2i %r5,1050
  87 001c D157     		se_stw %r5,4(%r7)
  88              		.loc 1 123 0
  89 001e 4885     		se_li %r5,8
  90 0020 9157     		se_stb %r5,1(%r7)
  91              		.loc 1 124 0
  92 0022 4815     		se_li %r5,1
  93 0024 34A60000 		e_stb %r5,.LANCHOR0@l(%r6)
  94              		.loc 1 126 0
  95 0028 70C0E000 		e_lis %r6,u8g_Asw_Ldc_State_Run@ha
  96 002c 30C60000 		e_lbz %r6,u8g_Asw_Ldc_State_Run@l(%r6)
  97 0030 74C40FBD 		e_rlwinm %r4,%r6,1,30,30
  98 0034 70C0E000 		e_lis %r6,u8g_Asw_Ldc_State_Ready@ha
  99 0038 30A60000 		e_lbz %r5,u8g_Asw_Ldc_State_Ready@l(%r6)
 100 003c 18A6C001 		e_andi %r6,%r5,1
 101 0040 4446     		se_or %r6,%r4
 102 0042 9867     		se_stb %r6,8(%r7)
 103              		.loc 1 128 0
 104 0044 70C0E000 		e_lis %r6,u16g_Bsw_realVin@ha
 105 0048 58C60000 		e_lhz %r6,u16g_Bsw_realVin@l(%r6)
 106 004c 9967     		se_stb %r6,9(%r7)
 107              		.loc 1 129 0
 108 004e 6886     		se_srwi %r6,8
 109 0050 9A67     		se_stb %r6,10(%r7)
 110              		.loc 1 131 0
 111 0052 70C0E000 		e_lis %r6,u16g_Bsw_realVout@ha
 112 0056 58C60000 		e_lhz %r6,u16g_Bsw_realVout@l(%r6)
 113 005a 7CC50870 		e_slwi %r5,%r6,1
 114 005e 7CA41070 		e_slwi %r4,%r5,2
GAS LISTING C:\Users\duchu\AppData\Local\Temp\cctu3v3A.s 			page 3


 115 0062 0445     		se_add %r5,%r4
 116 0064 9B57     		se_stb %r5,11(%r7)
 117              		.loc 1 132 0
 118 0066 7CC50870 		e_slwi %r5,%r6,1
 119 006a 6C36     		se_slwi %r6, 3
 120 006c 7CC53214 		add %r6,%r5,%r6
 121 0070 6886     		se_srwi %r6,8
 122 0072 9C67     		se_stb %r6,12(%r7)
 123              		.loc 1 134 0
 124 0074 70C0E000 		e_lis %r6,u16g_Bsw_realIout@ha
 125 0078 58C60000 		e_lhz %r6,u16g_Bsw_realIout@l(%r6)
 126 007c 9D67     		se_stb %r6,13(%r7)
 127              		.loc 1 135 0
 128 007e 6886     		se_srwi %r6,8
 129 0080 9E67     		se_stb %r6,14(%r7)
 130              		.loc 1 137 0
 131 0082 70C0E000 		e_lis %r6,u16g_Bsw_realTemp@ha
 132 0086 58C60000 		e_lhz %r6,u16g_Bsw_realTemp@l(%r6)
 133 008a 9F67     		se_stb %r6,15(%r7)
 134              		.loc 1 139 0
 135 008c 70E0E000 		e_lis %r7,u8g_CAN_TX_Ctrl@ha
 136 0090 30E70000 		e_lbz %r7,u8g_CAN_TX_Ctrl@l(%r7)
 137 0094 2A07     		se_cmpi %r7,0
 138 0096 7A020044 		e_bne %cr0,.L3
 139              		.loc 1 141 0
 140 009a 73C0E000 		e_lis %r30,.LANCHOR0@ha
 141 009e 1FFE0000 		e_la %r31,.LANCHOR0@l(%r30)
 142 00a2 509E0000 		e_lwz %r4,.LANCHOR0@l(%r30)
 143 00a6 C15F     		se_lwz %r5,4(%r31)
 144 00a8 C26F     		se_lwz %r6,8(%r31)
 145 00aa C37F     		se_lwz %r7,12(%r31)
 146 00ac D441     		se_stw %r4,16(%r1)
 147 00ae D551     		se_stw %r5,20(%r1)
 148 00b0 D661     		se_stw %r6,24(%r1)
 149 00b2 D771     		se_stw %r7,28(%r1)
 150 00b4 4883     		se_li %r3,8
 151 00b6 18818010 		e_addi %r4,%r1,16
 152 00ba 78000001 		e_bl CAN1_Drv_SendFrame
 153              	.LVL2:
 154              		.loc 1 142 0
 155 00be 509E0000 		e_lwz %r4,.LANCHOR0@l(%r30)
 156 00c2 C15F     		se_lwz %r5,4(%r31)
 157 00c4 C26F     		se_lwz %r6,8(%r31)
 158 00c6 C37F     		se_lwz %r7,12(%r31)
 159 00c8 D441     		se_stw %r4,16(%r1)
 160 00ca D551     		se_stw %r5,20(%r1)
 161 00cc D661     		se_stw %r6,24(%r1)
 162 00ce D771     		se_stw %r7,28(%r1)
 163 00d0 4883     		se_li %r3,8
 164 00d2 18818010 		e_addi %r4,%r1,16
 165 00d6 78000001 		e_bl CAN2_Drv_SendFrame
 166              	.LVL3:
 167              	.L3:
 168              		.loc 1 144 0
 169 00da CB01     		se_lwz %r0,44(%r1)
 170 00dc 0090     		se_mtlr %r0
 171              		.cfi_restore 65
GAS LISTING C:\Users\duchu\AppData\Local\Temp\cctu3v3A.s 			page 4


 172 00de 1BC10820 		e_lmw %r30,32(%r1)
 173 00e2 18218028 		e_addi %r1,%r1,40
 174              	.LCFI5:
 175              		.cfi_restore 31
 176              		.cfi_restore 30
 177              		.cfi_def_cfa_offset 0
 178 00e6 0004     		se_blr
 179              		.cfi_endproc
 180              	.LFE6:
 181              		.size	Bsw_Can_Tx, .-Bsw_Can_Tx
 182              		.section	.text.Bsw_Can_Rx,"axv",@progbits
 183              		.align 1
 184              		.p2align 4,,15
 185              		.globl Bsw_Can_Rx
 186              		.type	Bsw_Can_Rx, @function
 187              	Bsw_Can_Rx:
 188              	.LFB7:
 189              		.loc 1 154 0
 190              		.cfi_startproc
 191 0000 182106F8 		e_stwu %r1,-8(%r1)
 192              	.LCFI6:
 193              		.cfi_def_cfa_offset 8
 194 0004 0080     		se_mflr %r0
 195 0006 D301     		se_stw %r0,12(%r1)
 196              		.cfi_offset 65, 4
 197              		.loc 1 155 0
 198 0008 70E0E000 		e_lis %r7,u8g_CAN_RX_Ctrl@ha
 199 000c 30E70000 		e_lbz %r7,u8g_CAN_RX_Ctrl@l(%r7)
 200 0010 2A07     		se_cmpi %r7,0
 201 0012 7A020034 		e_bne %cr0,.L6
 202              		.loc 1 157 0
 203 0016 4806     		se_li %r6,0
 204 0018 70E0E000 		e_lis %r7,u8g_Asw_LDC_ENB@ha
 205 001c 34C70000 		e_stb %r6,u8g_Asw_LDC_ENB@l(%r7)
 206              		.loc 1 159 0
 207 0020 78000001 		e_bl Asw_GetIgnSts
 208              	.LVL4:
 209 0024 2A13     		se_cmpi %r3,1
 210 0026 7A020020 		e_bne %cr0,.L6
 211              		.loc 1 161 0
 212 002a 70E0E000 		e_lis %r7,g_can_RxData_18FF31EF+8@ha
 213 002e 30E70000 		e_lbz %r7,g_can_RxData_18FF31EF+8@l(%r7)
 214 0032 2E27     		se_andi %r7,2
 215 0034 18E6C8FF 		e_andi. %r6,%r7,0xff
 216 0038 7A12000E 		e_beq %cr0,.L6
 217              		.loc 1 163 0
 218 003c 4816     		se_li %r6,1
 219 003e 70E0E000 		e_lis %r7,u8g_Asw_LDC_ENB@ha
 220 0042 34C70000 		e_stb %r6,u8g_Asw_LDC_ENB@l(%r7)
 221              	.L6:
 222              		.loc 1 172 0
 223 0046 70E0E000 		e_lis %r7,u32g_Hal_TimeoutCan1Cnt@ha
 224 004a 50E70000 		e_lwz %r7,u32g_Hal_TimeoutCan1Cnt@l(%r7)
 225 004e 7007A831 		e_cmpl16i %r7,49
 226 0052 7A010012 		e_ble %cr0,.L7
 227              		.loc 1 174 0
 228 0056 4816     		se_li %r6,1
GAS LISTING C:\Users\duchu\AppData\Local\Temp\cctu3v3A.s 			page 5


 229 0058 70E0E000 		e_lis %r7,.LANCHOR1@ha
 230 005c 34C70000 		e_stb %r6,.LANCHOR1@l(%r7)
 231 0060 78000018 		e_b .L8
 232              	.L7:
 233              		.loc 1 178 0
 234 0064 4805     		se_li %r5,0
 235 0066 70C0E000 		e_lis %r6,.LANCHOR1@ha
 236 006a 34A60000 		e_stb %r5,.LANCHOR1@l(%r6)
 237              		.loc 1 179 0
 238 006e 2007     		se_addi %r7,1
 239 0070 70C0E000 		e_lis %r6,u32g_Hal_TimeoutCan1Cnt@ha
 240 0074 54E60000 		e_stw %r7,u32g_Hal_TimeoutCan1Cnt@l(%r6)
 241              	.L8:
 242              		.loc 1 182 0
 243 0078 70E0E000 		e_lis %r7,u32g_Hal_TimeoutCan2Cnt@ha
 244 007c 50E70000 		e_lwz %r7,u32g_Hal_TimeoutCan2Cnt@l(%r7)
 245 0080 7007A831 		e_cmpl16i %r7,49
 246 0084 7A010012 		e_ble %cr0,.L9
 247              		.loc 1 184 0
 248 0088 4816     		se_li %r6,1
 249 008a 70E0E000 		e_lis %r7,.LANCHOR2@ha
 250 008e 34C70000 		e_stb %r6,.LANCHOR2@l(%r7)
 251 0092 78000018 		e_b .L5
 252              	.L9:
 253              		.loc 1 188 0
 254 0096 4805     		se_li %r5,0
 255 0098 70C0E000 		e_lis %r6,.LANCHOR2@ha
 256 009c 34A60000 		e_stb %r5,.LANCHOR2@l(%r6)
 257              		.loc 1 189 0
 258 00a0 2007     		se_addi %r7,1
 259 00a2 70C0E000 		e_lis %r6,u32g_Hal_TimeoutCan2Cnt@ha
 260 00a6 54E60000 		e_stw %r7,u32g_Hal_TimeoutCan2Cnt@l(%r6)
 261              	.L5:
 262              		.loc 1 191 0
 263 00aa C301     		se_lwz %r0,12(%r1)
 264 00ac 0090     		se_mtlr %r0
 265              		.cfi_restore 65
 266 00ae 2071     		se_addi %r1,8
 267              	.LCFI7:
 268              		.cfi_def_cfa_offset 0
 269 00b0 0004     		se_blr
 270              		.cfi_endproc
 271              	.LFE7:
 272              		.size	Bsw_Can_Rx, .-Bsw_Can_Rx
 273              		.section	.text.Bsw_Can_DM1_Init,"axv",@progbits
 274              		.align 1
 275              		.p2align 4,,15
 276              		.globl Bsw_Can_DM1_Init
 277              		.type	Bsw_Can_DM1_Init, @function
 278              	Bsw_Can_DM1_Init:
 279              	.LFB8:
 280              		.loc 1 201 0
 281              		.cfi_startproc
 282              		.loc 1 202 0
 283 0000 70A0E000 		e_lis %r5,.LANCHOR3@ha
 284 0004 1CE50000 		e_la %r7,.LANCHOR3@l(%r5)
 285 0008 70C3E0FE 		e_lis %r6,0x18fe
GAS LISTING C:\Users\duchu\AppData\Local\Temp\cctu3v3A.s 			page 6


 286 000c 70D9C21A 		e_or2i %r6,51738
 287 0010 D167     		se_stw %r6,4(%r7)
 288              		.loc 1 203 0
 289 0012 4886     		se_li %r6,8
 290 0014 9167     		se_stb %r6,1(%r7)
 291              		.loc 1 204 0
 292 0016 4817     		se_li %r7,1
 293 0018 34E50000 		e_stb %r7,.LANCHOR3@l(%r5)
 294              		.loc 1 206 0
 295 001c 70A0E000 		e_lis %r5,.LANCHOR4@ha
 296 0020 1C850000 		e_la %r4,.LANCHOR4@l(%r5)
 297 0024 7063E0EC 		e_lis %r3,0x18ec
 298 0028 707FC71A 		e_or2i %r3,65306
 299 002c D134     		se_stw %r3,4(%r4)
 300              		.loc 1 207 0
 301 002e 9164     		se_stb %r6,1(%r4)
 302              		.loc 1 208 0
 303 0030 34E50000 		e_stb %r7,.LANCHOR4@l(%r5)
 304              		.loc 1 210 0
 305 0034 70A0E000 		e_lis %r5,.LANCHOR5@ha
 306 0038 1C850000 		e_la %r4,.LANCHOR5@l(%r5)
 307 003c 7063E0EB 		e_lis %r3,0x18eb
 308 0040 707FC71A 		e_or2i %r3,65306
 309 0044 D134     		se_stw %r3,4(%r4)
 310              		.loc 1 211 0
 311 0046 9164     		se_stb %r6,1(%r4)
 312              		.loc 1 212 0
 313 0048 34E50000 		e_stb %r7,.LANCHOR5@l(%r5)
 314 004c 0004     		se_blr
 315              		.cfi_endproc
 316              	.LFE8:
 317              		.size	Bsw_Can_DM1_Init, .-Bsw_Can_DM1_Init
 318              		.section	.text.Bsw_Can_DM1_Transmitter,"axv",@progbits
 319              		.align 1
 320              		.p2align 4,,15
 321              		.globl Bsw_Can_DM1_Transmitter
 322              		.type	Bsw_Can_DM1_Transmitter, @function
 323              	Bsw_Can_DM1_Transmitter:
 324              	.LFB9:
 325              		.loc 1 224 0
 326              		.cfi_startproc
 327 0000 182106D0 		e_stwu %r1,-48(%r1)
 328              	.LCFI8:
 329              		.cfi_def_cfa_offset 48
 330 0004 0080     		se_mflr %r0
 331 0006 DD01     		se_stw %r0,52(%r1)
 332 0008 1BA10924 		e_stmw %r29,36(%r1)
 333              		.cfi_offset 65, 4
 334              		.cfi_offset 29, -12
 335              		.cfi_offset 30, -8
 336              		.cfi_offset 31, -4
 337              	.LVL5:
 338              	.LBB12:
 339              	.LBB13:
 340              		.loc 1 475 0
 341 000c 70C0E000 		e_lis %r6,Dia_Batt@ha
 342 0010 1CC60000 		e_la %r6,Dia_Batt@l(%r6)
GAS LISTING C:\Users\duchu\AppData\Local\Temp\cctu3v3A.s 			page 7


 343 0014 30E6001B 		e_lbz %r7,27(%r6)
 344 0018 30C6001A 		e_lbz %r6,26(%r6)
 345 001c 0467     		se_add %r7,%r6
 346 001e 70C0E000 		e_lis %r6,Dia_Vin@ha
 347 0022 1CC60000 		e_la %r6,Dia_Vin@l(%r6)
 348 0026 30A6001A 		e_lbz %r5,26(%r6)
 349 002a 0457     		se_add %r7,%r5
 350 002c 30C6001B 		e_lbz %r6,27(%r6)
 351 0030 0467     		se_add %r7,%r6
 352              		.loc 1 476 0
 353 0032 70C0E000 		e_lis %r6,Dia_Vout@ha
 354 0036 1CC60000 		e_la %r6,Dia_Vout@l(%r6)
 355 003a 30A6001A 		e_lbz %r5,26(%r6)
 356 003e 0457     		se_add %r7,%r5
 357 0040 30C6001B 		e_lbz %r6,27(%r6)
 358 0044 0467     		se_add %r7,%r6
 359 0046 70C0E000 		e_lis %r6,Dia_Iout_Sens@ha
 360 004a 1CC60000 		e_la %r6,Dia_Iout_Sens@l(%r6)
 361 004e 8B56     		se_lbz %r5,11(%r6)
 362 0050 0457     		se_add %r7,%r5
 363 0052 8A66     		se_lbz %r6,10(%r6)
 364 0054 0467     		se_add %r7,%r6
 365              		.loc 1 477 0
 366 0056 70C0E000 		e_lis %r6,Dia_Temp_Sens@ha
 367 005a 1CC60000 		e_la %r6,Dia_Temp_Sens@l(%r6)
 368 005e 8B56     		se_lbz %r5,11(%r6)
 369 0060 0457     		se_add %r7,%r5
 370 0062 8A66     		se_lbz %r6,10(%r6)
 371 0064 0467     		se_add %r7,%r6
 372              		.loc 1 478 0
 373 0066 70C0E000 		e_lis %r6,Dia_Iout@ha
 374 006a 1CC60000 		e_la %r6,Dia_Iout@l(%r6)
 375 006e 30A6001A 		e_lbz %r5,26(%r6)
 376 0072 0457     		se_add %r7,%r5
 377 0074 30C6001C 		e_lbz %r6,28(%r6)
 378 0078 0467     		se_add %r7,%r6
 379 007a 70C0E000 		e_lis %r6,Dia_Temp@ha
 380 007e 1CC60000 		e_la %r6,Dia_Temp@l(%r6)
 381 0082 8E56     		se_lbz %r5,14(%r6)
 382 0084 0457     		se_add %r7,%r5
 383 0086 8F56     		se_lbz %r5,15(%r6)
 384 0088 0457     		se_add %r7,%r5
 385 008a 30C60010 		e_lbz %r6,16(%r6)
 386 008e 0467     		se_add %r7,%r6
 387              		.loc 1 477 0
 388 0090 70A0E000 		e_lis %r5,Dia_CAN@ha
 389 0094 1CC50000 		e_la %r6,Dia_CAN@l(%r5)
 390 0098 8346     		se_lbz %r4,3(%r6)
 391 009a 0447     		se_add %r7,%r4
 392              		.loc 1 475 0
 393 009c 58A50000 		e_lhz %r5,Dia_CAN@l(%r5)
 394 00a0 0457     		se_add %r7,%r5
 395 00a2 8756     		se_lbz %r5,7(%r6)
 396 00a4 0457     		se_add %r7,%r5
 397 00a6 8566     		se_lbz %r6,5(%r6)
 398 00a8 0467     		se_add %r7,%r6
 399 00aa 74E0063F 		e_rlwinm %r0,%r7,0,0xff
GAS LISTING C:\Users\duchu\AppData\Local\Temp\cctu3v3A.s 			page 8


 400              	.LVL6:
 401              	.LBE13:
 402              	.LBE12:
 403              		.loc 1 233 0
 404 00ae 70E0E000 		e_lis %r7,.LANCHOR6@ha
 405              	.LVL7:
 406 00b2 34070000 		e_stb %r0,.LANCHOR6@l(%r7)
 407              		.loc 1 235 0
 408 00b6 70E0E000 		e_lis %r7,u32g_LDC_ERR_Sts@ha
 409 00ba 50A70000 		e_lwz %r5,u32g_LDC_ERR_Sts@l(%r7)
 410 00be 70E0E000 		e_lis %r7,.LANCHOR7@ha
 411 00c2 50E70000 		e_lwz %r7,.LANCHOR7@l(%r7)
 412 00c6 0C57     		se_cmp %r7,%r5
 413 00c8 7A1201C4 		e_beq %cr0,.L13
 414 00cc 4807     		se_li %r7,0
 415              	.LBB14:
 416              	.LBB15:
 417              		.loc 1 447 0
 418 00ce 4813     		se_li %r3,1
 419              		.loc 1 457 0
 420 00d0 7080E000 		e_lis %r4,.LANCHOR8@ha
 421 00d4 1C840000 		e_la %r4,.LANCHOR8@l(%r4)
 422 00d8 71200000 		e_li %r9,0
 423              		.loc 1 452 0
 424 00dc 7160E000 		e_lis %r11,u8g_Asw_DTC_CODE_Array@ha
 425 00e0 1D6B0000 		e_la %r11,u8g_Asw_DTC_CODE_Array@l(%r11)
 426 00e4 4946     		se_li %r6,20
 427 00e6 00B6     		se_mtctr %r6
 428              	.L16:
 429              	.LVL8:
 430              		.loc 1 447 0
 431 00e8 7C663830 		slw %r6,%r3,%r7
 432              		.loc 1 450 0
 433 00ec 7CDF2839 		and. %r31,%r6,%r5
 434 00f0 7A120010 		e_beq %cr0,.L14
 435              		.loc 1 452 0
 436 00f4 7CCB38AE 		lbzx %r6,%r11,%r7
 437 00f8 7CC721AE 		stbx %r6,%r7,%r4
 438 00fc 78000008 		e_b .L15
 439              	.L14:
 440              		.loc 1 457 0
 441 0100 7D2721AE 		stbx %r9,%r7,%r4
 442              	.L15:
 443              	.LVL9:
 444 0104 2007     		se_addi %r7,1
 445              	.LVL10:
 446              		.loc 1 445 0
 447 0106 7A20FFE2 		e_bdnz .L16
 448 010a 7080E000 		e_lis %r4,.LANCHOR8@ha
 449 010e 1C840000 		e_la %r4,.LANCHOR8@l(%r4)
 450 0112 71600000 		e_li %r11,0
 451              	.LBB16:
 452              	.LBB17:
 453              		.loc 1 501 0
 454 0116 0143     		se_mr %r3,%r4
 455              	.LVL11:
 456              	.L51:
GAS LISTING C:\Users\duchu\AppData\Local\Temp\cctu3v3A.s 			page 9


 457              		.loc 1 499 0
 458 0118 196B8001 		e_addi %r11,%r11,1
 459              	.LVL12:
 460 011c 756B043F 		e_rlwinm %r11,%r11,0,0xffff
 461              	.LVL13:
 462 0120 700BA813 		e_cmpl16i %r11,19
 463 0124 7A11048E 		e_bgt %cr0,.L17
 464 0128 0337     		se_mfar %r7,%r11
 465              		.loc 1 501 0
 466 012a 18CBB013 		e_subfic %r6, %r11, 19
 467 012e 00E6     		se_extzh %r6
 468 0130 2006     		se_addi %r6,1
 469 0132 00B6     		se_mtctr %r6
 470              	.LVL14:
 471              	.L19:
 472 0134 8064     		se_lbz %r6,0(%r4)
 473 0136 7CA338AE 		lbzx %r5,%r3,%r7
 474 013a 0D56     		se_cmpl %r6,%r5
 475 013c 7A00000A 		e_bge %cr0,.L18
 476              	.LVL15:
 477              		.loc 1 504 0
 478 0140 9054     		se_stb %r5,0(%r4)
 479              		.loc 1 505 0
 480 0142 7CC339AE 		stbx %r6,%r3,%r7
 481              	.LVL16:
 482              	.L18:
 483              		.loc 1 499 0
 484 0146 2007     		se_addi %r7,1
 485              	.LVL17:
 486 0148 00E7     		se_extzh %r7
 487              	.LVL18:
 488 014a 7A20FFEA 		e_bdnz .L19
 489              	.LVL19:
 490 014e 2004     		se_addi %r4,1
 491              		.loc 1 497 0
 492 0150 700BA813 		e_cmpl16i %r11,19
 493 0154 7A02FFC4 		e_bne %cr0,.L51
 494              	.LVL20:
 495              	.LBE17:
 496              	.LBE16:
 497              	.LBE15:
 498              	.LBE14:
 499              	.LBB18:
 500              	.LBB19:
 501              		.loc 1 367 0
 502 0158 2200     		se_cmpli %r0,1
 503 015a 7A010108 		e_ble %cr0,.L21
 504              		.loc 1 369 0
 505 015e 70E0E000 		e_lis %r7,.LANCHOR9@ha
 506              	.LVL21:
 507 0162 1CC70000 		e_la %r6,.LANCHOR9@l(%r7)
 508 0166 4845     		se_li %r5,4
 509 0168 34A70000 		e_stb %r5,.LANCHOR9@l(%r7)
 510              		.loc 1 370 0
 511 016c 2C07     		se_bmaski %r7,0
 512 016e 9176     		se_stb %r7,1(%r6)
 513              		.loc 1 372 0
GAS LISTING C:\Users\duchu\AppData\Local\Temp\cctu3v3A.s 			page 10


 514 0170 2A00     		se_cmpi %r0,0
 515 0172 7A12006C 		e_beq %cr0,.L42
 516 0176 0165     		se_mr %r5,%r6
 517 0178 18E68002 		e_addi %r7,%r6,2
 518 017c 70C0E000 		e_lis %r6,.LANCHOR8@ha
 519 0180 1CC60000 		e_la %r6,.LANCHOR8@l(%r6)
 520 0184 18C684FF 		e_addi %r6,%r6,-1
 521 0188 188084FF 		e_addi %r4,%r0,-1
 522 018c 748415BB 		e_rlwinm %r4,%r4,2,22,29
 523 0190 2054     		se_addi %r4,6
 524 0192 7C852214 		add %r4,%r5,%r4
 525              		.loc 1 374 0
 526 0196 71200059 		e_li %r9,89
 527              		.loc 1 375 0
 528 019a 71600012 		e_li %r11,18
 529              	.LVL22:
 530              		.loc 1 377 0
 531 019e 2C03     		se_bmaski %r3,0
 532              	.LVL23:
 533              	.L23:
 534              		.loc 1 374 0
 535 01a0 35270000 		e_stb %r9,0(%r7)
 536              		.loc 1 375 0
 537 01a4 35670001 		e_stb %r11,1(%r7)
 538              		.loc 1 376 0
 539 01a8 18A60001 		e_lbzu %r5,1(%r6)
 540              	.LVL24:
 541 01ac 9257     		se_stb %r5,2(%r7)
 542              		.loc 1 377 0
 543 01ae 9337     		se_stb %r3,3(%r7)
 544              	.LVL25:
 545 01b0 2037     		se_addi %r7,4
 546              	.LVL26:
 547              		.loc 1 372 0
 548 01b2 0D47     		se_cmpl %r7,%r4
 549 01b4 7A02FFEC 		e_bne %cr0,.L23
 550 01b8 7407163B 		e_rlwinm %r7,%r0,2,24,29
 551              	.LVL27:
 552              		.loc 1 382 0
 553 01bc 70C0E000 		e_lis %r6,.LANCHOR10@ha
 554              	.LVL28:
 555 01c0 34E60000 		e_stb %r7,.LANCHOR10@l(%r6)
 556              		.loc 1 384 0
 557 01c4 18A78002 		e_addi %r5,%r7,2
 558 01c8 4876     		se_li %r6,7
 559 01ca 7C853396 		divwu %r4,%r5,%r6
 560 01ce 7C861870 		e_slwi %r6,%r4,3
 561 01d2 0646     		se_sub %r6, %r4
 562 01d4 0C65     		se_cmp %r5,%r6
 563 01d6 7A02000C 		e_bne %cr0,.L22
 564 01da 78000048 		e_b .L24
 565              	.LVL29:
 566              	.L42:
 567              		.loc 1 362 0
 568 01de 4807     		se_li %r7,0
 569              		.loc 1 384 0
 570 01e0 4825     		se_li %r5,2
GAS LISTING C:\Users\duchu\AppData\Local\Temp\cctu3v3A.s 			page 11


 571              	.LVL30:
 572              	.L22:
 573 01e2 2007     		se_addi %r7,1
 574 01e4 00C7     		se_extzb %r7
 575              		.loc 1 386 0
 576 01e6 7160E000 		e_lis %r11,.LANCHOR9@ha
 577 01ea 1D6B0000 		e_la %r11,.LANCHOR9@l(%r11)
 578 01ee 713F7FFF 		e_li %r9,-1
 579              		.loc 1 384 0
 580 01f2 4870     		se_li %r0,7
 581              	.LVL31:
 582 01f4 78000006 		e_b .L25
 583              	.L44:
 584 01f8 0147     		se_mr %r7,%r4
 585              	.L25:
 586              		.loc 1 386 0
 587 01fa 7D2B29AE 		stbx %r9,%r11,%r5
 588              		.loc 1 384 0
 589 01fe 18A78002 		e_addi %r5,%r7,2
 590 0202 18C78001 		e_addi %r6,%r7,1
 591 0206 74C4063F 		e_rlwinm %r4,%r6,0,0xff
 592 020a 7C650396 		divwu %r3,%r5,%r0
 593 020e 7C661870 		e_slwi %r6,%r3,3
 594 0212 0636     		se_sub %r6, %r3
 595 0214 0C65     		se_cmp %r5,%r6
 596 0216 7A02FFE2 		e_bne %cr0,.L44
 597 021a 70C0E000 		e_lis %r6,.LANCHOR10@ha
 598 021e 34E60000 		e_stb %r7,.LANCHOR10@l(%r6)
 599              	.L24:
 600              		.loc 1 390 0
 601 0222 70C0E000 		e_lis %r6,.LANCHOR11@ha
 602 0226 34E60000 		e_stb %r7,.LANCHOR11@l(%r6)
 603              		.loc 1 392 0
 604 022a 7007A853 		e_cmpl16i %r7,83
 605 022e 7A11004E 		e_bgt %cr0,.L26
 606              		.loc 1 394 0
 607 0232 70A0E000 		e_lis %r5,.LANCHOR9@ha
 608 0236 1CA50000 		e_la %r5,.LANCHOR9@l(%r5)
 609 023a 4804     		se_li %r4,0
 610 023c 18C7B053 		e_subfic %r6, %r7, 83
 611 0240 00C6     		se_extzb %r6
 612 0242 2006     		se_addi %r6,1
 613 0244 00B6     		se_mtctr %r6
 614              	.L45:
 615 0246 7CC53A14 		add %r6,%r5,%r7
 616 024a 9246     		se_stb %r4,2(%r6)
 617 024c 2007     		se_addi %r7,1
 618 024e 00C7     		se_extzb %r7
 619              		.loc 1 392 0
 620 0250 7A20FFF6 		e_bdnz .L45
 621 0254 4D46     		se_li %r6,84
 622 0256 70E0E000 		e_lis %r7,.LANCHOR11@ha
 623 025a 34C70000 		e_stb %r6,.LANCHOR11@l(%r7)
 624 025e 7800001E 		e_b .L26
 625              	.LVL32:
 626              	.L21:
 627 0262 70E0E000 		e_lis %r7,.LANCHOR9@ha
GAS LISTING C:\Users\duchu\AppData\Local\Temp\cctu3v3A.s 			page 12


 628              	.LVL33:
 629 0266 1CE70000 		e_la %r7,.LANCHOR9@l(%r7)
 630 026a 18E784FF 		e_addi %r7,%r7,-1
 631              		.loc 1 402 0
 632 026e 4806     		se_li %r6,0
 633 0270 4955     		se_li %r5,21
 634 0272 00B5     		se_mtctr %r5
 635              	.LVL34:
 636              	.L28:
 637 0274 18C70401 		e_stbu %r6,1(%r7)
 638              	.LVL35:
 639              		.loc 1 400 0
 640 0278 7A20FFFC 		e_bdnz .L28
 641              	.LVL36:
 642              	.L26:
 643              	.LBE19:
 644              	.LBE18:
 645              		.loc 1 240 0
 646 027c 70E0E000 		e_lis %r7,u32g_LDC_ERR_Sts@ha
 647 0280 50C70000 		e_lwz %r6,u32g_LDC_ERR_Sts@l(%r7)
 648 0284 70E0E000 		e_lis %r7,.LANCHOR7@ha
 649 0288 54C70000 		e_stw %r6,.LANCHOR7@l(%r7)
 650              	.LVL37:
 651              	.L13:
 652              		.loc 1 243 0
 653 028c 70E0E000 		e_lis %r7,.LANCHOR6@ha
 654 0290 30C70000 		e_lbz %r6,.LANCHOR6@l(%r7)
 655 0294 70E0E000 		e_lis %r7,.LANCHOR12@ha
 656 0298 30E70000 		e_lbz %r7,.LANCHOR12@l(%r7)
 657 029c 0C67     		se_cmp %r7,%r6
 658 029e 7A120068 		e_beq %cr0,.L29
 659              		.loc 1 245 0
 660 02a2 2216     		se_cmpli %r6,2
 661 02a4 7A020012 		e_bne %cr0,.L30
 662              		.loc 1 247 0
 663 02a8 48A5     		se_li %r5,10
 664 02aa 70E0E000 		e_lis %r7,.LANCHOR13@ha
 665 02ae 34A70000 		e_stb %r5,.LANCHOR13@l(%r7)
 666 02b2 78000026 		e_b .L31
 667              	.L30:
 668              		.loc 1 249 0
 669 02b6 2226     		se_cmpli %r6,3
 670 02b8 7A020012 		e_bne %cr0,.L32
 671              		.loc 1 251 0
 672 02bc 48E5     		se_li %r5,14
 673 02be 70E0E000 		e_lis %r7,.LANCHOR13@ha
 674 02c2 34A70000 		e_stb %r5,.LANCHOR13@l(%r7)
 675 02c6 78000012 		e_b .L31
 676              	.L32:
 677              		.loc 1 255 0
 678 02ca 7CC71070 		e_slwi %r7,%r6,2
 679 02ce 2017     		se_addi %r7,2
 680 02d0 70A0E000 		e_lis %r5,.LANCHOR13@ha
 681 02d4 34E50000 		e_stb %r7,.LANCHOR13@l(%r5)
 682              	.L31:
 683              		.loc 1 258 0
 684 02d8 70E0E000 		e_lis %r7,.LANCHOR10@ha
GAS LISTING C:\Users\duchu\AppData\Local\Temp\cctu3v3A.s 			page 13


 685 02dc 30A70000 		e_lbz %r5,.LANCHOR10@l(%r7)
 686 02e0 70E4E492 		e_lis %r7,0x2492
 687 02e4 70E9C125 		e_or2i %r7,18725
 688 02e8 7CE53816 		mulhwu %r7,%r5,%r7
 689 02ec 0675     		se_sub %r5, %r7
 690 02ee 6815     		se_srwi %r5,1
 691 02f0 0457     		se_add %r7,%r5
 692 02f2 6827     		se_srwi %r7,2
 693 02f4 2007     		se_addi %r7,1
 694 02f6 70A0E000 		e_lis %r5,.LANCHOR14@ha
 695 02fa 34E50000 		e_stb %r7,.LANCHOR14@l(%r5)
 696              		.loc 1 260 0
 697 02fe 70E0E000 		e_lis %r7,.LANCHOR12@ha
 698 0302 34C70000 		e_stb %r6,.LANCHOR12@l(%r7)
 699              	.L29:
 700              		.loc 1 263 0
 701 0306 70E0E000 		e_lis %r7,.LANCHOR15@ha
 702 030a 30E70000 		e_lbz %r7,.LANCHOR15@l(%r7)
 703 030e 2007     		se_addi %r7,1
 704 0310 00C7     		se_extzb %r7
 705              		.loc 1 264 0
 706 0312 2247     		se_cmpli %r7,5
 707 0314 7A110012 		e_bgt %cr0,.L33
 708              		.loc 1 263 0
 709 0318 70A0E000 		e_lis %r5,.LANCHOR15@ha
 710 031c 34E50000 		e_stb %r7,.LANCHOR15@l(%r5)
 711              		.loc 1 231 0
 712 0320 4805     		se_li %r5,0
 713 0322 78000010 		e_b .L34
 714              	.L33:
 715              		.loc 1 266 0
 716 0326 4805     		se_li %r5,0
 717 0328 70E0E000 		e_lis %r7,.LANCHOR15@ha
 718 032c 34A70000 		e_stb %r5,.LANCHOR15@l(%r7)
 719              	.LVL38:
 720              		.loc 1 267 0
 721 0330 4815     		se_li %r5,1
 722              	.LVL39:
 723              	.L34:
 724              		.loc 1 270 0
 725 0332 2A06     		se_cmpi %r6,0
 726 0334 7A12000E 		e_beq %cr0,.L36
 727 0338 2206     		se_cmpli %r6,1
 728 033a 7A12007C 		e_beq %cr0,.L37
 729 033e 780000F8 		e_b .L52
 730              	.L36:
 731              		.loc 1 273 0
 732 0342 70E0E000 		e_lis %r7,.LANCHOR16@ha
 733 0346 30E70000 		e_lbz %r7,.LANCHOR16@l(%r7)
 734 034a 2A07     		se_cmpi %r7,0
 735 034c 7A020230 		e_bne %cr0,.L38
 736              		.loc 1 275 0
 737 0350 73C0E000 		e_lis %r30,.LANCHOR3@ha
 738 0354 1FFE0000 		e_la %r31,.LANCHOR3@l(%r30)
 739 0358 4806     		se_li %r6,0
 740 035a 986F     		se_stb %r6,8(%r31)
 741              		.loc 1 276 0
GAS LISTING C:\Users\duchu\AppData\Local\Temp\cctu3v3A.s 			page 14


 742 035c 2C07     		se_bmaski %r7,0
 743 035e 997F     		se_stb %r7,9(%r31)
 744              		.loc 1 277 0
 745 0360 9A6F     		se_stb %r6,10(%r31)
 746              		.loc 1 278 0
 747 0362 9B6F     		se_stb %r6,11(%r31)
 748              		.loc 1 279 0
 749 0364 9C6F     		se_stb %r6,12(%r31)
 750              		.loc 1 280 0
 751 0366 9D7F     		se_stb %r7,13(%r31)
 752              		.loc 1 281 0
 753 0368 9E7F     		se_stb %r7,14(%r31)
 754              		.loc 1 282 0
 755 036a 9F7F     		se_stb %r7,15(%r31)
 756              		.loc 1 284 0
 757 036c 509E0000 		e_lwz %r4,.LANCHOR3@l(%r30)
 758 0370 C15F     		se_lwz %r5,4(%r31)
 759              	.LVL40:
 760 0372 C26F     		se_lwz %r6,8(%r31)
 761 0374 C37F     		se_lwz %r7,12(%r31)
 762 0376 D441     		se_stw %r4,16(%r1)
 763 0378 D551     		se_stw %r5,20(%r1)
 764 037a D661     		se_stw %r6,24(%r1)
 765 037c D771     		se_stw %r7,28(%r1)
 766 037e 4893     		se_li %r3,9
 767 0380 18818010 		e_addi %r4,%r1,16
 768 0384 78000001 		e_bl CAN1_Drv_SendFrame
 769              	.LVL41:
 770              		.loc 1 285 0
 771 0388 509E0000 		e_lwz %r4,.LANCHOR3@l(%r30)
 772 038c C15F     		se_lwz %r5,4(%r31)
 773 038e C26F     		se_lwz %r6,8(%r31)
 774 0390 C37F     		se_lwz %r7,12(%r31)
 775 0392 D441     		se_stw %r4,16(%r1)
 776 0394 D551     		se_stw %r5,20(%r1)
 777 0396 D661     		se_stw %r6,24(%r1)
 778 0398 D771     		se_stw %r7,28(%r1)
 779 039a 4893     		se_li %r3,9
 780 039c 18818010 		e_addi %r4,%r1,16
 781 03a0 78000001 		e_bl CAN2_Drv_SendFrame
 782              	.LVL42:
 783              		.loc 1 287 0
 784 03a4 70C0E000 		e_lis %r6,.LANCHOR16@ha
 785 03a8 30E60000 		e_lbz %r7,.LANCHOR16@l(%r6)
 786 03ac 2007     		se_addi %r7,1
 787 03ae 34E60000 		e_stb %r7,.LANCHOR16@l(%r6)
 788 03b2 780001CA 		e_b .L38
 789              	.LVL43:
 790              	.L37:
 791              		.loc 1 291 0
 792 03b6 70E0E000 		e_lis %r7,.LANCHOR16@ha
 793 03ba 30E70000 		e_lbz %r7,.LANCHOR16@l(%r7)
 794 03be 2A07     		se_cmpi %r7,0
 795 03c0 7A0201BC 		e_bne %cr0,.L38
 796              		.loc 1 293 0
 797 03c4 73C0E000 		e_lis %r30,.LANCHOR3@ha
 798 03c8 1FFE0000 		e_la %r31,.LANCHOR3@l(%r30)
GAS LISTING C:\Users\duchu\AppData\Local\Temp\cctu3v3A.s 			page 15


 799 03cc 4847     		se_li %r7,4
 800 03ce 987F     		se_stb %r7,8(%r31)
 801              		.loc 1 294 0
 802 03d0 2C07     		se_bmaski %r7,0
 803 03d2 997F     		se_stb %r7,9(%r31)
 804              		.loc 1 295 0
 805 03d4 4D96     		se_li %r6,89
 806 03d6 9A6F     		se_stb %r6,10(%r31)
 807              		.loc 1 296 0
 808 03d8 4926     		se_li %r6,18
 809 03da 9B6F     		se_stb %r6,11(%r31)
 810              		.loc 1 297 0
 811 03dc 70C0E000 		e_lis %r6,.LANCHOR8@ha
 812 03e0 30C60000 		e_lbz %r6,.LANCHOR8@l(%r6)
 813 03e4 9C6F     		se_stb %r6,12(%r31)
 814              		.loc 1 298 0
 815 03e6 9D7F     		se_stb %r7,13(%r31)
 816              		.loc 1 299 0
 817 03e8 9E7F     		se_stb %r7,14(%r31)
 818              		.loc 1 300 0
 819 03ea 9F7F     		se_stb %r7,15(%r31)
 820              		.loc 1 302 0
 821 03ec 509E0000 		e_lwz %r4,.LANCHOR3@l(%r30)
 822 03f0 C15F     		se_lwz %r5,4(%r31)
 823              	.LVL44:
 824 03f2 C26F     		se_lwz %r6,8(%r31)
 825 03f4 C37F     		se_lwz %r7,12(%r31)
 826 03f6 D441     		se_stw %r4,16(%r1)
 827 03f8 D551     		se_stw %r5,20(%r1)
 828 03fa D661     		se_stw %r6,24(%r1)
 829 03fc D771     		se_stw %r7,28(%r1)
 830 03fe 4893     		se_li %r3,9
 831 0400 18818010 		e_addi %r4,%r1,16
 832 0404 78000001 		e_bl CAN1_Drv_SendFrame
 833              	.LVL45:
 834              		.loc 1 303 0
 835 0408 509E0000 		e_lwz %r4,.LANCHOR3@l(%r30)
 836 040c C15F     		se_lwz %r5,4(%r31)
 837 040e C26F     		se_lwz %r6,8(%r31)
 838 0410 C37F     		se_lwz %r7,12(%r31)
 839 0412 D441     		se_stw %r4,16(%r1)
 840 0414 D551     		se_stw %r5,20(%r1)
 841 0416 D661     		se_stw %r6,24(%r1)
 842 0418 D771     		se_stw %r7,28(%r1)
 843 041a 4893     		se_li %r3,9
 844 041c 18818010 		e_addi %r4,%r1,16
 845 0420 78000001 		e_bl CAN2_Drv_SendFrame
 846              	.LVL46:
 847              		.loc 1 305 0
 848 0424 70C0E000 		e_lis %r6,.LANCHOR16@ha
 849 0428 30E60000 		e_lbz %r7,.LANCHOR16@l(%r6)
 850 042c 2007     		se_addi %r7,1
 851 042e 34E60000 		e_stb %r7,.LANCHOR16@l(%r6)
 852 0432 7800014A 		e_b .L38
 853              	.LVL47:
 854              	.L52:
 855              		.loc 1 309 0
GAS LISTING C:\Users\duchu\AppData\Local\Temp\cctu3v3A.s 			page 16


 856 0436 70E0E000 		e_lis %r7,.LANCHOR16@ha
 857 043a 30C70000 		e_lbz %r6,.LANCHOR16@l(%r7)
 858 043e 2A06     		se_cmpi %r6,0
 859 0440 7A02008C 		e_bne %cr0,.L39
 860              		.loc 1 311 0
 861 0444 73A0E000 		e_lis %r29,.LANCHOR4@ha
 862 0448 1FFD0000 		e_la %r31,.LANCHOR4@l(%r29)
 863 044c 4A07     		se_li %r7,32
 864 044e 987F     		se_stb %r7,8(%r31)
 865              		.loc 1 312 0
 866 0450 480E     		se_li %r30,0
 867 0452 99EF     		se_stb %r30,9(%r31)
 868              		.loc 1 313 0
 869 0454 70E0E000 		e_lis %r7,.LANCHOR13@ha
 870 0458 30E70000 		e_lbz %r7,.LANCHOR13@l(%r7)
 871 045c 9A7F     		se_stb %r7,10(%r31)
 872              		.loc 1 314 0
 873 045e 70E0E000 		e_lis %r7,.LANCHOR14@ha
 874 0462 30E70000 		e_lbz %r7,.LANCHOR14@l(%r7)
 875 0466 9B7F     		se_stb %r7,11(%r31)
 876              		.loc 1 315 0
 877 0468 2C07     		se_bmaski %r7,0
 878 046a 9C7F     		se_stb %r7,12(%r31)
 879              		.loc 1 316 0
 880 046c 9DEF     		se_stb %r30,13(%r31)
 881              		.loc 1 317 0
 882 046e 70FF7FFE 		e_li %r7,-2
 883 0472 9E7F     		se_stb %r7,14(%r31)
 884              		.loc 1 318 0
 885 0474 70FF7FCA 		e_li %r7,-54
 886 0478 9F7F     		se_stb %r7,15(%r31)
 887              		.loc 1 320 0
 888 047a 509D0000 		e_lwz %r4,.LANCHOR4@l(%r29)
 889 047e C15F     		se_lwz %r5,4(%r31)
 890              	.LVL48:
 891 0480 C26F     		se_lwz %r6,8(%r31)
 892 0482 C37F     		se_lwz %r7,12(%r31)
 893 0484 D441     		se_stw %r4,16(%r1)
 894 0486 D551     		se_stw %r5,20(%r1)
 895 0488 D661     		se_stw %r6,24(%r1)
 896 048a D771     		se_stw %r7,28(%r1)
 897 048c 4893     		se_li %r3,9
 898 048e 18818010 		e_addi %r4,%r1,16
 899 0492 78000001 		e_bl CAN1_Drv_SendFrame
 900              	.LVL49:
 901              		.loc 1 321 0
 902 0496 509D0000 		e_lwz %r4,.LANCHOR4@l(%r29)
 903 049a C15F     		se_lwz %r5,4(%r31)
 904 049c C26F     		se_lwz %r6,8(%r31)
 905 049e C37F     		se_lwz %r7,12(%r31)
 906 04a0 D441     		se_stw %r4,16(%r1)
 907 04a2 D551     		se_stw %r5,20(%r1)
 908 04a4 D661     		se_stw %r6,24(%r1)
 909 04a6 D771     		se_stw %r7,28(%r1)
 910 04a8 4893     		se_li %r3,9
 911 04aa 18818010 		e_addi %r4,%r1,16
 912 04ae 78000001 		e_bl CAN2_Drv_SendFrame
GAS LISTING C:\Users\duchu\AppData\Local\Temp\cctu3v3A.s 			page 17


 913              	.LVL50:
 914              		.loc 1 323 0
 915 04b2 70C0E000 		e_lis %r6,.LANCHOR16@ha
 916 04b6 30E60000 		e_lbz %r7,.LANCHOR16@l(%r6)
 917 04ba 2007     		se_addi %r7,1
 918 04bc 34E60000 		e_stb %r7,.LANCHOR16@l(%r6)
 919              		.loc 1 324 0
 920 04c0 70E0E000 		e_lis %r7,.LANCHOR15@ha
 921 04c4 37C70000 		e_stb %r30,.LANCHOR15@l(%r7)
 922 04c8 780000B4 		e_b .L38
 923              	.LVL51:
 924              	.L39:
 925              		.loc 1 326 0 discriminator 1
 926 04cc 70E0E000 		e_lis %r7,.LANCHOR10@ha
 927 04d0 30870000 		e_lbz %r4,.LANCHOR10@l(%r7)
 928 04d4 70E4E492 		e_lis %r7,0x2492
 929 04d8 70E9C125 		e_or2i %r7,18725
 930 04dc 7CE43816 		mulhwu %r7,%r4,%r7
 931 04e0 0674     		se_sub %r4, %r7
 932 04e2 6814     		se_srwi %r4,1
 933 04e4 0447     		se_add %r7,%r4
 934 04e6 74E7F63F 		e_rlwinm %r7,%r7,30,24,31
 935 04ea 2007     		se_addi %r7,1
 936 04ec 0D76     		se_cmpl %r6,%r7
 937 04ee 7A11008E 		e_bgt %cr0,.L38
 938              		.loc 1 326 0 is_stmt 0 discriminator 2
 939 04f2 2205     		se_cmpli %r5,1
 940 04f4 7A020088 		e_bne %cr0,.L38
 941              	.LVL52:
 942              	.LBB20:
 943              	.LBB21:
 944              		.loc 1 418 0 is_stmt 1
 945 04f8 7CC71870 		e_slwi %r7,%r6,3
 946 04fc 0667     		se_sub %r7, %r6
 947 04fe 18E784F9 		e_addi %r7,%r7,-7
 948 0502 74E5063F 		e_rlwinm %r5,%r7,0,0xff
 949              	.LVL53:
 950              		.loc 1 420 0
 951 0506 73C0E000 		e_lis %r30,.LANCHOR5@ha
 952 050a 1FFE0000 		e_la %r31,.LANCHOR5@l(%r30)
 953 050e 986F     		se_stb %r6,8(%r31)
 954              		.loc 1 421 0
 955 0510 70E0E000 		e_lis %r7,.LANCHOR9@ha
 956              	.LVL54:
 957 0514 1CE70000 		e_la %r7,.LANCHOR9@l(%r7)
 958 0518 7CC728EE 		lbzux %r6,%r7,%r5
 959              	.LVL55:
 960 051c 996F     		se_stb %r6,9(%r31)
 961              		.loc 1 422 0
 962 051e 8167     		se_lbz %r6,1(%r7)
 963 0520 9A6F     		se_stb %r6,10(%r31)
 964              		.loc 1 423 0
 965 0522 8267     		se_lbz %r6,2(%r7)
 966 0524 9B6F     		se_stb %r6,11(%r31)
 967              		.loc 1 424 0
 968 0526 8367     		se_lbz %r6,3(%r7)
 969 0528 9C6F     		se_stb %r6,12(%r31)
GAS LISTING C:\Users\duchu\AppData\Local\Temp\cctu3v3A.s 			page 18


 970              		.loc 1 425 0
 971 052a 8467     		se_lbz %r6,4(%r7)
 972 052c 9D6F     		se_stb %r6,13(%r31)
 973              		.loc 1 426 0
 974 052e 8567     		se_lbz %r6,5(%r7)
 975 0530 9E6F     		se_stb %r6,14(%r31)
 976              		.loc 1 427 0
 977 0532 8677     		se_lbz %r7,6(%r7)
 978 0534 9F7F     		se_stb %r7,15(%r31)
 979              		.loc 1 429 0
 980 0536 509E0000 		e_lwz %r4,.LANCHOR5@l(%r30)
 981 053a C15F     		se_lwz %r5,4(%r31)
 982              	.LVL56:
 983 053c C26F     		se_lwz %r6,8(%r31)
 984 053e C37F     		se_lwz %r7,12(%r31)
 985 0540 D441     		se_stw %r4,16(%r1)
 986 0542 D551     		se_stw %r5,20(%r1)
 987 0544 D661     		se_stw %r6,24(%r1)
 988 0546 D771     		se_stw %r7,28(%r1)
 989 0548 4893     		se_li %r3,9
 990 054a 18818010 		e_addi %r4,%r1,16
 991 054e 78000001 		e_bl CAN1_Drv_SendFrame
 992              	.LVL57:
 993              		.loc 1 430 0
 994 0552 509E0000 		e_lwz %r4,.LANCHOR5@l(%r30)
 995 0556 C15F     		se_lwz %r5,4(%r31)
 996 0558 C26F     		se_lwz %r6,8(%r31)
 997 055a C37F     		se_lwz %r7,12(%r31)
 998 055c D441     		se_stw %r4,16(%r1)
 999 055e D551     		se_stw %r5,20(%r1)
 1000 0560 D661     		se_stw %r6,24(%r1)
 1001 0562 D771     		se_stw %r7,28(%r1)
 1002 0564 4893     		se_li %r3,9
 1003 0566 18818010 		e_addi %r4,%r1,16
 1004 056a 78000001 		e_bl CAN2_Drv_SendFrame
 1005              	.LVL58:
 1006              	.LBE21:
 1007              	.LBE20:
 1008              		.loc 1 329 0
 1009 056e 70C0E000 		e_lis %r6,.LANCHOR16@ha
 1010 0572 30E60000 		e_lbz %r7,.LANCHOR16@l(%r6)
 1011 0576 2007     		se_addi %r7,1
 1012 0578 34E60000 		e_stb %r7,.LANCHOR16@l(%r6)
 1013              	.L38:
 1014              		.loc 1 337 0
 1015 057c 70E0E000 		e_lis %r7,.LANCHOR17@ha
 1016 0580 58E70000 		e_lhz %r7,.LANCHOR17@l(%r7)
 1017 0584 2007     		se_addi %r7,1
 1018 0586 00E7     		se_extzh %r7
 1019              		.loc 1 338 0
 1020 0588 7007A863 		e_cmpl16i %r7,99
 1021 058c 7A110010 		e_bgt %cr0,.L40
 1022              		.loc 1 337 0
 1023 0590 70C0E000 		e_lis %r6,.LANCHOR17@ha
 1024 0594 5CE60000 		e_sth %r7,.LANCHOR17@l(%r6)
 1025 0598 78000020 		e_b .L12
 1026              	.L40:
GAS LISTING C:\Users\duchu\AppData\Local\Temp\cctu3v3A.s 			page 19


 1027              		.loc 1 340 0
 1028 059c 4807     		se_li %r7,0
 1029 059e 70C0E000 		e_lis %r6,.LANCHOR17@ha
 1030 05a2 5CE60000 		e_sth %r7,.LANCHOR17@l(%r6)
 1031              		.loc 1 341 0
 1032 05a6 70C0E000 		e_lis %r6,.LANCHOR16@ha
 1033 05aa 34E60000 		e_stb %r7,.LANCHOR16@l(%r6)
 1034 05ae 7800000A 		e_b .L12
 1035              	.LVL59:
 1036              	.L17:
 1037 05b2 2004     		se_addi %r4,1
 1038 05b4 79FFFB64 		e_b .L51
 1039              	.LVL60:
 1040              	.L12:
 1041              		.loc 1 343 0
 1042 05b8 CD01     		se_lwz %r0,52(%r1)
 1043 05ba 0090     		se_mtlr %r0
 1044              		.cfi_restore 65
 1045 05bc 1BA10824 		e_lmw %r29,36(%r1)
 1046 05c0 18218030 		e_addi %r1,%r1,48
 1047              	.LCFI9:
 1048              		.cfi_restore 31
 1049              		.cfi_restore 30
 1050              		.cfi_restore 29
 1051              		.cfi_def_cfa_offset 0
 1052 05c4 0004     		se_blr
 1053              		.cfi_endproc
 1054              	.LFE9:
 1055              		.size	Bsw_Can_DM1_Transmitter, .-Bsw_Can_DM1_Transmitter
 1056              		.globl u8g_Bsw_can2ErrStatus
 1057              		.globl u8g_Bsw_can1ErrStatus
 1058              		.section	.bss.u16_1scnt.11115,"aw",@nobits
 1059              		.align 1
 1060              		.set	.LANCHOR17,. + 0
 1061              		.type	u16_1scnt.11115, @object
 1062              		.size	u16_1scnt.11115, 2
 1063              	u16_1scnt.11115:
 1064 0000 0000     		.zero	2
 1065              		.section	.bss.CAN_Buffer,"aw",@nobits
 1066              		.align 2
 1067              		.set	.LANCHOR9,. + 0
 1068              		.type	CAN_Buffer, @object
 1069              		.size	CAN_Buffer, 84
 1070              	CAN_Buffer:
 1071 0000 00000000 		.zero	84
 1071      00000000 
 1071      00000000 
 1071      00000000 
 1071      00000000 
 1072              		.section	.bss.u8_numberofbytes.11117,"aw",@nobits
 1073              		.set	.LANCHOR13,. + 0
 1074              		.type	u8_numberofbytes.11117, @object
 1075              		.size	u8_numberofbytes.11117, 1
 1076              	u8_numberofbytes.11117:
 1077 0000 00       		.zero	1
 1078              		.section	.bss.g_can_TxData_18EBFF1A,"aw",@nobits
 1079              		.align 2
GAS LISTING C:\Users\duchu\AppData\Local\Temp\cctu3v3A.s 			page 20


 1080              		.set	.LANCHOR5,. + 0
 1081              		.type	g_can_TxData_18EBFF1A, @object
 1082              		.size	g_can_TxData_18EBFF1A, 16
 1083              	g_can_TxData_18EBFF1A:
 1084 0000 00000000 		.zero	16
 1084      00000000 
 1084      00000000 
 1084      00000000 
 1085              		.section	.bss.g_can_TxData_18FECA1A,"aw",@nobits
 1086              		.align 2
 1087              		.set	.LANCHOR3,. + 0
 1088              		.type	g_can_TxData_18FECA1A, @object
 1089              		.size	g_can_TxData_18FECA1A, 16
 1090              	g_can_TxData_18FECA1A:
 1091 0000 00000000 		.zero	16
 1091      00000000 
 1091      00000000 
 1091      00000000 
 1092              		.section	.bss.g_can_TxData_18FF041A,"aw",@nobits
 1093              		.align 2
 1094              		.set	.LANCHOR0,. + 0
 1095              		.type	g_can_TxData_18FF041A, @object
 1096              		.size	g_can_TxData_18FF041A, 16
 1097              	g_can_TxData_18FF041A:
 1098 0000 00000000 		.zero	16
 1098      00000000 
 1098      00000000 
 1098      00000000 
 1099              		.section	.bss.dtc_number.11113,"aw",@nobits
 1100              		.set	.LANCHOR6,. + 0
 1101              		.type	dtc_number.11113, @object
 1102              		.size	dtc_number.11113, 1
 1103              	dtc_number.11113:
 1104 0000 00       		.zero	1
 1105              		.section	.bss.g_can_TxData_18ECFF1A,"aw",@nobits
 1106              		.align 2
 1107              		.set	.LANCHOR4,. + 0
 1108              		.type	g_can_TxData_18ECFF1A, @object
 1109              		.size	g_can_TxData_18ECFF1A, 16
 1110              	g_can_TxData_18ECFF1A:
 1111 0000 00000000 		.zero	16
 1111      00000000 
 1111      00000000 
 1111      00000000 
 1112              		.section	.bss.u8g_Bsw_can1ErrStatus,"aw",@nobits
 1113              		.set	.LANCHOR1,. + 0
 1114              		.type	u8g_Bsw_can1ErrStatus, @object
 1115              		.size	u8g_Bsw_can1ErrStatus, 1
 1116              	u8g_Bsw_can1ErrStatus:
 1117 0000 00       		.zero	1
 1118              		.section	.bss.DM1_Array,"aw",@nobits
 1119              		.align 2
 1120              		.set	.LANCHOR8,. + 0
 1121              		.type	DM1_Array, @object
 1122              		.size	DM1_Array, 20
 1123              	DM1_Array:
 1124 0000 00000000 		.zero	20
GAS LISTING C:\Users\duchu\AppData\Local\Temp\cctu3v3A.s 			page 21


 1124      00000000 
 1124      00000000 
 1124      00000000 
 1124      00000000 
 1125              		.section	.bss.u32s_LDC_ERR_Sts_bak.11116,"aw",@nobits
 1126              		.align 2
 1127              		.set	.LANCHOR7,. + 0
 1128              		.type	u32s_LDC_ERR_Sts_bak.11116, @object
 1129              		.size	u32s_LDC_ERR_Sts_bak.11116, 4
 1130              	u32s_LDC_ERR_Sts_bak.11116:
 1131 0000 00000000 		.zero	4
 1132              		.section	.bss.u16s_dm1_meg_cnt,"aw",@nobits
 1133              		.set	.LANCHOR16,. + 0
 1134              		.type	u16s_dm1_meg_cnt, @object
 1135              		.size	u16s_dm1_meg_cnt, 1
 1136              	u16s_dm1_meg_cnt:
 1137 0000 00       		.zero	1
 1138              		.section	.bss.u8_numberofpackets.11118,"aw",@nobits
 1139              		.set	.LANCHOR14,. + 0
 1140              		.type	u8_numberofpackets.11118, @object
 1141              		.size	u8_numberofpackets.11118, 1
 1142              	u8_numberofpackets.11118:
 1143 0000 00       		.zero	1
 1144              		.section	.bss.u8g_Bsw_can2ErrStatus,"aw",@nobits
 1145              		.set	.LANCHOR2,. + 0
 1146              		.type	u8g_Bsw_can2ErrStatus, @object
 1147              		.size	u8g_Bsw_can2ErrStatus, 1
 1148              	u8g_Bsw_can2ErrStatus:
 1149 0000 00       		.zero	1
 1150              		.section	.bss.u8s_TpDt_cnt,"aw",@nobits
 1151              		.set	.LANCHOR15,. + 0
 1152              		.type	u8s_TpDt_cnt, @object
 1153              		.size	u8s_TpDt_cnt, 1
 1154              	u8s_TpDt_cnt:
 1155 0000 00       		.zero	1
 1156              		.section	.bss.dtc_number_bak.11114,"aw",@nobits
 1157              		.set	.LANCHOR12,. + 0
 1158              		.type	dtc_number_bak.11114, @object
 1159              		.size	dtc_number_bak.11114, 1
 1160              	dtc_number_bak.11114:
 1161 0000 00       		.zero	1
 1162              		.section	.bss.u8_zerocount.11128,"aw",@nobits
 1163              		.set	.LANCHOR11,. + 0
 1164              		.type	u8_zerocount.11128, @object
 1165              		.size	u8_zerocount.11128, 1
 1166              	u8_zerocount.11128:
 1167 0000 00       		.zero	1
 1168              		.section	.bss.u8_FFCount,"aw",@nobits
 1169              		.set	.LANCHOR10,. + 0
 1170              		.type	u8_FFCount, @object
 1171              		.size	u8_FFCount, 1
 1172              	u8_FFCount:
 1173 0000 00       		.zero	1
 1174              		.section	".text","axv"
 1175              	.Letext0:
 1176              		.file 2 "c:\\spc5studio\\eclipse\\plugins\\com.st.tools.spc5.tools.gnu.gcc.ppcvle.win32_4.9.4.2019
 1177              		.file 3 "c:\\spc5studio\\eclipse\\plugins\\com.st.tools.spc5.tools.gnu.gcc.ppcvle.win32_4.9.4.2019
GAS LISTING C:\Users\duchu\AppData\Local\Temp\cctu3v3A.s 			page 22


 1178              		.file 4 "./source/ASW/Asw_FaultDetection.h"
 1179              		.file 5 "./source/HAL/Hal_Can.h"
 1180              		.file 6 "./source/ASW/Asw_Utility.h"
 1181              		.file 7 "./source/BSW/Bsw_Adc.h"
 1182              		.file 8 "./source/UDS/Uds_Func.h"