GAS LISTING C:\Users\duchu\AppData\Local\Temp\ccJiYv3A.s 			page 1


   1              		.file	"Bsw_Pwm.c"
   2              		.section	".text","axv"
   3              	.Ltext0:
   4              		.cfi_sections	.debug_frame
   5              		.section	.text.Bsw_PwmInit,"axv",@progbits
   6              		.align 1
   7              		.p2align 4,,15
   8              		.globl Bsw_PwmInit
   9              		.type	Bsw_PwmInit, @function
  10              	Bsw_PwmInit:
  11              	.LFB4:
  12              		.file 1 "./source/BSW/Bsw_Pwm.c"
  13              		.loc 1 80 0
  14              		.cfi_startproc
  15 0000 182106F8 		e_stwu %r1,-8(%r1)
  16              	.LCFI0:
  17              		.cfi_def_cfa_offset 8
  18 0004 0080     		se_mflr %r0
  19 0006 D301     		se_stw %r0,12(%r1)
  20              		.cfi_offset 65, 4
  21              		.loc 1 81 0
  22 0008 78000001 		e_bl Hal_PwmInit
  23              	.LVL0:
  24              		.loc 1 82 0
  25 000c C301     		se_lwz %r0,12(%r1)
  26 000e 0090     		se_mtlr %r0
  27              		.cfi_restore 65
  28 0010 2071     		se_addi %r1,8
  29              	.LCFI1:
  30              		.cfi_def_cfa_offset 0
  31 0012 0004     		se_blr
  32              		.cfi_endproc
  33              	.LFE4:
  34              		.size	Bsw_PwmInit, .-Bsw_PwmInit
  35              		.section	.text.Bsw_PwmSetShift,"axv",@progbits
  36              		.align 1
  37              		.p2align 4,,15
  38              		.globl Bsw_PwmSetShift
  39              		.type	Bsw_PwmSetShift, @function
  40              	Bsw_PwmSetShift:
  41              	.LFB5:
  42              		.loc 1 91 0
  43              		.cfi_startproc
  44              	.LVL1:
  45 0000 182106F8 		e_stwu %r1,-8(%r1)
  46              	.LCFI2:
  47              		.cfi_def_cfa_offset 8
  48 0004 0080     		se_mflr %r0
  49 0006 D301     		se_stw %r0,12(%r1)
  50              		.cfi_offset 65, 4
  51              		.loc 1 92 0
  52 0008 78000001 		e_bl Hal_PwmSetShift
  53              	.LVL2:
  54              		.loc 1 93 0
  55 000c C301     		se_lwz %r0,12(%r1)
  56 000e 0090     		se_mtlr %r0
  57              		.cfi_restore 65
GAS LISTING C:\Users\duchu\AppData\Local\Temp\ccJiYv3A.s 			page 2


  58 0010 2071     		se_addi %r1,8
  59              	.LCFI3:
  60              		.cfi_def_cfa_offset 0
  61 0012 0004     		se_blr
  62              		.cfi_endproc
  63              	.LFE5:
  64              		.size	Bsw_PwmSetShift, .-Bsw_PwmSetShift
  65              		.section	.text.Bsw_PwmEnable,"axv",@progbits
  66              		.align 1
  67              		.p2align 4,,15
  68              		.globl Bsw_PwmEnable
  69              		.type	Bsw_PwmEnable, @function
  70              	Bsw_PwmEnable:
  71              	.LFB6:
  72              		.loc 1 102 0
  73              		.cfi_startproc
  74 0000 182106F8 		e_stwu %r1,-8(%r1)
  75              	.LCFI4:
  76              		.cfi_def_cfa_offset 8
  77 0004 0080     		se_mflr %r0
  78 0006 D301     		se_stw %r0,12(%r1)
  79              		.cfi_offset 65, 4
  80              		.loc 1 103 0
  81 0008 78000001 		e_bl Hal_PwmEnable
  82              	.LVL3:
  83              		.loc 1 104 0
  84 000c C301     		se_lwz %r0,12(%r1)
  85 000e 0090     		se_mtlr %r0
  86              		.cfi_restore 65
  87 0010 2071     		se_addi %r1,8
  88              	.LCFI5:
  89              		.cfi_def_cfa_offset 0
  90 0012 0004     		se_blr
  91              		.cfi_endproc
  92              	.LFE6:
  93              		.size	Bsw_PwmEnable, .-Bsw_PwmEnable
  94              		.section	.text.Bsw_PwmDisable,"axv",@progbits
  95              		.align 1
  96              		.p2align 4,,15
  97              		.globl Bsw_PwmDisable
  98              		.type	Bsw_PwmDisable, @function
  99              	Bsw_PwmDisable:
 100              	.LFB7:
 101              		.loc 1 113 0
 102              		.cfi_startproc
 103 0000 182106F8 		e_stwu %r1,-8(%r1)
 104              	.LCFI6:
 105              		.cfi_def_cfa_offset 8
 106 0004 0080     		se_mflr %r0
 107 0006 D301     		se_stw %r0,12(%r1)
 108              		.cfi_offset 65, 4
 109              		.loc 1 114 0
 110 0008 78000001 		e_bl Hal_PwmDisable
 111              	.LVL4:
 112              		.loc 1 115 0
 113 000c C301     		se_lwz %r0,12(%r1)
 114 000e 0090     		se_mtlr %r0
GAS LISTING C:\Users\duchu\AppData\Local\Temp\ccJiYv3A.s 			page 3


 115              		.cfi_restore 65
 116 0010 2071     		se_addi %r1,8
 117              	.LCFI7:
 118              		.cfi_def_cfa_offset 0
 119 0012 0004     		se_blr
 120              		.cfi_endproc
 121              	.LFE7:
 122              		.size	Bsw_PwmDisable, .-Bsw_PwmDisable
 123              		.section	".text","axv"
 124              	.Letext0:
 125              		.file 2 "c:\\spc5studio\\eclipse\\plugins\\com.st.tools.spc5.tools.gnu.gcc.ppcvle.win32_4.9.4.2019
 126              		.file 3 "c:\\spc5studio\\eclipse\\plugins\\com.st.tools.spc5.tools.gnu.gcc.ppcvle.win32_4.9.4.2019
 127              		.file 4 "./source/HAL/Hal_Pwm.h"