GAS LISTING C:\Users\duchu\AppData\Local\Temp\ccOzxwtX.s 			page 1


   1              		.file	"eeprom_lld.c"
   2              		.section	".text","axv"
   3              	.Ltext0:
   4              		.cfi_sections	.debug_frame
   5              		.section	.text.eeprom_lld_flashinit,"axv",@progbits
   6              		.align 1
   7              		.p2align 4,,15
   8              		.globl eeprom_lld_flashinit
   9              		.type	eeprom_lld_flashinit, @function
  10              	eeprom_lld_flashinit:
  11              	.LFB4:
  12              		.file 1 "./components/eeprom_emulation_driver/lib/src/eeprom_lld.c"
  13              		.loc 1 51 0
  14              		.cfi_startproc
  15 0000 182106F8 		e_stwu %r1,-8(%r1)
  16              	.LCFI0:
  17              		.cfi_def_cfa_offset 8
  18 0004 0080     		se_mflr %r0
  19 0006 D301     		se_stw %r0,12(%r1)
  20              		.cfi_offset 65, 4
  21              		.loc 1 53 0
  22 0008 7060E000 		e_lis %r3,ssdConfig@ha
  23 000c 1C630000 		e_la %r3,ssdConfig@l(%r3)
  24 0010 78000001 		e_bl FlashInit
  25              	.LVL0:
  26 0014 7CE300D0 		neg %r7,%r3
  27 0018 4673     		se_and %r3,%r7
  28 001a 7C630034 		cntlzw %r3,%r3
  29 001e 186384E0 		e_addi %r3,%r3,-32
  30              		.loc 1 58 0
  31 0022 69F3     		se_srwi %r3,31
  32 0024 C301     		se_lwz %r0,12(%r1)
  33 0026 0090     		se_mtlr %r0
  34              		.cfi_restore 65
  35 0028 2071     		se_addi %r1,8
  36              	.LCFI1:
  37              		.cfi_def_cfa_offset 0
  38 002a 0004     		se_blr
  39              		.cfi_endproc
  40              	.LFE4:
  41              		.size	eeprom_lld_flashinit, .-eeprom_lld_flashinit
  42              		.section	.text.eeprom_lld_unlock,"axv",@progbits
  43              		.align 1
  44              		.p2align 4,,15
  45              		.globl eeprom_lld_unlock
  46              		.type	eeprom_lld_unlock, @function
  47              	eeprom_lld_unlock:
  48              	.LFB5:
  49              		.loc 1 73 0
  50              		.cfi_startproc
  51              	.LVL1:
  52 0000 182106F8 		e_stwu %r1,-8(%r1)
  53              	.LCFI2:
  54              		.cfi_def_cfa_offset 8
  55 0004 0080     		se_mflr %r0
  56 0006 D301     		se_stw %r0,12(%r1)
  57              		.cfi_offset 65, 4
GAS LISTING C:\Users\duchu\AppData\Local\Temp\ccOzxwtX.s 			page 2


  58              		.loc 1 80 0
  59 0008 7060E000 		e_lis %r3,ssdConfig@ha
  60              	.LVL2:
  61 000c 1C630000 		e_la %r3,ssdConfig@l(%r3)
  62 0010 4824     		se_li %r4,2
  63              	.LVL3:
  64 0012 4805     		se_li %r5,0
  65 0014 78000001 		e_bl SetLock
  66              	.LVL4:
  67              		.loc 1 81 0
  68 0018 2A03     		se_cmpi %r3,0
  69              		.loc 1 85 0
  70 001a 4827     		se_li %r7,2
  71 001c 7C63389E 		isel %r3,%r3,%r7,2
  72 0020 C301     		se_lwz %r0,12(%r1)
  73 0022 0090     		se_mtlr %r0
  74              		.cfi_restore 65
  75 0024 2071     		se_addi %r1,8
  76              	.LCFI3:
  77              		.cfi_def_cfa_offset 0
  78 0026 0004     		se_blr
  79              		.cfi_endproc
  80              	.LFE5:
  81              		.size	eeprom_lld_unlock, .-eeprom_lld_unlock
  82              		.section	.text.eeprom_lld_flasherase,"axv",@progbits
  83              		.align 1
  84              		.p2align 4,,15
  85              		.globl eeprom_lld_flasherase
  86              		.type	eeprom_lld_flasherase, @function
  87              	eeprom_lld_flasherase:
  88              	.LFB6:
  89              		.loc 1 98 0
  90              		.cfi_startproc
  91              	.LVL5:
  92 0000 182106B8 		e_stwu %r1,-72(%r1)
  93              	.LCFI4:
  94              		.cfi_def_cfa_offset 72
  95 0004 0080     		se_mflr %r0
  96 0006 5401004C 		e_stw %r0,76(%r1)
  97 000a 1BC10940 		e_stmw %r30,64(%r1)
  98              		.cfi_offset 65, 4
  99              		.cfi_offset 30, -8
 100              		.cfi_offset 31, -4
 101              	.LVL6:
 102              		.loc 1 116 0
 103 000e 4807     		se_li %r7,0
 104              	.LVL7:
 105              		.loc 1 120 0
 106 0010 DE71     		se_stw %r7,56(%r1)
 107 0012 DF71     		se_stw %r7,60(%r1)
 108              		.loc 1 115 0
 109 0014 4817     		se_li %r7,1
 110 0016 4237     		se_slw %r7, %r3
 111              		.loc 1 120 0
 112 0018 7060E000 		e_lis %r3,ssdConfig@ha
 113              	.LVL8:
 114 001c 1C630000 		e_la %r3,ssdConfig@l(%r3)
GAS LISTING C:\Users\duchu\AppData\Local\Temp\ccOzxwtX.s 			page 3


 115 0020 4804     		se_li %r4,0
 116              	.LVL9:
 117 0022 4805     		se_li %r5,0
 118 0024 4806     		se_li %r6,0
 119 0026 19018038 		e_addi %r8,%r1,56
 120 002a 78000001 		e_bl FlashErase
 121              	.LVL10:
 122              		.loc 1 122 0
 123 002e 4847     		se_li %r7,4
 124              		.loc 1 121 0
 125 0030 2A03     		se_cmpi %r3,0
 126 0032 7A02002E 		e_bne %cr0,.L6
 127              		.loc 1 126 0 discriminator 1
 128 0036 73E0E000 		e_lis %r31,ssdConfig@ha
 129 003a 1FFF0000 		e_la %r31,ssdConfig@l(%r31)
 130 003e 62EE     		se_bgeni %r30,14
 131              	.LVL11:
 132              	.L10:
 133 0040 01F3     		se_mr %r3,%r31
 134 0042 4814     		se_li %r4,1
 135 0044 18A18008 		e_addi %r5,%r1,8
 136 0048 18C1800C 		e_addi %r6,%r1,12
 137 004c 78000001 		e_bl FlashCheckStatus
 138              	.LVL12:
 139 0050 0CE3     		se_cmp %r3,%r30
 140 0052 7A12FFEE 		e_beq %cr0,.L10
 141              		.loc 1 128 0
 142 0056 C271     		se_lwz %r7,8(%r1)
 143              		.loc 1 129 0
 144 0058 2A07     		se_cmpi %r7,0
 145 005a 4846     		se_li %r6,4
 146 005c 7CE7309E 		isel %r7,%r7,%r6,2
 147              	.L6:
 148              		.loc 1 134 0
 149 0060 0173     		se_mr %r3,%r7
 150 0062 5001004C 		e_lwz %r0,76(%r1)
 151 0066 0090     		se_mtlr %r0
 152              		.cfi_restore 65
 153 0068 1BC10840 		e_lmw %r30,64(%r1)
 154 006c 18218048 		e_addi %r1,%r1,72
 155              	.LCFI5:
 156              		.cfi_restore 31
 157              		.cfi_restore 30
 158              		.cfi_def_cfa_offset 0
 159 0070 0004     		se_blr
 160              		.cfi_endproc
 161              	.LFE6:
 162              		.size	eeprom_lld_flasherase, .-eeprom_lld_flasherase
 163              		.section	.text.eeprom_lld_flashprogram64,"axv",@progbits
 164              		.align 1
 165              		.p2align 4,,15
 166              		.globl eeprom_lld_flashprogram64
 167              		.type	eeprom_lld_flashprogram64, @function
 168              	eeprom_lld_flashprogram64:
 169              	.LFB7:
 170              		.loc 1 147 0
 171              		.cfi_startproc
GAS LISTING C:\Users\duchu\AppData\Local\Temp\ccOzxwtX.s 			page 4


 172              	.LVL13:
 173 0000 182106B8 		e_stwu %r1,-72(%r1)
 174              	.LCFI6:
 175              		.cfi_def_cfa_offset 72
 176 0004 0080     		se_mflr %r0
 177 0006 5401004C 		e_stw %r0,76(%r1)
 178 000a 1BC10940 		e_stmw %r30,64(%r1)
 179              		.cfi_offset 65, 4
 180              		.cfi_offset 30, -8
 181              		.cfi_offset 31, -4
 182 000e 0137     		se_mr %r7,%r3
 183 0010 DE51     		se_stw %r5,56(%r1)
 184 0012 DF61     		se_stw %r6,60(%r1)
 185              	.LVL14:
 186              		.loc 1 155 0
 187 0014 7060E000 		e_lis %r3,ssdConfig@ha
 188              	.LVL15:
 189 0018 1C630000 		e_la %r3,ssdConfig@l(%r3)
 190 001c 4804     		se_li %r4,0
 191 001e 0175     		se_mr %r5,%r7
 192              	.LVL16:
 193 0020 4886     		se_li %r6,8
 194 0022 18E18038 		e_addi %r7,%r1,56
 195              	.LVL17:
 196 0026 1901800C 		e_addi %r8,%r1,12
 197 002a 78000001 		e_bl FlashProgram
 198              	.LVL18:
 199              		.loc 1 167 0
 200 002e 4887     		se_li %r7,8
 201              		.loc 1 156 0
 202 0030 2A03     		se_cmpi %r3,0
 203 0032 7A02002E 		e_bne %cr0,.L13
 204              		.loc 1 158 0 discriminator 1
 205 0036 73E0E000 		e_lis %r31,ssdConfig@ha
 206 003a 1FFF0000 		e_la %r31,ssdConfig@l(%r31)
 207 003e 62EE     		se_bgeni %r30,14
 208              	.LVL19:
 209              	.L17:
 210 0040 01F3     		se_mr %r3,%r31
 211 0042 4804     		se_li %r4,0
 212 0044 18A18008 		e_addi %r5,%r1,8
 213 0048 18C1800C 		e_addi %r6,%r1,12
 214 004c 78000001 		e_bl FlashCheckStatus
 215              	.LVL20:
 216 0050 0CE3     		se_cmp %r3,%r30
 217 0052 7A12FFEE 		e_beq %cr0,.L17
 218              		.loc 1 161 0
 219 0056 C271     		se_lwz %r7,8(%r1)
 220              		.loc 1 162 0
 221 0058 2A07     		se_cmpi %r7,0
 222 005a 4886     		se_li %r6,8
 223 005c 7CE7309E 		isel %r7,%r7,%r6,2
 224              	.L13:
 225              		.loc 1 172 0
 226 0060 0173     		se_mr %r3,%r7
 227 0062 5001004C 		e_lwz %r0,76(%r1)
 228 0066 0090     		se_mtlr %r0
GAS LISTING C:\Users\duchu\AppData\Local\Temp\ccOzxwtX.s 			page 5


 229              		.cfi_restore 65
 230 0068 1BC10840 		e_lmw %r30,64(%r1)
 231 006c 18218048 		e_addi %r1,%r1,72
 232              	.LCFI7:
 233              		.cfi_restore 31
 234              		.cfi_restore 30
 235              		.cfi_def_cfa_offset 0
 236              	.LVL21:
 237 0070 0004     		se_blr
 238              		.cfi_endproc
 239              	.LFE7:
 240              		.size	eeprom_lld_flashprogram64, .-eeprom_lld_flashprogram64
 241              		.section	.text.eeprom_lld_blankcheck,"axv",@progbits
 242              		.align 1
 243              		.p2align 4,,15
 244              		.globl eeprom_lld_blankcheck
 245              		.type	eeprom_lld_blankcheck, @function
 246              	eeprom_lld_blankcheck:
 247              	.LFB8:
 248              		.loc 1 185 0
 249              		.cfi_startproc
 250              	.LVL22:
 251 0000 182106C8 		e_stwu %r1,-56(%r1)
 252              	.LCFI8:
 253              		.cfi_def_cfa_offset 56
 254 0004 0080     		se_mflr %r0
 255 0006 DF01     		se_stw %r0,60(%r1)
 256              		.cfi_offset 65, 4
 257 0008 0137     		se_mr %r7,%r3
 258 000a 0145     		se_mr %r5,%r4
 259              		.loc 1 191 0
 260 000c 7060E000 		e_lis %r3,ssdConfig@ha
 261              	.LVL23:
 262 0010 1C630000 		e_la %r3,ssdConfig@l(%r3)
 263 0014 0174     		se_mr %r4,%r7
 264              	.LVL24:
 265 0016 18C18008 		e_addi %r6,%r1,8
 266 001a 18E1800C 		e_addi %r7,%r1,12
 267              	.LVL25:
 268 001e 19018010 		e_addi %r8,%r1,16
 269 0022 78000001 		e_bl BlankCheck
 270              	.LVL26:
 271              		.loc 1 197 0
 272 0026 2A03     		se_cmpi %r3,0
 273 0028 4907     		se_li %r7,16
 274 002a 7C60389E 		isel %r3,0,%r7,2
 275              	.LVL27:
 276              		.loc 1 198 0
 277 002e CF01     		se_lwz %r0,60(%r1)
 278 0030 0090     		se_mtlr %r0
 279              		.cfi_restore 65
 280 0032 18218038 		e_addi %r1,%r1,56
 281              	.LCFI9:
 282              		.cfi_def_cfa_offset 0
 283 0036 0004     		se_blr
 284              		.cfi_endproc
 285              	.LFE8:
GAS LISTING C:\Users\duchu\AppData\Local\Temp\ccOzxwtX.s 			page 6


 286              		.size	eeprom_lld_blankcheck, .-eeprom_lld_blankcheck
 287              		.section	".text","axv"
 288              	.Letext0:
 289              		.file 2 "./components/flash_driver/lib/include/ssd_types.h"
 290              		.file 3 "./components/flash_driver/lib/include/ssd_c55.h"
 291              		.file 4 "c:\\spc5studio\\eclipse\\plugins\\com.st.tools.spc5.tools.gnu.gcc.ppcvle.win32_4.9.4.2019
 292              		.file 5 "c:\\spc5studio\\eclipse\\plugins\\com.st.tools.spc5.tools.gnu.gcc.ppcvle.win32_4.9.4.2019
 293              		.file 6 "./components/eeprom_emulation_driver/cfg/eeprom_lld_cfg.h"