GAS LISTING C:\Users\duchu\AppData\Local\Temp\ccTp7ZJM.s 			page 1


   1              		.file	"eeprom.c"
   2              		.section	".text","axv"
   3              	.Ltext0:
   4              		.cfi_sections	.debug_frame
   5              		.section	.text.eeprom_init,"axv",@progbits
   6              		.align 1
   7              		.p2align 4,,15
   8              		.globl eeprom_init
   9              		.type	eeprom_init, @function
  10              	eeprom_init:
  11              	.LFB4:
  12              		.file 1 "./components/eeprom_emulation_driver/lib/src/eeprom.c"
  13              		.loc 1 56 0
  14              		.cfi_startproc
  15              		.loc 1 59 0
  16 0000 70A0E000 		e_lis %r5,.LANCHOR0@ha
  17 0004 1CE50000 		e_la %r7,.LANCHOR0@l(%r5)
  18 0008 4806     		se_li %r6,0
  19 000a 54C50000 		e_stw %r6,.LANCHOR0@l(%r5)
  20              		.loc 1 60 0
  21 000e 9567     		se_stb %r6,5(%r7)
  22              		.loc 1 61 0
  23 0010 2C05     		se_bmaski %r5,0
  24 0012 9457     		se_stb %r5,4(%r7)
  25              		.loc 1 62 0
  26 0014 D267     		se_stw %r6,8(%r7)
  27 0016 0004     		se_blr
  28              		.cfi_endproc
  29              	.LFE4:
  30              		.size	eeprom_init, .-eeprom_init
  31              		.globl __ucmpdi2
  32              		.section	.text.eeprom_start,"axv",@progbits
  33              		.align 1
  34              		.p2align 4,,15
  35              		.globl eeprom_start
  36              		.type	eeprom_start, @function
  37              	eeprom_start:
  38              	.LFB5:
  39              		.loc 1 78 0
  40              		.cfi_startproc
  41              	.LVL0:
  42 0000 182106B8 		e_stwu %r1,-72(%r1)
  43              	.LCFI0:
  44              		.cfi_def_cfa_offset 72
  45 0004 0080     		se_mflr %r0
  46 0006 5401004C 		e_stw %r0,76(%r1)
  47 000a 1A010908 		e_stmw %r16,8(%r1)
  48              		.cfi_offset 65, 4
  49              		.cfi_offset 16, -64
  50              		.cfi_offset 17, -60
  51              		.cfi_offset 18, -56
  52              		.cfi_offset 19, -52
  53              		.cfi_offset 20, -48
  54              		.cfi_offset 21, -44
  55              		.cfi_offset 22, -40
  56              		.cfi_offset 23, -36
  57              		.cfi_offset 24, -32
GAS LISTING C:\Users\duchu\AppData\Local\Temp\ccTp7ZJM.s 			page 2


  58              		.cfi_offset 25, -28
  59              		.cfi_offset 26, -24
  60              		.cfi_offset 27, -20
  61              		.cfi_offset 28, -16
  62              		.cfi_offset 29, -12
  63              		.cfi_offset 30, -8
  64              		.cfi_offset 31, -4
  65 000e 013D     		se_mr %r29,%r3
  66              		.loc 1 92 0
  67 0010 D043     		se_stw %r4,0(%r3)
  68              		.loc 1 95 0
  69 0012 78000001 		e_bl eeprom_lld_flashinit
  70              	.LVL1:
  71              		.loc 1 97 0
  72 0016 4817     		se_li %r7,1
  73              		.loc 1 96 0
  74 0018 013C     		se_mr %r28,%r3
  75 001a 2A0C     		se_cmpi %r28,0
  76 001c 7A020204 		e_bne %cr0,.L28
  77              	.LVL2:
  78              		.loc 1 100 0 discriminator 1
  79 0020 C06D     		se_lwz %r6,0(%r29)
  80 0022 8076     		se_lbz %r7,0(%r6)
  81 0024 2A07     		se_cmpi %r7,0
  82 0026 7A1201EC 		e_beq %cr0,.L4
  83              		.loc 1 100 0 is_stmt 0
  84 002a 480F     		se_li %r31,0
  85              		.loc 1 108 0 is_stmt 1
  86 002c 2D0B     		se_bmaski %r27,16
  87              	.LVL3:
  88              	.L6:
  89              		.loc 1 102 0
  90 002e 7FFE1070 		e_slwi %r30,%r31,2
  91 0032 7FE72070 		e_slwi %r7,%r31,4
  92 0036 077E     		se_subf %r30, %r7
  93 0038 C176     		se_lwz %r7,4(%r6)
  94 003a 04E7     		se_add %r7,%r30
  95 003c 8937     		se_lbz %r3,9(%r7)
  96              	.LVL4:
  97 003e 8847     		se_lbz %r4,8(%r7)
  98 0040 78000001 		e_bl eeprom_lld_unlock
  99              	.LVL5:
 100              		.loc 1 103 0
 101 0044 2A03     		se_cmpi %r3,0
 102 0046 7A0201BA 		e_bne %cr0,.L24
 103              		.loc 1 107 0
 104 004a C07D     		se_lwz %r7,0(%r29)
 105 004c C177     		se_lwz %r7,4(%r7)
 106 004e 7CE7F02E 		lwzx %r7,%r7,%r30
 107 0052 C067     		se_lwz %r6,0(%r7)
 108 0054 C177     		se_lwz %r7,4(%r7)
 109              	.LVL6:
 110              		.loc 1 108 0
 111 0056 2A06     		se_cmpi %r6,0
 112 0058 7A02000C 		e_bne %cr0,.L5
 113 005c 0CB7     		se_cmp %r7,%r27
 114 005e 7A020006 		e_bne %cr0,.L5
GAS LISTING C:\Users\duchu\AppData\Local\Temp\ccTp7ZJM.s 			page 3


 115              		.loc 1 109 0
 116 0062 94FD     		se_stb %r31,4(%r29)
 117              	.L5:
 118              		.loc 1 100 0 discriminator 2
 119 0064 200F     		se_addi %r31,1
 120              	.LVL7:
 121 0066 00CF     		se_extzb %r31
 122              	.LVL8:
 123 0068 C06D     		se_lwz %r6,0(%r29)
 124              	.LVL9:
 125 006a 8076     		se_lbz %r7,0(%r6)
 126 006c 0DF7     		se_cmpl %r7,%r31
 127 006e 7A11FFC0 		e_bgt %cr0,.L6
 128              		.loc 1 114 0
 129 0072 847D     		se_lbz %r7,4(%r29)
 130 0074 7007A8FF 		e_cmpl16i %r7,255
 131 0078 7A020064 		e_bne %cr0,.L7
 132              	.LVL10:
 133              		.loc 1 117 0 discriminator 1
 134 007c 8076     		se_lbz %r7,0(%r6)
 135 007e 2A07     		se_cmpi %r7,0
 136 0080 7A120032 		e_beq %cr0,.L8
 137              		.loc 1 117 0 is_stmt 0
 138 0084 480F     		se_li %r31,0
 139              	.LVL11:
 140              	.L9:
 141              		.loc 1 118 0 is_stmt 1
 142 0086 7FE71070 		e_slwi %r7,%r31,2
 143 008a 7FE42070 		e_slwi %r4,%r31,4
 144 008e 7CA72050 		subf %r5, %r7, %r4
 145 0092 C176     		se_lwz %r7,4(%r6)
 146 0094 0457     		se_add %r7,%r5
 147 0096 8937     		se_lbz %r3,9(%r7)
 148              	.LVL12:
 149 0098 8847     		se_lbz %r4,8(%r7)
 150 009a 78000001 		e_bl eeprom_lld_flasherase
 151              	.LVL13:
 152              		.loc 1 119 0
 153 009e 2A03     		se_cmpi %r3,0
 154 00a0 7A020166 		e_bne %cr0,.L25
 155              		.loc 1 117 0 discriminator 2
 156 00a4 200F     		se_addi %r31,1
 157              	.LVL14:
 158 00a6 00CF     		se_extzb %r31
 159              	.LVL15:
 160 00a8 C06D     		se_lwz %r6,0(%r29)
 161 00aa 8076     		se_lbz %r7,0(%r6)
 162 00ac 0DF7     		se_cmpl %r7,%r31
 163 00ae 7A11FFD8 		e_bgt %cr0,.L9
 164              	.LVL16:
 165              	.L8:
 166              		.loc 1 124 0
 167 00b2 C176     		se_lwz %r7,4(%r6)
 168              		.loc 1 126 0
 169 00b4 C037     		se_lwz %r3,0(%r7)
 170              	.LVL17:
 171 00b6 4805     		se_li %r5,0
GAS LISTING C:\Users\duchu\AppData\Local\Temp\ccTp7ZJM.s 			page 4


 172 00b8 2D06     		se_bmaski %r6,16
 173              	.LVL18:
 174 00ba 78000001 		e_bl eeprom_lld_flashprogram64
 175              	.LVL19:
 176              		.loc 1 128 0
 177 00be 4887     		se_li %r7,8
 178              		.loc 1 127 0
 179 00c0 2A03     		se_cmpi %r3,0
 180 00c2 7A02015E 		e_bne %cr0,.L28
 181              		.loc 1 131 0
 182 00c6 4807     		se_li %r7,0
 183 00c8 947D     		se_stb %r7,4(%r29)
 184              		.loc 1 133 0
 185 00ca C07D     		se_lwz %r7,0(%r29)
 186 00cc C177     		se_lwz %r7,4(%r7)
 187 00ce C177     		se_lwz %r7,4(%r7)
 188 00d0 18E784F0 		e_addi %r7,%r7,-16
 189 00d4 D27D     		se_stw %r7,8(%r29)
 190              	.LVL20:
 191              		.loc 1 134 0
 192 00d6 620C     		se_bgeni %r28,0
 193 00d8 7800011E 		e_b .L10
 194              	.LVL21:
 195              	.L7:
 196              		.loc 1 142 0
 197 00dc 7CE51070 		e_slwi %r5,%r7,2
 198 00e0 6C47     		se_slwi %r7, 4
 199 00e2 0657     		se_sub %r7, %r5
 200 00e4 C156     		se_lwz %r5,4(%r6)
 201 00e6 0475     		se_add %r5,%r7
 202 00e8 C155     		se_lwz %r5,4(%r5)
 203 00ea 18A584F0 		e_addi %r5,%r5,-16
 204 00ee D25D     		se_stw %r5,8(%r29)
 205              		.loc 1 143 0
 206 00f0 C166     		se_lwz %r6,4(%r6)
 207 00f2 7EE6382E 		lwzx %r23,%r6,%r7
 208 00f6 1AF78010 		e_addi %r23,%r23,16
 209              	.LVL22:
 210              		.loc 1 148 0
 211 00fa 72800000 		e_li %r20,0
 212 00fe 729FC7FF 		e_or2i %r20,65535
 213              		.loc 1 151 0
 214 0102 73407800 		e_li %r26,-65536
 215 0106 73C07800 		e_li %r30,-65536
 216 010a 480F     		se_li %r31,0
 217 010c 2C0B     		se_bmaski %r27,0
 218              		.loc 1 158 0
 219 010e 72000000 		e_li %r16,0
 220 0112 721FC7FF 		e_or2i %r16,65535
 221 0116 72200000 		e_li %r17,0
 222              		.loc 1 144 0
 223 011a 780000B8 		e_b .L11
 224              	.LVL23:
 225              	.L22:
 226              		.loc 1 145 0
 227 011e 53170000 		e_lwz %r24,0(%r23)
 228 0122 53370004 		e_lwz %r25,4(%r23)
GAS LISTING C:\Users\duchu\AppData\Local\Temp\ccTp7ZJM.s 			page 5


 229              	.LVL24:
 230              		.loc 1 147 0
 231 0126 52770008 		e_lwz %r19,8(%r23)
 232              	.LVL25:
 233              		.loc 1 148 0
 234 012a 7E73A038 		and %r19,%r19,%r20
 235              	.LVL26:
 236              		.loc 1 149 0
 237 012e 7666043F 		e_rlwinm %r6,%r19,0,0xffff
 238 0132 18C7C00F 		e_andi %r7,%r6,15
 239 0136 2A07     		se_cmpi %r7,0
 240 0138 7A12000C 		e_beq %cr0,.L12
 241              		.loc 1 149 0 is_stmt 0 discriminator 2
 242 013c 74D30437 		e_rlwinm %r19,%r6,0,16,27
 243              	.LVL27:
 244 0140 1A738010 		e_addi %r19,%r19,16
 245              	.L12:
 246              	.LVL28:
 247              		.loc 1 151 0 is_stmt 1 discriminator 4
 248 0144 0CA8     		se_cmp %r24,%r26
 249 0146 7A02000A 		e_bne %cr0,.L15
 250 014a 2A09     		se_cmpi %r25,0
 251 014c 7A12003E 		e_beq %cr0,.L14
 252              	.L15:
 253 0150 0183     		se_mr %r3,%r24
 254 0152 0194     		se_mr %r4,%r25
 255 0154 01E5     		se_mr %r5,%r30
 256 0156 01F6     		se_mr %r6,%r31
 257 0158 78000001 		e_bl __ucmpdi2
 258              	.LVL29:
 259 015c 2203     		se_cmpli %r3,1
 260 015e 7A110010 		e_bgt %cr0,.L16
 261 0162 7F07CB79 		or. %r7,%r24,%r25
 262 0166 7A120024 		e_beq %cr0,.L14
 263 016a 7800005C 		e_b .L13
 264              	.L16:
 265 016e 0CB8     		se_cmp %r24,%r27
 266 0170 7A02000A 		e_bne %cr0,.L18
 267 0174 0CA9     		se_cmp %r25,%r26
 268 0176 7A120028 		e_beq %cr0,.L31
 269              	.L18:
 270 017a 0CB8     		se_cmp %r24,%r27
 271 017c 7A02004A 		e_bne %cr0,.L13
 272 0180 0CB9     		se_cmp %r25,%r27
 273 0182 7A12003C 		e_beq %cr0,.L32
 274 0186 78000040 		e_b .L13
 275              	.L14:
 276              		.loc 1 150 0
 277 018a 1A738010 		e_addi %r19,%r19,16
 278              	.LVL30:
 279              		.loc 1 154 0
 280 018e C27D     		se_lwz %r7,8(%r29)
 281 0190 7CF33850 		subf %r7, %r19, %r7
 282 0194 D27D     		se_stw %r7,8(%r29)
 283              		.loc 1 155 0
 284 0196 7EF79A14 		add %r23,%r23,%r19
 285              	.LVL31:
GAS LISTING C:\Users\duchu\AppData\Local\Temp\ccTp7ZJM.s 			page 6


 286              		.loc 1 156 0
 287 019a 78000038 		e_b .L11
 288              	.LVL32:
 289              	.L31:
 290              		.loc 1 158 0
 291 019e 03F3     		se_mfar %r3,%r23
 292 01a0 0385     		se_mfar %r5,%r16
 293 01a2 0396     		se_mfar %r6,%r17
 294 01a4 78000001 		e_bl eeprom_lld_flashprogram64
 295              	.LVL33:
 296              		.loc 1 159 0
 297 01a8 2A03     		se_cmpi %r3,0
 298 01aa 7A020062 		e_bne %cr0,.L27
 299              		.loc 1 162 0
 300 01ae C27D     		se_lwz %r7,8(%r29)
 301 01b0 18E784F0 		e_addi %r7,%r7,-16
 302 01b4 D27D     		se_stw %r7,8(%r29)
 303              		.loc 1 163 0
 304 01b6 1AF78010 		e_addi %r23,%r23,16
 305              	.LVL34:
 306              		.loc 1 164 0
 307 01ba 78000018 		e_b .L11
 308              	.LVL35:
 309              	.L32:
 310              		.loc 1 166 0
 311 01be 1AF78010 		e_addi %r23,%r23,16
 312              	.LVL36:
 313              		.loc 1 167 0
 314 01c2 78000010 		e_b .L11
 315              	.LVL37:
 316              	.L13:
 317              		.loc 1 169 0
 318 01c6 C27D     		se_lwz %r7,8(%r29)
 319 01c8 18E784F0 		e_addi %r7,%r7,-16
 320 01cc D27D     		se_stw %r7,8(%r29)
 321              		.loc 1 170 0
 322 01ce 1AF78010 		e_addi %r23,%r23,16
 323              	.LVL38:
 324              	.L11:
 325              		.loc 1 144 0
 326 01d2 C05D     		se_lwz %r5,0(%r29)
 327 01d4 846D     		se_lbz %r6,4(%r29)
 328 01d6 7CC71070 		e_slwi %r7,%r6,2
 329 01da 6C46     		se_slwi %r6, 4
 330 01dc 0767     		se_subf %r7, %r6
 331 01de C155     		se_lwz %r5,4(%r5)
 332 01e0 7CC53A14 		add %r6,%r5,%r7
 333 01e4 C166     		se_lwz %r6,4(%r6)
 334 01e6 7CE5382E 		lwzx %r7,%r5,%r7
 335 01ea 7CE63A14 		add %r7,%r6,%r7
 336 01ee 7C173840 		cmpl %cr0,%r23,%r7
 337 01f2 7A10FF2C 		e_blt %cr0,.L22
 338              	.LVL39:
 339              	.L10:
 340              		.loc 1 176 0
 341 01f6 4817     		se_li %r7,1
 342 01f8 957D     		se_stb %r7,5(%r29)
GAS LISTING C:\Users\duchu\AppData\Local\Temp\ccTp7ZJM.s 			page 7


 343              		.loc 1 177 0
 344 01fa 01C7     		se_mr %r7,%r28
 345 01fc 78000024 		e_b .L28
 346              	.LVL40:
 347              	.L24:
 348              		.loc 1 104 0
 349 0200 4827     		se_li %r7,2
 350 0202 7800001E 		e_b .L28
 351              	.L25:
 352              		.loc 1 120 0
 353 0206 4847     		se_li %r7,4
 354 0208 78000018 		e_b .L28
 355              	.LVL41:
 356              	.L27:
 357              		.loc 1 160 0
 358 020c 4887     		se_li %r7,8
 359 020e 78000012 		e_b .L28
 360              	.LVL42:
 361              	.L4:
 362              		.loc 1 114 0
 363 0212 847D     		se_lbz %r7,4(%r29)
 364 0214 7007A8FF 		e_cmpl16i %r7,255
 365 0218 7A02FEC4 		e_bne %cr0,.L7
 366 021c 79FFFE96 		e_b .L8
 367              	.LVL43:
 368              	.L28:
 369              		.loc 1 179 0
 370 0220 0173     		se_mr %r3,%r7
 371 0222 5001004C 		e_lwz %r0,76(%r1)
 372 0226 0090     		se_mtlr %r0
 373              		.cfi_restore 65
 374 0228 1A010808 		e_lmw %r16,8(%r1)
 375              	.LVL44:
 376 022c 18218048 		e_addi %r1,%r1,72
 377              	.LCFI1:
 378              		.cfi_restore 31
 379              		.cfi_restore 30
 380              		.cfi_restore 29
 381              		.cfi_restore 28
 382              		.cfi_restore 27
 383              		.cfi_restore 26
 384              		.cfi_restore 25
 385              		.cfi_restore 24
 386              		.cfi_restore 23
 387              		.cfi_restore 22
 388              		.cfi_restore 21
 389              		.cfi_restore 20
 390              		.cfi_restore 19
 391              		.cfi_restore 18
 392              		.cfi_restore 17
 393              		.cfi_restore 16
 394              		.cfi_def_cfa_offset 0
 395 0230 0004     		se_blr
 396              		.cfi_endproc
 397              	.LFE5:
 398              		.size	eeprom_start, .-eeprom_start
 399              		.section	.text.eeprom_remove,"axv",@progbits
GAS LISTING C:\Users\duchu\AppData\Local\Temp\ccTp7ZJM.s 			page 8


 400              		.align 1
 401              		.p2align 4,,15
 402              		.globl eeprom_remove
 403              		.type	eeprom_remove, @function
 404              	eeprom_remove:
 405              	.LFB6:
 406              		.loc 1 193 0
 407              		.cfi_startproc
 408              	.LVL45:
 409 0000 182106F0 		e_stwu %r1,-16(%r1)
 410              	.LCFI2:
 411              		.cfi_def_cfa_offset 16
 412 0004 0080     		se_mflr %r0
 413 0006 D501     		se_stw %r0,20(%r1)
 414 0008 1BC10908 		e_stmw %r30,8(%r1)
 415              		.cfi_offset 65, 4
 416              		.cfi_offset 30, -8
 417              		.cfi_offset 31, -4
 418 000c 0137     		se_mr %r7,%r3
 419              		.loc 1 198 0
 420 000e 8563     		se_lbz %r6,5(%r3)
 421              		.loc 1 199 0
 422 0010 4903     		se_li %r3,16
 423              	.LVL46:
 424              		.loc 1 198 0
 425 0012 2A16     		se_cmpi %r6,1
 426 0014 7A02005A 		e_bne %cr0,.L34
 427              	.LVL47:
 428              		.loc 1 203 0 discriminator 1
 429 0018 C047     		se_lwz %r4,0(%r7)
 430 001a 8064     		se_lbz %r6,0(%r4)
 431 001c 2A06     		se_cmpi %r6,0
 432 001e 7A120034 		e_beq %cr0,.L35
 433 0022 017E     		se_mr %r30,%r7
 434              		.loc 1 203 0 is_stmt 0
 435 0024 480F     		se_li %r31,0
 436              	.LVL48:
 437              	.L36:
 438              		.loc 1 204 0 is_stmt 1
 439 0026 7FE71070 		e_slwi %r7,%r31,2
 440 002a 7FE52070 		e_slwi %r5,%r31,4
 441 002e 7CC72850 		subf %r6, %r7, %r5
 442 0032 C174     		se_lwz %r7,4(%r4)
 443 0034 0467     		se_add %r7,%r6
 444 0036 8937     		se_lbz %r3,9(%r7)
 445 0038 8847     		se_lbz %r4,8(%r7)
 446 003a 78000001 		e_bl eeprom_lld_flasherase
 447              	.LVL49:
 448              		.loc 1 205 0
 449 003e 2A03     		se_cmpi %r3,0
 450 0040 7A02002C 		e_bne %cr0,.L38
 451              		.loc 1 203 0 discriminator 2
 452 0044 200F     		se_addi %r31,1
 453              	.LVL50:
 454 0046 00CF     		se_extzb %r31
 455              	.LVL51:
 456 0048 C04E     		se_lwz %r4,0(%r30)
GAS LISTING C:\Users\duchu\AppData\Local\Temp\ccTp7ZJM.s 			page 9


 457 004a 8074     		se_lbz %r7,0(%r4)
 458 004c 0DF7     		se_cmpl %r7,%r31
 459 004e 7A11FFD8 		e_bgt %cr0,.L36
 460              	.LVL52:
 461              	.L35:
 462              		.loc 1 209 0
 463 0052 70A0E000 		e_lis %r5,.LANCHOR0@ha
 464 0056 1CE50000 		e_la %r7,.LANCHOR0@l(%r5)
 465 005a 4806     		se_li %r6,0
 466 005c 54C50000 		e_stw %r6,.LANCHOR0@l(%r5)
 467              		.loc 1 210 0
 468 0060 9567     		se_stb %r6,5(%r7)
 469              		.loc 1 211 0
 470 0062 2C06     		se_bmaski %r6,0
 471 0064 9467     		se_stb %r6,4(%r7)
 472              		.loc 1 212 0
 473 0066 4803     		se_li %r3,0
 474 0068 78000006 		e_b .L34
 475              	.LVL53:
 476              	.L38:
 477              		.loc 1 206 0
 478 006c 4843     		se_li %r3,4
 479              	.LVL54:
 480              	.L34:
 481              		.loc 1 213 0
 482 006e C501     		se_lwz %r0,20(%r1)
 483 0070 0090     		se_mtlr %r0
 484              		.cfi_restore 65
 485 0072 1BC10808 		e_lmw %r30,8(%r1)
 486 0076 20F1     		se_addi %r1,16
 487              	.LCFI3:
 488              		.cfi_restore 31
 489              		.cfi_restore 30
 490              		.cfi_def_cfa_offset 0
 491 0078 0004     		se_blr
 492              		.cfi_endproc
 493              	.LFE6:
 494              		.size	eeprom_remove, .-eeprom_remove
 495              		.section	.text.eeprom_searchID,"axv",@progbits
 496              		.align 1
 497              		.p2align 4,,15
 498              		.globl eeprom_searchID
 499              		.type	eeprom_searchID, @function
 500              	eeprom_searchID:
 501              	.LFB8:
 502              		.loc 1 378 0
 503              		.cfi_startproc
 504              	.LVL55:
 505 0000 182106E8 		e_stwu %r1,-24(%r1)
 506              	.LCFI4:
 507              		.cfi_def_cfa_offset 24
 508 0004 1B810908 		e_stmw %r28,8(%r1)
 509              		.cfi_offset 28, -16
 510              		.cfi_offset 29, -12
 511              		.cfi_offset 30, -8
 512              		.cfi_offset 31, -4
 513              		.loc 1 387 0
GAS LISTING C:\Users\duchu\AppData\Local\Temp\ccTp7ZJM.s 			page 10


 514 0008 C0F3     		se_lwz %r31,0(%r3)
 515 000a 8433     		se_lbz %r3,4(%r3)
 516              	.LVL56:
 517 000c 7C671070 		e_slwi %r7,%r3,2
 518 0010 6C43     		se_slwi %r3, 4
 519 0012 0737     		se_subf %r7, %r3
 520 0014 C13F     		se_lwz %r3,4(%r31)
 521 0016 7FE33A14 		add %r31,%r3,%r7
 522 001a 7C63382E 		lwzx %r3,%r3,%r7
 523 001e 18E38010 		e_addi %r7,%r3,16
 524              	.LVL57:
 525              		.loc 1 390 0
 526 0022 C1DF     		se_lwz %r29,4(%r31)
 527 0024 7FA3EA14 		add %r29,%r3,%r29
 528              		.loc 1 395 0
 529 0028 71400000 		e_li %r10,0
 530 002c 715FC7FF 		e_or2i %r10,65535
 531              		.loc 1 399 0
 532 0030 73807800 		e_li %r28,-65536
 533              		.loc 1 390 0
 534 0034 7800005A 		e_b .L41
 535              	.L48:
 536              		.loc 1 391 0
 537 0038 C0E7     		se_lwz %r30,0(%r7)
 538 003a C1F7     		se_lwz %r31,4(%r7)
 539              	.LVL58:
 540              		.loc 1 393 0
 541 003c C207     		se_lwz %r0,8(%r7)
 542              	.LVL59:
 543              		.loc 1 395 0
 544 003e 7C095038 		and %r9,%r0,%r10
 545              	.LVL60:
 546              		.loc 1 396 0
 547 0042 180BC00F 		e_andi %r11,%r0,15
 548              		.loc 1 395 0
 549 0046 0313     		se_mfar %r3,%r9
 550              		.loc 1 396 0
 551 0048 700B9800 		e_cmp16i %r11,0
 552 004c 7A12000A 		e_beq %cr0,.L42
 553              		.loc 1 396 0 is_stmt 0 discriminator 1
 554 0050 75230437 		e_rlwinm %r3,%r9,0,16,27
 555 0054 20F3     		se_addi %r3,16
 556              	.L42:
 557              	.LVL61:
 558              		.loc 1 397 0 is_stmt 1 discriminator 4
 559 0056 20F3     		se_addi %r3,16
 560              	.LVL62:
 561              		.loc 1 399 0 discriminator 4
 562 0058 0CCE     		se_cmp %r30,%r28
 563 005a 7A020024 		e_bne %cr0,.L43
 564 005e 2A0F     		se_cmpi %r31,0
 565 0060 7A02001E 		e_bne %cr0,.L43
 566              		.loc 1 400 0
 567 0064 6900     		se_srwi %r0,16
 568              	.LVL63:
 569 0066 0C40     		se_cmp %r0,%r4
 570 0068 7A020010 		e_bne %cr0,.L44
GAS LISTING C:\Users\duchu\AppData\Local\Temp\ccTp7ZJM.s 			page 11


 571              		.loc 1 401 0
 572 006c D075     		se_stw %r7,0(%r5)
 573              		.loc 1 402 0
 574 006e 5D260000 		e_sth %r9,0(%r6)
 575              		.loc 1 403 0
 576 0072 4803     		se_li %r3,0
 577              	.LVL64:
 578 0074 78000022 		e_b .L45
 579              	.LVL65:
 580              	.L44:
 581              		.loc 1 406 0
 582 0078 0437     		se_add %r7,%r3
 583              	.LVL66:
 584 007a 78000014 		e_b .L41
 585              	.LVL67:
 586              	.L43:
 587              		.loc 1 410 0
 588 007e 7D671A14 		add %r11,%r7,%r3
 589 0082 18678010 		e_addi %r3,%r7,16
 590              	.LVL68:
 591 0086 7FC7FB79 		or. %r7,%r30,%r31
 592              	.LVL69:
 593 008a 7CEB189E 		isel %r7,%r11,%r3,2
 594              	.LVL70:
 595              	.L41:
 596              		.loc 1 390 0
 597 008e 0DD7     		se_cmpl %r7,%r29
 598 0090 7A10FFA8 		e_blt %cr0,.L48
 599              		.loc 1 417 0
 600 0094 4A03     		se_li %r3,32
 601              	.L45:
 602              		.loc 1 418 0
 603 0096 1B810808 		e_lmw %r28,8(%r1)
 604 009a 2171     		se_addi %r1,24
 605              	.LCFI5:
 606              		.cfi_restore 31
 607              		.cfi_restore 30
 608              		.cfi_restore 29
 609              		.cfi_restore 28
 610              		.cfi_def_cfa_offset 0
 611 009c 0004     		se_blr
 612              		.cfi_endproc
 613              	.LFE8:
 614              		.size	eeprom_searchID, .-eeprom_searchID
 615              		.section	.text.eeprom_read,"axv",@progbits
 616              		.align 1
 617              		.p2align 4,,15
 618              		.globl eeprom_read
 619              		.type	eeprom_read, @function
 620              	eeprom_read:
 621              	.LFB9:
 622              		.loc 1 433 0
 623              		.cfi_startproc
 624              	.LVL71:
 625 0000 182106E0 		e_stwu %r1,-32(%r1)
 626              	.LCFI6:
 627              		.cfi_def_cfa_offset 32
GAS LISTING C:\Users\duchu\AppData\Local\Temp\ccTp7ZJM.s 			page 12


 628 0004 0080     		se_mflr %r0
 629 0006 D901     		se_stw %r0,36(%r1)
 630 0008 1BC10918 		e_stmw %r30,24(%r1)
 631              		.cfi_offset 65, 4
 632              		.cfi_offset 30, -8
 633              		.cfi_offset 31, -4
 634 000c 0233     		se_mtar %r11,%r3
 635              		.loc 1 442 0
 636 000e 8473     		se_lbz %r7,4(%r3)
 637              		.loc 1 443 0
 638 0010 4903     		se_li %r3,16
 639              	.LVL72:
 640              		.loc 1 442 0
 641 0012 700798FF 		e_cmp16i %r7,255
 642 0016 7A120060 		e_beq %cr0,.L51
 643              		.loc 1 442 0 is_stmt 0 discriminator 1
 644 001a 30EB0005 		e_lbz %r7,5(%r11)
 645 001e 2A07     		se_cmpi %r7,0
 646 0020 7A120056 		e_beq %cr0,.L51
 647 0024 016E     		se_mr %r30,%r6
 648 0026 015F     		se_mr %r31,%r5
 649 0028 0333     		se_mfar %r3,%r11
 650              		.loc 1 446 0 is_stmt 1
 651 002a 18A1800C 		e_addi %r5,%r1,12
 652              	.LVL73:
 653 002e 18C18008 		e_addi %r6,%r1,8
 654              	.LVL74:
 655 0032 78000001 		e_bl eeprom_searchID
 656              	.LVL75:
 657 0036 2A03     		se_cmpi %r3,0
 658 0038 7A02003C 		e_bne %cr0,.L55
 659              		.loc 1 450 0
 660 003c C341     		se_lwz %r4,12(%r1)
 661 003e 18E48010 		e_addi %r7,%r4,16
 662              	.LVL76:
 663              		.loc 1 451 0
 664 0042 A451     		se_lhz %r5,8(%r1)
 665 0044 D05F     		se_stw %r5,0(%r31)
 666              	.LVL77:
 667              		.loc 1 452 0
 668 0046 2A05     		se_cmpi %r5,0
 669 0048 7A12002E 		e_beq %cr0,.L51
 670 004c 18C48011 		e_addi %r6,%r4,17
 671 0050 18A584FF 		e_addi %r5,%r5,-1
 672 0054 00E5     		se_extzh %r5
 673 0056 7CA62A14 		add %r5,%r6,%r5
 674 005a 18C4B4F0 		e_subfic %r6, %r4, -16
 675 005e 04E6     		se_add %r6,%r30
 676 0060 0675     		se_sub %r5, %r7
 677 0062 00B5     		se_mtctr %r5
 678              	.LVL78:
 679              	.L52:
 680              		.loc 1 454 0 discriminator 3
 681 0064 8057     		se_lbz %r5,0(%r7)
 682 0066 7CA639AE 		stbx %r5,%r6,%r7
 683 006a 2007     		se_addi %r7,1
 684              	.LVL79:
GAS LISTING C:\Users\duchu\AppData\Local\Temp\ccTp7ZJM.s 			page 13


 685              		.loc 1 452 0 discriminator 3
 686 006c 7A20FFF8 		e_bdnz .L52
 687 0070 78000006 		e_b .L51
 688              	.LVL80:
 689              	.L55:
 690              		.loc 1 447 0
 691 0074 4A03     		se_li %r3,32
 692              	.LVL81:
 693              	.L51:
 694              		.loc 1 458 0
 695 0076 C901     		se_lwz %r0,36(%r1)
 696 0078 0090     		se_mtlr %r0
 697              		.cfi_restore 65
 698 007a 1BC10818 		e_lmw %r30,24(%r1)
 699 007e 21F1     		se_addi %r1,32
 700              	.LCFI7:
 701              		.cfi_restore 31
 702              		.cfi_restore 30
 703              		.cfi_def_cfa_offset 0
 704 0080 0004     		se_blr
 705              		.cfi_endproc
 706              	.LFE9:
 707              		.size	eeprom_read, .-eeprom_read
 708              		.section	.text.eeprom_blockswap,"axv",@progbits
 709              		.align 1
 710              		.p2align 4,,15
 711              		.globl eeprom_blockswap
 712              		.type	eeprom_blockswap, @function
 713              	eeprom_blockswap:
 714              	.LFB10:
 715              		.loc 1 474 0
 716              		.cfi_startproc
 717              	.LVL82:
 718 0000 182106B0 		e_stwu %r1,-80(%r1)
 719              	.LCFI8:
 720              		.cfi_def_cfa_offset 80
 721 0004 0080     		se_mflr %r0
 722 0006 54010054 		e_stw %r0,84(%r1)
 723 000a 1A61091C 		e_stmw %r19,28(%r1)
 724              		.cfi_offset 65, 4
 725              		.cfi_offset 19, -52
 726              		.cfi_offset 20, -48
 727              		.cfi_offset 21, -44
 728              		.cfi_offset 22, -40
 729              		.cfi_offset 23, -36
 730              		.cfi_offset 24, -32
 731              		.cfi_offset 25, -28
 732              		.cfi_offset 26, -24
 733              		.cfi_offset 27, -20
 734              		.cfi_offset 28, -16
 735              		.cfi_offset 29, -12
 736              		.cfi_offset 30, -8
 737              		.cfi_offset 31, -4
 738 000e 013A     		se_mr %r26,%r3
 739              		.loc 1 492 0
 740 0010 C053     		se_lwz %r5,0(%r3)
 741 0012 8493     		se_lbz %r25,4(%r3)
GAS LISTING C:\Users\duchu\AppData\Local\Temp\ccTp7ZJM.s 			page 14


 742 0014 18D98001 		e_addi %r6,%r25,1
 743 0018 8075     		se_lbz %r7,0(%r5)
 744 001a 7F263B96 		divwu %r25,%r6,%r7
 745 001e 0597     		se_mullw %r7,%r25
 746 0020 7EA73050 		subf %r21, %r7, %r6
 747              	.LVL83:
 748              		.loc 1 496 0
 749 0024 76A7063F 		e_rlwinm %r7,%r21,0,0xff
 750 0028 7CFB1070 		e_slwi %r27,%r7,2
 751 002c 6C47     		se_slwi %r7, 4
 752 002e 077B     		se_subf %r27, %r7
 753 0030 C175     		se_lwz %r7,4(%r5)
 754 0032 7CC7DA14 		add %r6,%r7,%r27
 755 0036 7C67D82E 		lwzx %r3,%r7,%r27
 756              	.LVL84:
 757 003a C146     		se_lwz %r4,4(%r6)
 758 003c 78000001 		e_bl eeprom_lld_blankcheck
 759              	.LVL85:
 760              		.loc 1 500 0
 761 0040 2A03     		se_cmpi %r3,0
 762 0042 7A12001A 		e_beq %cr0,.L58
 763              		.loc 1 501 0
 764 0046 C07A     		se_lwz %r7,0(%r26)
 765 0048 C177     		se_lwz %r7,4(%r7)
 766 004a 04B7     		se_add %r7,%r27
 767 004c 8937     		se_lbz %r3,9(%r7)
 768              	.LVL86:
 769 004e 8847     		se_lbz %r4,8(%r7)
 770 0050 78000001 		e_bl eeprom_lld_flasherase
 771              	.LVL87:
 772              		.loc 1 503 0
 773 0054 4847     		se_li %r7,4
 774              		.loc 1 502 0
 775 0056 2A03     		se_cmpi %r3,0
 776 0058 7A020154 		e_bne %cr0,.L59
 777              	.L58:
 778              		.loc 1 511 0
 779 005c C07A     		se_lwz %r7,0(%r26)
 780 005e C177     		se_lwz %r7,4(%r7)
 781 0060 7C67D82E 		lwzx %r3,%r7,%r27
 782              	.LVL88:
 783 0064 4805     		se_li %r5,0
 784 0066 2C06     		se_bmaski %r6,0
 785 0068 78000001 		e_bl eeprom_lld_flashprogram64
 786              	.LVL89:
 787              		.loc 1 513 0
 788 006c 4887     		se_li %r7,8
 789              		.loc 1 512 0
 790 006e 2A03     		se_cmpi %r3,0
 791 0070 7A02013C 		e_bne %cr0,.L59
 792              		.loc 1 516 0
 793 0074 C07A     		se_lwz %r7,0(%r26)
 794 0076 C167     		se_lwz %r6,4(%r7)
 795 0078 847A     		se_lbz %r7,4(%r26)
 796 007a 7CE51070 		e_slwi %r5,%r7,2
 797 007e 6C47     		se_slwi %r7, 4
 798 0080 0657     		se_sub %r7, %r5
GAS LISTING C:\Users\duchu\AppData\Local\Temp\ccTp7ZJM.s 			page 15


 799 0082 7C86382E 		lwzx %r4,%r6,%r7
 800 0086 20F4     		se_addi %r4,16
 801              	.LVL90:
 802              		.loc 1 517 0
 803 0088 7FC6D82E 		lwzx %r30,%r6,%r27
 804 008c 20FE     		se_addi %r30,16
 805              	.LVL91:
 806              		.loc 1 522 0
 807 008e 2D08     		se_bmaski %r24,16
 808              		.loc 1 525 0
 809 0090 72E07800 		e_li %r23,-65536
 810              		.loc 1 530 0
 811 0094 72C00000 		e_li %r22,0
 812              		.loc 1 531 0
 813 0098 2C0C     		se_bmaski %r28,0
 814 009a 2C0D     		se_bmaski %r29,0
 815 009c 1BE18008 		e_addi %r31,%r1,8
 816              		.loc 1 518 0
 817 00a0 780000A2 		e_b .L60
 818              	.LVL92:
 819              	.L71:
 820              		.loc 1 519 0
 821 00a4 51440000 		e_lwz %r10,0(%r4)
 822 00a8 51640004 		e_lwz %r11,4(%r4)
 823              	.LVL93:
 824              		.loc 1 521 0
 825 00ac C264     		se_lwz %r6,8(%r4)
 826              	.LVL94:
 827              		.loc 1 522 0
 828 00ae 7CC7C038 		and %r7,%r6,%r24
 829              	.LVL95:
 830              		.loc 1 523 0
 831 00b2 2EF6     		se_andi %r6,15
 832              	.LVL96:
 833 00b4 2A06     		se_cmpi %r6,0
 834 00b6 7A12000A 		e_beq %cr0,.L61
 835              		.loc 1 523 0 is_stmt 0 discriminator 1
 836 00ba 74E70437 		e_rlwinm %r7,%r7,0,16,27
 837              	.LVL97:
 838 00be 20F7     		se_addi %r7,16
 839              	.L61:
 840              	.LVL98:
 841              		.loc 1 524 0 is_stmt 1 discriminator 4
 842 00c0 20F7     		se_addi %r7,16
 843              	.LVL99:
 844              		.loc 1 525 0 discriminator 4
 845 00c2 7C0AC000 		cmp %cr0,%r10,%r24
 846 00c6 7A02000C 		e_bne %cr0,.L64
 847 00ca 700B9800 		e_cmp16i %r11,0
 848 00ce 7A120072 		e_beq %cr0,.L79
 849              	.L64:
 850 00d2 7C0AB800 		cmp %cr0,%r10,%r23
 851 00d6 7A02000C 		e_bne %cr0,.L66
 852 00da 700B9800 		e_cmp16i %r11,0
 853 00de 7A120018 		e_beq %cr0,.L80
 854              	.L66:
 855              		.loc 1 551 0 discriminator 4
GAS LISTING C:\Users\duchu\AppData\Local\Temp\ccTp7ZJM.s 			page 16


 856 00e2 18C48010 		e_addi %r6,%r4,16
 857 00e6 7CE43A14 		add %r7,%r4,%r7
 858              	.LVL100:
 859 00ea 7D455B79 		or. %r5,%r10,%r11
 860 00ee 7C87309E 		isel %r4,%r7,%r6,2
 861              	.LVL101:
 862 00f2 78000050 		e_b .L60
 863              	.LVL102:
 864              	.L80:
 865              		.loc 1 530 0
 866 00f6 7CF41C71 		e_srwi. %r20,%r7,3
 867              	.LVL103:
 868 00fa 7A120048 		e_beq %cr0,.L60
 869 00fe 03E9     		se_mfar %r25,%r22
 870              	.LVL104:
 871              	.L70:
 872              		.loc 1 531 0
 873 0100 D2C1     		se_stw %r28,8(%r1)
 874 0102 D3D1     		se_stw %r29,12(%r1)
 875              	.LVL105:
 876 0104 1A648008 		e_addi %r19,%r4,8
 877 0108 0147     		se_mr %r7,%r4
 878 010a 4886     		se_li %r6,8
 879 010c 00B6     		se_mtctr %r6
 880              	.LVL106:
 881              	.L69:
 882 010e 7CC43850 		subf %r6, %r4, %r7
 883              	.LVL107:
 884              		.loc 1 535 0 discriminator 3
 885 0112 8057     		se_lbz %r5,0(%r7)
 886 0114 7CBF31AE 		stbx %r5,%r31,%r6
 887              	.LVL108:
 888 0118 2007     		se_addi %r7,1
 889              	.LVL109:
 890              		.loc 1 532 0 discriminator 3
 891 011a 7A20FFF4 		e_bdnz .L69
 892              		.loc 1 537 0
 893 011e 01E3     		se_mr %r3,%r30
 894 0120 C251     		se_lwz %r5,8(%r1)
 895 0122 C361     		se_lwz %r6,12(%r1)
 896 0124 78000001 		e_bl eeprom_lld_flashprogram64
 897              	.LVL110:
 898              		.loc 1 538 0
 899 0128 2A03     		se_cmpi %r3,0
 900 012a 7A020080 		e_bne %cr0,.L74
 901              		.loc 1 541 0 discriminator 2
 902 012e 207E     		se_addi %r30,8
 903              	.LVL111:
 904              		.loc 1 530 0 discriminator 2
 905 0130 2009     		se_addi %r25,1
 906              	.LVL112:
 907              		.loc 1 535 0 discriminator 2
 908 0132 03B4     		se_mfar %r4,%r19
 909              		.loc 1 530 0 discriminator 2
 910 0134 7C19A040 		cmpl %cr0,%r25,%r20
 911 0138 7A02FFC8 		e_bne %cr0,.L70
 912              	.LVL113:
GAS LISTING C:\Users\duchu\AppData\Local\Temp\ccTp7ZJM.s 			page 17


 913 013c 78000006 		e_b .L60
 914              	.LVL114:
 915              	.L79:
 916              		.loc 1 548 0
 917 0140 20F4     		se_addi %r4,16
 918              	.LVL115:
 919              	.L60:
 920              		.loc 1 518 0
 921 0142 C05A     		se_lwz %r5,0(%r26)
 922 0144 846A     		se_lbz %r6,4(%r26)
 923 0146 7CC71070 		e_slwi %r7,%r6,2
 924 014a 6C46     		se_slwi %r6, 4
 925 014c 0767     		se_subf %r7, %r6
 926 014e C165     		se_lwz %r6,4(%r5)
 927 0150 7CA63A14 		add %r5,%r6,%r7
 928 0154 7C66382E 		lwzx %r3,%r6,%r7
 929 0158 C175     		se_lwz %r7,4(%r5)
 930 015a 7CE33A14 		add %r7,%r3,%r7
 931 015e 0D74     		se_cmpl %r4,%r7
 932 0160 7A10FF44 		e_blt %cr0,.L71
 933              		.loc 1 557 0
 934 0164 4805     		se_li %r5,0
 935 0166 4806     		se_li %r6,0
 936 0168 78000001 		e_bl eeprom_lld_flashprogram64
 937              	.LVL116:
 938              		.loc 1 559 0
 939 016c 4887     		se_li %r7,8
 940              		.loc 1 558 0
 941 016e 2A03     		se_cmpi %r3,0
 942 0170 7A02003C 		e_bne %cr0,.L59
 943              		.loc 1 563 0
 944 0174 C07A     		se_lwz %r7,0(%r26)
 945 0176 C177     		se_lwz %r7,4(%r7)
 946 0178 7C67D82E 		lwzx %r3,%r7,%r27
 947              	.LVL117:
 948 017c 4805     		se_li %r5,0
 949 017e 2D06     		se_bmaski %r6,16
 950 0180 78000001 		e_bl eeprom_lld_flashprogram64
 951              	.LVL118:
 952              		.loc 1 565 0
 953 0184 4887     		se_li %r7,8
 954              		.loc 1 564 0
 955 0186 2A03     		se_cmpi %r3,0
 956 0188 7A020024 		e_bne %cr0,.L59
 957              		.loc 1 492 0
 958 018c 36BA0004 		e_stb %r21,4(%r26)
 959              		.loc 1 570 0
 960 0190 C07A     		se_lwz %r7,0(%r26)
 961 0192 C177     		se_lwz %r7,4(%r7)
 962 0194 7CC7DA14 		add %r6,%r7,%r27
 963 0198 7CE7D82E 		lwzx %r7,%r7,%r27
 964 019c C166     		se_lwz %r6,4(%r6)
 965 019e 0467     		se_add %r7,%r6
 966              		.loc 1 571 0
 967 01a0 077E     		se_subf %r30, %r7
 968              	.LVL119:
 969              		.loc 1 570 0
GAS LISTING C:\Users\duchu\AppData\Local\Temp\ccTp7ZJM.s 			page 18


 970 01a2 D2EA     		se_stw %r30,8(%r26)
 971              		.loc 1 572 0
 972 01a4 4807     		se_li %r7,0
 973 01a6 78000006 		e_b .L59
 974              	.LVL120:
 975              	.L74:
 976              		.loc 1 539 0
 977 01aa 4887     		se_li %r7,8
 978              	.LVL121:
 979              	.L59:
 980              		.loc 1 574 0
 981 01ac 0173     		se_mr %r3,%r7
 982              	.LVL122:
 983 01ae 50010054 		e_lwz %r0,84(%r1)
 984 01b2 0090     		se_mtlr %r0
 985              		.cfi_restore 65
 986 01b4 1A61081C 		e_lmw %r19,28(%r1)
 987              	.LVL123:
 988 01b8 18218050 		e_addi %r1,%r1,80
 989              	.LCFI9:
 990              		.cfi_restore 31
 991              		.cfi_restore 30
 992              		.cfi_restore 29
 993              		.cfi_restore 28
 994              		.cfi_restore 27
 995              		.cfi_restore 26
 996              		.cfi_restore 25
 997              		.cfi_restore 24
 998              		.cfi_restore 23
 999              		.cfi_restore 22
 1000              		.cfi_restore 21
 1001              		.cfi_restore 20
 1002              		.cfi_restore 19
 1003              		.cfi_def_cfa_offset 0
 1004 01bc 0004     		se_blr
 1005              		.cfi_endproc
 1006              	.LFE10:
 1007              		.size	eeprom_blockswap, .-eeprom_blockswap
 1008              		.section	.text.eeprom_write,"axv",@progbits
 1009              		.align 1
 1010              		.p2align 4,,15
 1011              		.globl eeprom_write
 1012              		.type	eeprom_write, @function
 1013              	eeprom_write:
 1014              	.LFB7:
 1015              		.loc 1 231 0
 1016              		.cfi_startproc
 1017              	.LVL124:
 1018 0000 182106A0 		e_stwu %r1,-96(%r1)
 1019              	.LCFI10:
 1020              		.cfi_def_cfa_offset 96
 1021 0004 0080     		se_mflr %r0
 1022 0006 54010064 		e_stw %r0,100(%r1)
 1023 000a 1A410928 		e_stmw %r18,40(%r1)
 1024              		.cfi_offset 65, 4
 1025              		.cfi_offset 18, -56
 1026              		.cfi_offset 19, -52
GAS LISTING C:\Users\duchu\AppData\Local\Temp\ccTp7ZJM.s 			page 19


 1027              		.cfi_offset 20, -48
 1028              		.cfi_offset 21, -44
 1029              		.cfi_offset 22, -40
 1030              		.cfi_offset 23, -36
 1031              		.cfi_offset 24, -32
 1032              		.cfi_offset 25, -28
 1033              		.cfi_offset 26, -24
 1034              		.cfi_offset 27, -20
 1035              		.cfi_offset 28, -16
 1036              		.cfi_offset 29, -12
 1037              		.cfi_offset 30, -8
 1038              		.cfi_offset 31, -4
 1039              		.loc 1 248 0
 1040 000e 8473     		se_lbz %r7,4(%r3)
 1041              		.loc 1 249 0
 1042 0010 4900     		se_li %r0,16
 1043              		.loc 1 248 0
 1044 0012 700798FF 		e_cmp16i %r7,255
 1045 0016 7A12020E 		e_beq %cr0,.L109
 1046              		.loc 1 248 0 is_stmt 0 discriminator 1
 1047 001a 8573     		se_lbz %r7,5(%r3)
 1048 001c 2A07     		se_cmpi %r7,0
 1049 001e 7A120206 		e_beq %cr0,.L109
 1050              	.LVL125:
 1051              		.loc 1 255 0 is_stmt 1
 1052 0022 18A7C00F 		e_andi %r7,%r5,15
 1053 0026 0150     		se_mr %r0,%r5
 1054 0028 2A07     		se_cmpi %r7,0
 1055 002a 7A12000A 		e_beq %cr0,.L83
 1056              		.loc 1 255 0 is_stmt 0 discriminator 1
 1057 002e 18A0C4F0 		e_andi %r0,%r5,-16
 1058 0032 20F0     		se_addi %r0,16
 1059              	.L83:
 1060 0034 016C     		se_mr %r28,%r6
 1061 0036 015E     		se_mr %r30,%r5
 1062 0038 014D     		se_mr %r29,%r4
 1063 003a 013F     		se_mr %r31,%r3
 1064              	.LVL126:
 1065              		.loc 1 256 0 is_stmt 1 discriminator 4
 1066 003c 1B208010 		e_addi %r25,%r0,16
 1067              	.LVL127:
 1068              		.loc 1 259 0 discriminator 4
 1069 0040 C273     		se_lwz %r7,8(%r3)
 1070 0042 0D79     		se_cmpl %r25,%r7
 1071 0044 7A01001A 		e_ble %cr0,.L84
 1072              		.loc 1 260 0
 1073 0048 78000001 		e_bl eeprom_blockswap
 1074              	.LVL128:
 1075              		.loc 1 262 0
 1076 004c 4A00     		se_li %r0,32
 1077              		.loc 1 261 0
 1078 004e 2A03     		se_cmpi %r3,0
 1079 0050 7A0201D4 		e_bne %cr0,.L109
 1080              		.loc 1 265 0
 1081 0054 C27F     		se_lwz %r7,8(%r31)
 1082              		.loc 1 266 0
 1083 0056 4C00     		se_li %r0,64
GAS LISTING C:\Users\duchu\AppData\Local\Temp\ccTp7ZJM.s 			page 20


 1084              		.loc 1 265 0
 1085 0058 0D79     		se_cmpl %r25,%r7
 1086 005a 7A1101CA 		e_bgt %cr0,.L109
 1087              	.LVL129:
 1088              	.L84:
 1089              		.loc 1 273 0
 1090 005e 01F3     		se_mr %r3,%r31
 1091 0060 01D4     		se_mr %r4,%r29
 1092 0062 18A18018 		e_addi %r5,%r1,24
 1093 0066 18C18008 		e_addi %r6,%r1,8
 1094 006a 78000001 		e_bl eeprom_searchID
 1095              	.LVL130:
 1096 006e 023A     		se_mtar %r18,%r3
 1097              	.LVL131:
 1098              		.loc 1 285 0
 1099 0070 C05F     		se_lwz %r5,0(%r31)
 1100 0072 846F     		se_lbz %r6,4(%r31)
 1101 0074 7CC71070 		e_slwi %r7,%r6,2
 1102 0078 6C46     		se_slwi %r6, 4
 1103 007a 0767     		se_subf %r7, %r6
 1104 007c C155     		se_lwz %r5,4(%r5)
 1105 007e 7CC53A14 		add %r6,%r5,%r7
 1106 0082 C166     		se_lwz %r6,4(%r6)
 1107 0084 7F65382E 		lwzx %r27,%r5,%r7
 1108 0088 7CE6DA14 		add %r7,%r6,%r27
 1109 008c C2BF     		se_lwz %r27,8(%r31)
 1110 008e 077B     		se_subf %r27, %r7
 1111              	.LVL132:
 1112              		.loc 1 287 0
 1113 0090 01B3     		se_mr %r3,%r27
 1114              	.LVL133:
 1115 0092 2C05     		se_bmaski %r5,0
 1116 0094 70C07800 		e_li %r6,-65536
 1117 0098 78000001 		e_bl eeprom_lld_flashprogram64
 1118              	.LVL134:
 1119              		.loc 1 289 0
 1120 009c 4880     		se_li %r0,8
 1121              		.loc 1 288 0
 1122 009e 2A03     		se_cmpi %r3,0
 1123 00a0 7A020184 		e_bne %cr0,.L109
 1124              		.loc 1 293 0
 1125 00a4 1AFB8008 		e_addi %r23,%r27,8
 1126              	.LVL135:
 1127              		.loc 1 295 0
 1128 00a8 7FA48070 		e_slwi %r4,%r29,16
 1129              		.loc 1 296 0
 1130 00ac 7C85F378 		or %r5,%r4,%r30
 1131 00b0 D451     		se_stw %r5,16(%r1)
 1132 00b2 2C07     		se_bmaski %r7,0
 1133 00b4 D571     		se_stw %r7,20(%r1)
 1134              		.loc 1 297 0
 1135 00b6 03F3     		se_mfar %r3,%r23
 1136              	.LVL136:
 1137 00b8 2C06     		se_bmaski %r6,0
 1138 00ba 78000001 		e_bl eeprom_lld_flashprogram64
 1139              	.LVL137:
 1140              		.loc 1 299 0
GAS LISTING C:\Users\duchu\AppData\Local\Temp\ccTp7ZJM.s 			page 21


 1141 00be 4880     		se_li %r0,8
 1142              		.loc 1 298 0
 1143 00c0 2A03     		se_cmpi %r3,0
 1144 00c2 7A020162 		e_bne %cr0,.L109
 1145              	.LVL138:
 1146              		.loc 1 305 0
 1147 00c6 1BD5C007 		e_andi %r21,%r30,7
 1148              	.LVL139:
 1149              		.loc 1 306 0
 1150 00ca 7FD41C71 		e_srwi. %r20,%r30,3
 1151              	.LVL140:
 1152 00ce 7A12014A 		e_beq %cr0,.L85
 1153 00d2 01C4     		se_mr %r4,%r28
 1154 00d4 4808     		se_li %r24,0
 1155              		.loc 1 308 0
 1156 00d6 2C0A     		se_bmaski %r26,0
 1157 00d8 2C0B     		se_bmaski %r27,0
 1158 00da 1BA18010 		e_addi %r29,%r1,16
 1159              	.LVL141:
 1160              	.L87:
 1161              		.loc 1 307 0
 1162 00de 1AF78008 		e_addi %r23,%r23,8
 1163              	.LVL142:
 1164              		.loc 1 308 0
 1165 00e2 D4A1     		se_stw %r26,16(%r1)
 1166 00e4 D5B1     		se_stw %r27,20(%r1)
 1167              	.LVL143:
 1168 00e6 1AC48008 		e_addi %r22,%r4,8
 1169 00ea 0147     		se_mr %r7,%r4
 1170 00ec 4886     		se_li %r6,8
 1171 00ee 00B6     		se_mtctr %r6
 1172              	.LVL144:
 1173              	.L86:
 1174 00f0 7CC43850 		subf %r6, %r4, %r7
 1175              	.LVL145:
 1176              		.loc 1 312 0 discriminator 3
 1177 00f4 8057     		se_lbz %r5,0(%r7)
 1178 00f6 7CBD31AE 		stbx %r5,%r29,%r6
 1179              	.LVL146:
 1180 00fa 2007     		se_addi %r7,1
 1181              	.LVL147:
 1182              		.loc 1 309 0 discriminator 3
 1183 00fc 7A20FFF4 		e_bdnz .L86
 1184              		.loc 1 314 0
 1185 0100 03F3     		se_mfar %r3,%r23
 1186              	.LVL148:
 1187 0102 C451     		se_lwz %r5,16(%r1)
 1188 0104 C561     		se_lwz %r6,20(%r1)
 1189 0106 78000001 		e_bl eeprom_lld_flashprogram64
 1190              	.LVL149:
 1191              		.loc 1 315 0
 1192 010a 2A03     		se_cmpi %r3,0
 1193 010c 7A0200E8 		e_bne %cr0,.L103
 1194              		.loc 1 306 0 discriminator 2
 1195 0110 1A788001 		e_addi %r19,%r24,1
 1196 0114 7678063F 		e_rlwinm %r24,%r19,0,0xff
 1197              	.LVL150:
GAS LISTING C:\Users\duchu\AppData\Local\Temp\ccTp7ZJM.s 			page 22


 1198              		.loc 1 312 0 discriminator 2
 1199 0118 03E4     		se_mfar %r4,%r22
 1200              		.loc 1 306 0 discriminator 2
 1201 011a 7C14C040 		cmpl %cr0,%r20,%r24
 1202 011e 7A11FFC0 		e_bgt %cr0,.L87
 1203              	.LVL151:
 1204              		.loc 1 319 0
 1205 0122 70159800 		e_cmp16i %r21,0
 1206 0126 7A120042 		e_beq %cr0,.L88
 1207              		.loc 1 321 0
 1208 012a 18778008 		e_addi %r3,%r23,8
 1209              	.LVL152:
 1210              		.loc 1 322 0
 1211 012e 2C06     		se_bmaski %r6,0
 1212 0130 2C07     		se_bmaski %r7,0
 1213 0132 D461     		se_stw %r6,16(%r1)
 1214 0134 D571     		se_stw %r7,20(%r1)
 1215              	.LVL153:
 1216              	.L94:
 1217              		.loc 1 322 0 is_stmt 0 discriminator 3
 1218 0136 4806     		se_li %r6,0
 1219 0138 4807     		se_li %r7,0
 1220              		.loc 1 324 0 is_stmt 1 discriminator 3
 1221 013a 18818010 		e_addi %r4,%r1,16
 1222              	.LVL154:
 1223              	.L89:
 1224              		.loc 1 325 0 discriminator 3
 1225 013e 30B60000 		e_lbz %r5,0(%r22)
 1226 0142 7CA621AE 		stbx %r5,%r6,%r4
 1227              		.loc 1 323 0 discriminator 3
 1228 0146 2007     		se_addi %r7,1
 1229              	.LVL155:
 1230 0148 00C7     		se_extzb %r7
 1231              	.LVL156:
 1232 014a 0176     		se_mr %r6,%r7
 1233              	.LVL157:
 1234 014c 1AD68001 		e_addi %r22,%r22,1
 1235              	.LVL158:
 1236 0150 7C153840 		cmpl %cr0,%r21,%r7
 1237 0154 7A11FFEA 		e_bgt %cr0,.L89
 1238              		.loc 1 327 0
 1239 0158 C451     		se_lwz %r5,16(%r1)
 1240 015a C561     		se_lwz %r6,20(%r1)
 1241 015c 78000001 		e_bl eeprom_lld_flashprogram64
 1242              	.LVL159:
 1243              		.loc 1 329 0
 1244 0160 4880     		se_li %r0,8
 1245              		.loc 1 328 0
 1246 0162 2A03     		se_cmpi %r3,0
 1247 0164 7A0200C0 		e_bne %cr0,.L109
 1248              	.LVL160:
 1249              	.L88:
 1250              		.loc 1 333 0
 1251 0168 C05F     		se_lwz %r5,0(%r31)
 1252 016a 847F     		se_lbz %r7,4(%r31)
 1253 016c 7CE61070 		e_slwi %r6,%r7,2
 1254 0170 6C47     		se_slwi %r7, 4
GAS LISTING C:\Users\duchu\AppData\Local\Temp\ccTp7ZJM.s 			page 23


 1255 0172 0776     		se_subf %r6, %r7
 1256 0174 C155     		se_lwz %r5,4(%r5)
 1257 0176 7CE53214 		add %r7,%r5,%r6
 1258 017a C177     		se_lwz %r7,4(%r7)
 1259 017c 7C65302E 		lwzx %r3,%r5,%r6
 1260              	.LVL161:
 1261 0180 0437     		se_add %r7,%r3
 1262 0182 C23F     		se_lwz %r3,8(%r31)
 1263 0184 0773     		se_subf %r3, %r7
 1264              	.LVL162:
 1265              		.loc 1 335 0
 1266 0186 18A38010 		e_addi %r5,%r3,16
 1267              	.LVL163:
 1268              		.loc 1 336 0
 1269 018a 2A0E     		se_cmpi %r30,0
 1270 018c 7A120030 		e_beq %cr0,.L90
 1271              		.loc 1 337 0
 1272 0190 30E30010 		e_lbz %r7,16(%r3)
 1273 0194 806C     		se_lbz %r6,0(%r28)
 1274 0196 0D67     		se_cmpl %r7,%r6
 1275 0198 7A020062 		e_bne %cr0,.L105
 1276 019c 01C6     		se_mr %r6,%r28
 1277 019e 7800000E 		e_b .L91
 1278              	.LVL164:
 1279              	.L92:
 1280 01a2 8075     		se_lbz %r7,0(%r5)
 1281 01a4 8046     		se_lbz %r4,0(%r6)
 1282 01a6 0D47     		se_cmpl %r7,%r4
 1283 01a8 7A020058 		e_bne %cr0,.L106
 1284              	.LVL165:
 1285              	.L91:
 1286              		.loc 1 340 0 discriminator 2
 1287 01ac 2006     		se_addi %r6,1
 1288              	.LVL166:
 1289              		.loc 1 341 0 discriminator 2
 1290 01ae 2005     		se_addi %r5,1
 1291              	.LVL167:
 1292 01b0 7CFC3050 		subf %r7, %r28, %r6
 1293              		.loc 1 336 0 discriminator 2
 1294 01b4 00C7     		se_extzb %r7
 1295 01b6 0D7E     		se_cmpl %r30,%r7
 1296 01b8 7A11FFEA 		e_bgt %cr0,.L92
 1297              	.LVL168:
 1298              	.L90:
 1299              		.loc 1 347 0
 1300 01bc 70A07800 		e_li %r5,-65536
 1301 01c0 4806     		se_li %r6,0
 1302 01c2 78000001 		e_bl eeprom_lld_flashprogram64
 1303              	.LVL169:
 1304              		.loc 1 349 0
 1305 01c6 4880     		se_li %r0,8
 1306              		.loc 1 348 0
 1307 01c8 2A03     		se_cmpi %r3,0
 1308 01ca 7A02005A 		e_bne %cr0,.L109
 1309              		.loc 1 353 0
 1310 01ce 70129800 		e_cmp16i %r18,0
 1311 01d2 7A020016 		e_bne %cr0,.L93
GAS LISTING C:\Users\duchu\AppData\Local\Temp\ccTp7ZJM.s 			page 24


 1312              		.loc 1 354 0
 1313 01d6 C631     		se_lwz %r3,24(%r1)
 1314              	.LVL170:
 1315 01d8 4805     		se_li %r5,0
 1316 01da 4806     		se_li %r6,0
 1317 01dc 78000001 		e_bl eeprom_lld_flashprogram64
 1318              	.LVL171:
 1319              		.loc 1 356 0
 1320 01e0 4880     		se_li %r0,8
 1321              		.loc 1 355 0
 1322 01e2 2A03     		se_cmpi %r3,0
 1323 01e4 7A020040 		e_bne %cr0,.L109
 1324              	.L93:
 1325              		.loc 1 360 0
 1326 01e8 C20F     		se_lwz %r0,8(%r31)
 1327 01ea 0690     		se_sub %r0, %r25
 1328 01ec D20F     		se_stw %r0,8(%r31)
 1329              		.loc 1 361 0
 1330 01ee 4800     		se_li %r0,0
 1331 01f0 78000034 		e_b .L109
 1332              	.LVL172:
 1333              	.L103:
 1334              		.loc 1 316 0
 1335 01f4 4880     		se_li %r0,8
 1336 01f6 7800002E 		e_b .L109
 1337              	.LVL173:
 1338              	.L105:
 1339              		.loc 1 338 0
 1340 01fa 4880     		se_li %r0,8
 1341 01fc 78000028 		e_b .L109
 1342              	.LVL174:
 1343              	.L106:
 1344 0200 4880     		se_li %r0,8
 1345 0202 78000022 		e_b .L109
 1346              	.LVL175:
 1347              	.L95:
 1348              		.loc 1 321 0
 1349 0206 187B8010 		e_addi %r3,%r27,16
 1350              	.LVL176:
 1351              		.loc 1 322 0
 1352 020a 2C06     		se_bmaski %r6,0
 1353 020c 2C07     		se_bmaski %r7,0
 1354 020e D461     		se_stw %r6,16(%r1)
 1355 0210 D571     		se_stw %r7,20(%r1)
 1356              	.LVL177:
 1357 0212 02CE     		se_mtar %r22,%r28
 1358 0214 79FFFF22 		e_b .L94
 1359              	.LVL178:
 1360              	.L85:
 1361              		.loc 1 319 0
 1362 0218 70159800 		e_cmp16i %r21,0
 1363 021c 7A02FFEA 		e_bne %cr0,.L95
 1364 0220 79FFFF48 		e_b .L88
 1365              	.LVL179:
 1366              	.L109:
 1367              		.loc 1 363 0
 1368 0224 0103     		se_mr %r3,%r0
GAS LISTING C:\Users\duchu\AppData\Local\Temp\ccTp7ZJM.s 			page 25


 1369 0226 50010064 		e_lwz %r0,100(%r1)
 1370 022a 0090     		se_mtlr %r0
 1371              		.cfi_restore 65
 1372 022c 1A410828 		e_lmw %r18,40(%r1)
 1373 0230 18218060 		e_addi %r1,%r1,96
 1374              	.LCFI11:
 1375              		.cfi_restore 31
 1376              		.cfi_restore 30
 1377              		.cfi_restore 29
 1378              		.cfi_restore 28
 1379              		.cfi_restore 27
 1380              		.cfi_restore 26
 1381              		.cfi_restore 25
 1382              		.cfi_restore 24
 1383              		.cfi_restore 23
 1384              		.cfi_restore 22
 1385              		.cfi_restore 21
 1386              		.cfi_restore 20
 1387              		.cfi_restore 19
 1388              		.cfi_restore 18
 1389              		.cfi_def_cfa_offset 0
 1390 0234 0004     		se_blr
 1391              		.cfi_endproc
 1392              	.LFE7:
 1393              		.size	eeprom_write, .-eeprom_write
 1394              		.section	.text.eeprom_delete,"axv",@progbits
 1395              		.align 1
 1396              		.p2align 4,,15
 1397              		.globl eeprom_delete
 1398              		.type	eeprom_delete, @function
 1399              	eeprom_delete:
 1400              	.LFB11:
 1401              		.loc 1 588 0
 1402              		.cfi_startproc
 1403              	.LVL180:
 1404 0000 182106E0 		e_stwu %r1,-32(%r1)
 1405              	.LCFI12:
 1406              		.cfi_def_cfa_offset 32
 1407 0004 0080     		se_mflr %r0
 1408 0006 D901     		se_stw %r0,36(%r1)
 1409 0008 D7F1     		se_stw %r31,28(%r1)
 1410              		.cfi_offset 65, 4
 1411              		.cfi_offset 31, -4
 1412              		.loc 1 594 0
 1413 000a 8473     		se_lbz %r7,4(%r3)
 1414              		.loc 1 595 0
 1415 000c 490F     		se_li %r31,16
 1416              		.loc 1 594 0
 1417 000e 700798FF 		e_cmp16i %r7,255
 1418 0012 7A120038 		e_beq %cr0,.L114
 1419              		.loc 1 594 0 is_stmt 0 discriminator 1
 1420 0016 8573     		se_lbz %r7,5(%r3)
 1421 0018 2A07     		se_cmpi %r7,0
 1422 001a 7A120030 		e_beq %cr0,.L114
 1423              		.loc 1 599 0 is_stmt 1
 1424 001e 18A18008 		e_addi %r5,%r1,8
 1425 0022 18C1800C 		e_addi %r6,%r1,12
GAS LISTING C:\Users\duchu\AppData\Local\Temp\ccTp7ZJM.s 			page 26


 1426 0026 78000001 		e_bl eeprom_searchID
 1427              	.LVL181:
 1428 002a 013F     		se_mr %r31,%r3
 1429 002c 2A0F     		se_cmpi %r31,0
 1430 002e 7A02001A 		e_bne %cr0,.L117
 1431              		.loc 1 604 0
 1432 0032 C231     		se_lwz %r3,8(%r1)
 1433 0034 4805     		se_li %r5,0
 1434 0036 4806     		se_li %r6,0
 1435 0038 78000001 		e_bl eeprom_lld_flashprogram64
 1436              	.LVL182:
 1437              		.loc 1 606 0
 1438 003c 2A03     		se_cmpi %r3,0
 1439 003e 4887     		se_li %r7,8
 1440 0040 7FFF389E 		isel %r31,%r31,%r7,2
 1441 0044 78000006 		e_b .L114
 1442              	.LVL183:
 1443              	.L117:
 1444              		.loc 1 600 0
 1445 0048 4A0F     		se_li %r31,32
 1446              	.L114:
 1447              		.loc 1 610 0
 1448 004a 01F3     		se_mr %r3,%r31
 1449 004c C901     		se_lwz %r0,36(%r1)
 1450 004e 0090     		se_mtlr %r0
 1451              		.cfi_restore 65
 1452 0050 C7F1     		se_lwz %r31,28(%r1)
 1453 0052 21F1     		se_addi %r1,32
 1454              	.LCFI13:
 1455              		.cfi_restore 31
 1456              		.cfi_def_cfa_offset 0
 1457 0054 0004     		se_blr
 1458              		.cfi_endproc
 1459              	.LFE11:
 1460              		.size	eeprom_delete, .-eeprom_delete
 1461              		.globl EEPROMD
 1462              		.section	.bss.EEPROMD,"aw",@nobits
 1463              		.align 2
 1464              		.set	.LANCHOR0,. + 0
 1465              		.type	EEPROMD, @object
 1466              		.size	EEPROMD, 12
 1467              	EEPROMD:
 1468 0000 00000000 		.zero	12
 1468      00000000 
 1468      00000000 
 1469              		.section	".text","axv"
 1470              	.Letext0:
 1471              		.file 2 "c:\\spc5studio\\eclipse\\plugins\\com.st.tools.spc5.tools.gnu.gcc.ppcvle.win32_4.9.4.2019
 1472              		.file 3 "c:\\spc5studio\\eclipse\\plugins\\com.st.tools.spc5.tools.gnu.gcc.ppcvle.win32_4.9.4.2019
 1473              		.file 4 "./components/spc570sxx_platform_component_rla/lib/include/typedefs.h"
 1474              		.file 5 "./components/eeprom_emulation_driver/lib/include/eeprom.h"
 1475              		.file 6 "./components/eeprom_emulation_driver/lib/include/eeprom_lld.h"