GAS LISTING C:\Users\duchu\AppData\Local\Temp\ccufoMT0.s 			page 1


   1              		.file	"eirq.c"
   2              		.section	".text","axv"
   3              	.Ltext0:
   4              		.cfi_sections	.debug_frame
   5              		.section	.text.manage_eirq_interrupt,"axv",@progbits
   6              		.align 1
   7              		.p2align 4,,15
   8              		.globl manage_eirq_interrupt
   9              		.type	manage_eirq_interrupt, @function
  10              	manage_eirq_interrupt:
  11              	.LFB4:
  12              		.file 1 "./components/spc570sxx_irq_component_rla/lib/src/eirq.c"
  13              		.loc 1 43 0
  14              		.cfi_startproc
  15              	.LVL0:
  16 0000 182106E8 		e_stwu %r1,-24(%r1)
  17              	.LCFI0:
  18              		.cfi_def_cfa_offset 24
  19 0004 0080     		se_mflr %r0
  20 0006 D701     		se_stw %r0,28(%r1)
  21 0008 1B810908 		e_stmw %r28,8(%r1)
  22              		.cfi_offset 65, 4
  23              		.cfi_offset 28, -16
  24              		.cfi_offset 29, -12
  25              		.cfi_offset 30, -8
  26              		.cfi_offset 31, -4
  27              	.LVL1:
  28              		.loc 1 46 0
  29 000c 70E0E000 		e_lis %r7,eirqconf@ha
  30 0010 30E70000 		e_lbz %r7,eirqconf@l(%r7)
  31 0014 00D7     		se_extsb %r7
  32 0016 73E79FFF 		e_cmp16i %r7,-1
  33 001a 7A120044 		e_beq %cr0,.L1
  34 001e 013D     		se_mr %r29,%r3
  35 0020 4806     		se_li %r6,0
  36 0022 480F     		se_li %r31,0
  37              		.loc 1 49 0
  38 0024 73C0E000 		e_lis %r30,eirqconf@ha
  39 0028 1FDE0000 		e_la %r30,eirqconf@l(%r30)
  40              		.loc 1 46 0
  41 002c 2C0C     		se_bmaski %r28,0
  42              	.LVL2:
  43              	.L4:
  44              		.loc 1 47 0
  45 002e 00C7     		se_extzb %r7
  46 0030 0CD7     		se_cmp %r7,%r29
  47 0032 7A020016 		e_bne %cr0,.L3
  48              		.loc 1 49 0
  49 0036 6C36     		se_slwi %r6, 3
  50 0038 7CDE3214 		add %r6,%r30,%r6
  51 003c C176     		se_lwz %r7,4(%r6)
  52 003e 2A07     		se_cmpi %r7,0
  53 0040 7A120008 		e_beq %cr0,.L3
  54              		.loc 1 50 0
  55 0044 00B7     		se_mtctr %r7
  56 0046 0007     		se_bctrl
  57              	.LVL3:
GAS LISTING C:\Users\duchu\AppData\Local\Temp\ccufoMT0.s 			page 2


  58              	.L3:
  59              		.loc 1 53 0
  60 0048 200F     		se_addi %r31,1
  61              	.LVL4:
  62 004a 00CF     		se_extzb %r31
  63              	.LVL5:
  64              		.loc 1 46 0
  65 004c 01F6     		se_mr %r6,%r31
  66 004e 7FE71870 		e_slwi %r7,%r31,3
  67 0052 7CFE38AE 		lbzx %r7,%r30,%r7
  68 0056 00D7     		se_extsb %r7
  69 0058 0CC7     		se_cmp %r7,%r28
  70 005a 7A02FFD4 		e_bne %cr0,.L4
  71              	.LVL6:
  72              	.L1:
  73              		.loc 1 55 0
  74 005e C701     		se_lwz %r0,28(%r1)
  75 0060 0090     		se_mtlr %r0
  76              		.cfi_restore 65
  77 0062 1B810808 		e_lmw %r28,8(%r1)
  78 0066 2171     		se_addi %r1,24
  79              	.LCFI1:
  80              		.cfi_restore 31
  81              		.cfi_restore 30
  82              		.cfi_restore 29
  83              		.cfi_restore 28
  84              		.cfi_def_cfa_offset 0
  85 0068 0004     		se_blr
  86              		.cfi_endproc
  87              	.LFE4:
  88              		.size	manage_eirq_interrupt, .-manage_eirq_interrupt
  89              		.section	.text.vector243,"axv",@progbits
  90              		.align 1
  91              		.p2align 4,,15
  92              		.globl vector243
  93              		.type	vector243, @function
  94              	vector243:
  95              	.LFB5:
  96              		.loc 1 69 0
  97              		.cfi_startproc
  98 0000 182106F8 		e_stwu %r1,-8(%r1)
  99              	.LCFI2:
 100              		.cfi_def_cfa_offset 8
 101 0004 0080     		se_mflr %r0
 102 0006 D301     		se_stw %r0,12(%r1)
 103              		.cfi_offset 65, 4
 104              		.loc 1 73 0
 105 0008 78000001 		e_bl osalEnterCriticalFromISR
 106              	.LVL7:
 107              		.loc 1 75 0
 108 000c 4803     		se_li %r3,0
 109 000e 78000001 		e_bl manage_eirq_interrupt
 110              	.LVL8:
 111              		.loc 1 77 0
 112 0012 4816     		se_li %r6,1
 113 0014 70E06000 		e_li %r7,-262144
 114 0018 D467     		se_stw %r6,16(%r7)
GAS LISTING C:\Users\duchu\AppData\Local\Temp\ccufoMT0.s 			page 3


 115              		.loc 1 79 0
 116 001a 78000001 		e_bl osalExitCriticalFromISR
 117              	.LVL9:
 118              		.loc 1 82 0
 119 001e C301     		se_lwz %r0,12(%r1)
 120 0020 0090     		se_mtlr %r0
 121              		.cfi_restore 65
 122 0022 2071     		se_addi %r1,8
 123              	.LCFI3:
 124              		.cfi_def_cfa_offset 0
 125 0024 0004     		se_blr
 126              		.cfi_endproc
 127              	.LFE5:
 128              		.size	vector243, .-vector243
 129              		.section	.text.vector244,"axv",@progbits
 130              		.align 1
 131              		.p2align 4,,15
 132              		.globl vector244
 133              		.type	vector244, @function
 134              	vector244:
 135              	.LFB6:
 136              		.loc 1 91 0
 137              		.cfi_startproc
 138 0000 182106F8 		e_stwu %r1,-8(%r1)
 139              	.LCFI4:
 140              		.cfi_def_cfa_offset 8
 141 0004 0080     		se_mflr %r0
 142 0006 D301     		se_stw %r0,12(%r1)
 143              		.cfi_offset 65, 4
 144              		.loc 1 95 0
 145 0008 78000001 		e_bl osalEnterCriticalFromISR
 146              	.LVL10:
 147              		.loc 1 97 0
 148 000c 4813     		se_li %r3,1
 149 000e 78000001 		e_bl manage_eirq_interrupt
 150              	.LVL11:
 151              		.loc 1 99 0
 152 0012 4826     		se_li %r6,2
 153 0014 70E06000 		e_li %r7,-262144
 154 0018 D467     		se_stw %r6,16(%r7)
 155              		.loc 1 101 0
 156 001a 78000001 		e_bl osalExitCriticalFromISR
 157              	.LVL12:
 158              		.loc 1 104 0
 159 001e C301     		se_lwz %r0,12(%r1)
 160 0020 0090     		se_mtlr %r0
 161              		.cfi_restore 65
 162 0022 2071     		se_addi %r1,8
 163              	.LCFI5:
 164              		.cfi_def_cfa_offset 0
 165 0024 0004     		se_blr
 166              		.cfi_endproc
 167              	.LFE6:
 168              		.size	vector244, .-vector244
 169              		.section	.text.vector245,"axv",@progbits
 170              		.align 1
 171              		.p2align 4,,15
GAS LISTING C:\Users\duchu\AppData\Local\Temp\ccufoMT0.s 			page 4


 172              		.globl vector245
 173              		.type	vector245, @function
 174              	vector245:
 175              	.LFB7:
 176              		.loc 1 113 0
 177              		.cfi_startproc
 178 0000 182106F8 		e_stwu %r1,-8(%r1)
 179              	.LCFI6:
 180              		.cfi_def_cfa_offset 8
 181 0004 0080     		se_mflr %r0
 182 0006 D301     		se_stw %r0,12(%r1)
 183              		.cfi_offset 65, 4
 184              		.loc 1 117 0
 185 0008 78000001 		e_bl osalEnterCriticalFromISR
 186              	.LVL13:
 187              		.loc 1 119 0
 188 000c 4823     		se_li %r3,2
 189 000e 78000001 		e_bl manage_eirq_interrupt
 190              	.LVL14:
 191              		.loc 1 121 0
 192 0012 4846     		se_li %r6,4
 193 0014 70E06000 		e_li %r7,-262144
 194 0018 D467     		se_stw %r6,16(%r7)
 195              		.loc 1 123 0
 196 001a 78000001 		e_bl osalExitCriticalFromISR
 197              	.LVL15:
 198              		.loc 1 126 0
 199 001e C301     		se_lwz %r0,12(%r1)
 200 0020 0090     		se_mtlr %r0
 201              		.cfi_restore 65
 202 0022 2071     		se_addi %r1,8
 203              	.LCFI7:
 204              		.cfi_def_cfa_offset 0
 205 0024 0004     		se_blr
 206              		.cfi_endproc
 207              	.LFE7:
 208              		.size	vector245, .-vector245
 209              		.section	.text.vector246,"axv",@progbits
 210              		.align 1
 211              		.p2align 4,,15
 212              		.globl vector246
 213              		.type	vector246, @function
 214              	vector246:
 215              	.LFB8:
 216              		.loc 1 135 0
 217              		.cfi_startproc
 218 0000 182106E8 		e_stwu %r1,-24(%r1)
 219              	.LCFI8:
 220              		.cfi_def_cfa_offset 24
 221 0004 0080     		se_mflr %r0
 222 0006 D701     		se_stw %r0,28(%r1)
 223 0008 1BA1090C 		e_stmw %r29,12(%r1)
 224              		.cfi_offset 65, 4
 225              		.cfi_offset 29, -12
 226              		.cfi_offset 30, -8
 227              		.cfi_offset 31, -4
 228              		.loc 1 140 0
GAS LISTING C:\Users\duchu\AppData\Local\Temp\ccufoMT0.s 			page 5


 229 000c 78000001 		e_bl osalEnterCriticalFromISR
 230              	.LVL16:
 231 0010 483F     		se_li %r31,3
 232              		.loc 1 144 0
 233 0012 73C06000 		e_li %r30,-262144
 234              		.loc 1 148 0
 235 0016 481D     		se_li %r29,1
 236              	.LVL17:
 237              	.L11:
 238 0018 77E3063F 		e_rlwinm %r3,%r31,0,0xff
 239              	.LVL18:
 240              		.loc 1 144 0
 241 001c C47E     		se_lwz %r7,16(%r30)
 242 001e 40F7     		se_srw %r7,%r31
 243 0020 67F7     		se_btsti %r7,31
 244 0022 7A12000E 		e_beq %cr0,.L10
 245              		.loc 1 146 0
 246 0026 78000001 		e_bl manage_eirq_interrupt
 247              	.LVL19:
 248              		.loc 1 148 0
 249 002a 7FA7F830 		slw %r7,%r29,%r31
 250 002e D47E     		se_stw %r7,16(%r30)
 251              	.L10:
 252              	.LVL20:
 253 0030 200F     		se_addi %r31,1
 254              	.LVL21:
 255              		.loc 1 142 0 discriminator 2
 256 0032 225F     		se_cmpli %r31,6
 257 0034 7A02FFE4 		e_bne %cr0,.L11
 258              		.loc 1 152 0
 259 0038 78000001 		e_bl osalExitCriticalFromISR
 260              	.LVL22:
 261              		.loc 1 155 0
 262 003c C701     		se_lwz %r0,28(%r1)
 263 003e 0090     		se_mtlr %r0
 264              		.cfi_restore 65
 265 0040 1BA1080C 		e_lmw %r29,12(%r1)
 266              	.LVL23:
 267 0044 2171     		se_addi %r1,24
 268              	.LCFI9:
 269              		.cfi_restore 31
 270              		.cfi_restore 30
 271              		.cfi_restore 29
 272              		.cfi_def_cfa_offset 0
 273 0046 0004     		se_blr
 274              		.cfi_endproc
 275              	.LFE8:
 276              		.size	vector246, .-vector246
 277              		.section	.text.eirqInit,"axv",@progbits
 278              		.align 1
 279              		.p2align 4,,15
 280              		.globl eirqInit
 281              		.type	eirqInit, @function
 282              	eirqInit:
 283              	.LFB9:
 284              		.loc 1 358 0
 285              		.cfi_startproc
GAS LISTING C:\Users\duchu\AppData\Local\Temp\ccufoMT0.s 			page 6


 286 0000 182106F0 		e_stwu %r1,-16(%r1)
 287              	.LCFI10:
 288              		.cfi_def_cfa_offset 16
 289 0004 D3F1     		se_stw %r31,12(%r1)
 290              		.cfi_offset 31, -4
 291              		.loc 1 365 0
 292 0006 70F07808 		e_li %r7,-32760
 293 000a 70DFE404 		e_lis %r6,0xfc04
 294 000e 70C0C246 		e_or2i %r6,582
 295 0012 B076     		se_sth %r7,0(%r6)
 296              		.loc 1 368 0
 297 0014 2016     		se_addi %r6,2
 298 0016 B076     		se_sth %r7,0(%r6)
 299              		.loc 1 371 0
 300 0018 2016     		se_addi %r6,2
 301 001a B076     		se_sth %r7,0(%r6)
 302              		.loc 1 374 0
 303 001c 2016     		se_addi %r6,2
 304 001e B076     		se_sth %r7,0(%r6)
 305              	.LVL24:
 306              		.loc 1 400 0
 307 0020 70E0E000 		e_lis %r7,eirqconf@ha
 308 0024 30E70000 		e_lbz %r7,eirqconf@l(%r7)
 309 0028 00D7     		se_extsb %r7
 310 002a 73E79FFF 		e_cmp16i %r7,-1
 311 002e 7A12009A 		e_beq %cr0,.L13
 312 0032 4806     		se_li %r6,0
 313 0034 4805     		se_li %r5,0
 314              		.loc 1 403 0
 315 0036 7060E000 		e_lis %r3,eirqconf@ha
 316 003a 1C630000 		e_la %r3,eirqconf@l(%r3)
 317              		.loc 1 404 0
 318 003e 71606000 		e_li %r11,-262144
 319 0042 4810     		se_li %r0,1
 320              		.loc 1 400 0
 321 0044 2C0F     		se_bmaski %r31,0
 322              	.LVL25:
 323              	.L18:
 324              		.loc 1 401 0
 325 0046 00C7     		se_extzb %r7
 326              	.LVL26:
 327              		.loc 1 403 0
 328 0048 7CC41870 		e_slwi %r4,%r6,3
 329 004c 7C832214 		add %r4,%r3,%r4
 330 0050 8144     		se_lbz %r4,1(%r4)
 331 0052 2A14     		se_cmpi %r4,1
 332 0054 7A020014 		e_bne %cr0,.L15
 333              		.loc 1 404 0
 334 0058 508B0028 		e_lwz %r4,40(%r11)
 335 005c 7C093830 		slw %r9,%r0,%r7
 336 0060 7D242378 		or %r4,%r9,%r4
 337 0064 548B0028 		e_stw %r4,40(%r11)
 338              	.L15:
 339              		.loc 1 407 0
 340 0068 7CC41870 		e_slwi %r4,%r6,3
 341 006c 7C832214 		add %r4,%r3,%r4
 342 0070 8244     		se_lbz %r4,2(%r4)
GAS LISTING C:\Users\duchu\AppData\Local\Temp\ccufoMT0.s 			page 7


 343 0072 2A14     		se_cmpi %r4,1
 344 0074 7A020014 		e_bne %cr0,.L16
 345              		.loc 1 408 0
 346 0078 508B0030 		e_lwz %r4,48(%r11)
 347 007c 7C093830 		slw %r9,%r0,%r7
 348 0080 7D242378 		or %r4,%r9,%r4
 349 0084 548B0030 		e_stw %r4,48(%r11)
 350              	.L16:
 351              		.loc 1 411 0
 352 0088 6C36     		se_slwi %r6, 3
 353 008a 7CC33214 		add %r6,%r3,%r6
 354 008e 8366     		se_lbz %r6,3(%r6)
 355 0090 2A16     		se_cmpi %r6,1
 356 0092 7A020012 		e_bne %cr0,.L17
 357              		.loc 1 412 0
 358 0096 50CB0038 		e_lwz %r6,56(%r11)
 359 009a 7C043830 		slw %r4,%r0,%r7
 360 009e 4446     		se_or %r6,%r4
 361 00a0 54CB0038 		e_stw %r6,56(%r11)
 362              	.L17:
 363              		.loc 1 415 0
 364 00a4 50CB0018 		e_lwz %r6,24(%r11)
 365 00a8 7C073830 		slw %r7,%r0,%r7
 366              	.LVL27:
 367 00ac 4467     		se_or %r7,%r6
 368 00ae 54EB0018 		e_stw %r7,24(%r11)
 369              		.loc 1 416 0
 370 00b2 2005     		se_addi %r5,1
 371              	.LVL28:
 372 00b4 00C5     		se_extzb %r5
 373              	.LVL29:
 374              		.loc 1 400 0
 375 00b6 0156     		se_mr %r6,%r5
 376 00b8 7CA71870 		e_slwi %r7,%r5,3
 377 00bc 7CE338AE 		lbzx %r7,%r3,%r7
 378 00c0 00D7     		se_extsb %r7
 379 00c2 0CF7     		se_cmp %r7,%r31
 380 00c4 7A02FF82 		e_bne %cr0,.L18
 381              	.LVL30:
 382              	.L13:
 383              		.loc 1 418 0
 384 00c8 C3F1     		se_lwz %r31,12(%r1)
 385 00ca 20F1     		se_addi %r1,16
 386              	.LCFI11:
 387              		.cfi_restore 31
 388              		.cfi_def_cfa_offset 0
 389 00cc 0004     		se_blr
 390              		.cfi_endproc
 391              	.LFE9:
 392              		.size	eirqInit, .-eirqInit
 393              		.section	".text","axv"
 394              	.Letext0:
 395              		.file 2 "c:\\spc5studio\\eclipse\\plugins\\com.st.tools.spc5.tools.gnu.gcc.ppcvle.win32_4.9.4.2019
 396              		.file 3 "c:\\spc5studio\\eclipse\\plugins\\com.st.tools.spc5.tools.gnu.gcc.ppcvle.win32_4.9.4.2019
 397              		.file 4 "./components/spc570sxx_platform_component_rla/lib/include/typedefs.h"
 398              		.file 5 "./components/spc570sxx_platform_component_rla/lib/include/xpc570s.h"
 399              		.file 6 "./components/spc570sxx_irq_component_rla/lib/include/eirq.h"
GAS LISTING C:\Users\duchu\AppData\Local\Temp\ccufoMT0.s 			page 8


 400              		.file 7 "./components/spc570sxx_osal_component_rla/lib/include/osal.h"
 401              		.file 8 "./components/spc570sxx_irq_component_rla/cfg/eirq_cfg.h"