GAS LISTING C:\Users\duchu\AppData\Local\Temp\ccBoOH7D.s 			page 1


   1              		.file	"Hal_Adc.c"
   2              		.section	".text","axv"
   3              	.Ltext0:
   4              		.cfi_sections	.debug_frame
   5              		.section	.text.Hal_MovingAvg,"axv",@progbits
   6              		.align 1
   7              		.p2align 4,,15
   8              		.type	Hal_MovingAvg, @function
   9              	Hal_MovingAvg:
  10              	.LFB8:
  11              		.file 1 "./source/HAL/Hal_Adc.c"
  12              		.loc 1 199 0
  13              		.cfi_startproc
  14              	.LVL0:
  15 0000 186384FE 		e_addi %r3,%r3,-2
  16              	.LVL1:
  17              		.loc 1 202 0
  18 0004 4807     		se_li %r7,0
  19 0006 4876     		se_li %r6,7
  20 0008 00B6     		se_mtctr %r6
  21              	.LVL2:
  22              	.L2:
  23              		.loc 1 206 0 discriminator 3
  24 000a 18C30102 		e_lhzu %r6,2(%r3)
  25 000e 0467     		se_add %r7,%r6
  26              	.LVL3:
  27              		.loc 1 204 0 discriminator 3
  28 0010 7A20FFFA 		e_bdnz .L2
  29              	.LVL4:
  30              		.loc 1 209 0
  31 0014 7064E492 		e_lis %r3,0x2492
  32 0018 7069C125 		e_or2i %r3,18725
  33 001c 7C671816 		mulhwu %r3,%r7,%r3
  34 0020 0637     		se_sub %r7, %r3
  35              	.LVL5:
  36 0022 6817     		se_srwi %r7,1
  37 0024 0473     		se_add %r3,%r7
  38              		.loc 1 213 0
  39 0026 7463F43F 		e_rlwinm %r3,%r3,30,16,31
  40 002a 0004     		se_blr
  41              		.cfi_endproc
  42              	.LFE8:
  43              		.size	Hal_MovingAvg, .-Hal_MovingAvg
  44              		.section	.text.Hal_AdcInit,"axv",@progbits
  45              		.align 1
  46              		.p2align 4,,15
  47              		.globl Hal_AdcInit
  48              		.type	Hal_AdcInit, @function
  49              	Hal_AdcInit:
  50              	.LFB4:
  51              		.loc 1 90 0
  52              		.cfi_startproc
  53 0000 182106F8 		e_stwu %r1,-8(%r1)
  54              	.LCFI0:
  55              		.cfi_def_cfa_offset 8
  56 0004 0080     		se_mflr %r0
  57 0006 D301     		se_stw %r0,12(%r1)
GAS LISTING C:\Users\duchu\AppData\Local\Temp\ccBoOH7D.s 			page 2


  58              		.cfi_offset 65, 4
  59              		.loc 1 91 0
  60 0008 4FF3     		se_li %r3,127
  61 000a 4924     		se_li %r4,18
  62 000c 78000001 		e_bl SPCSetPeripheralClockMode
  63              	.LVL6:
  64              		.loc 1 93 0
  65 0010 70FFE7E0 		e_lis %r7,0xffe0
  66 0014 C067     		se_lwz %r6,0(%r7)
  67 0016 4815     		se_li %r5,1
  68 0018 74A6D14A 		e_rlwimi %r6,%r5,26,5,5
  69 001c D067     		se_stw %r6,0(%r7)
  70              		.loc 1 95 0
  71 001e C047     		se_lwz %r4,0(%r7)
  72 0020 4806     		se_li %r6,0
  73 0022 74C4E884 		e_rlwimi %r4,%r6,29,2,2
  74 0026 D047     		se_stw %r4,0(%r7)
  75              		.loc 1 97 0
  76 0028 C047     		se_lwz %r4,0(%r7)
  77 002a 74A4F800 		e_rlwimi %r4,%r5,31,0,0
  78 002e D047     		se_stw %r4,0(%r7)
  79              		.loc 1 98 0
  80 0030 708002EC 		e_li %r4,748
  81 0034 D947     		se_stw %r4,36(%r7)
  82              		.loc 1 99 0
  83 0036 C837     		se_lwz %r3,32(%r7)
  84 0038 74A307FE 		e_rlwimi %r3,%r5,0,31,31
  85 003c D837     		se_stw %r3,32(%r7)
  86              		.loc 1 100 0
  87 003e 50A70094 		e_lwz %r5,148(%r7)
  88 0042 74C5F800 		e_rlwimi %r5,%r6,31,0,0
  89 0046 54A70094 		e_stw %r5,148(%r7)
  90              		.loc 1 101 0
  91 004a 4855     		se_li %r5,5
  92 004c 34A70097 		e_stb %r5,151(%r7)
  93              		.loc 1 102 0
  94 0050 548700A4 		e_stw %r4,164(%r7)
  95              		.loc 1 104 0
  96 0054 54C70100 		e_stw %r6,256(%r7)
  97              		.loc 1 109 0
  98 0058 7090780B 		e_li %r4,-32757
  99 005c 70BFE404 		e_lis %r5,0xfc04
 100 0060 70A0C480 		e_or2i %r5,1152
 101 0064 B045     		se_sth %r4,0(%r5)
 102              		.loc 1 111 0
 103 0066 C057     		se_lwz %r5,0(%r7)
 104 0068 74C507FE 		e_rlwimi %r5,%r6,0,31,31
 105 006c D057     		se_stw %r5,0(%r7)
 106              		.loc 1 112 0
 107 006e C301     		se_lwz %r0,12(%r1)
 108 0070 0090     		se_mtlr %r0
 109              		.cfi_restore 65
 110 0072 2071     		se_addi %r1,8
 111              	.LCFI1:
 112              		.cfi_def_cfa_offset 0
 113 0074 0004     		se_blr
 114              		.cfi_endproc
GAS LISTING C:\Users\duchu\AppData\Local\Temp\ccBoOH7D.s 			page 3


 115              	.LFE4:
 116              		.size	Hal_AdcInit, .-Hal_AdcInit
 117              		.section	.text.Hal_Adc_Start,"axv",@progbits
 118              		.align 1
 119              		.p2align 4,,15
 120              		.globl Hal_Adc_Start
 121              		.type	Hal_Adc_Start, @function
 122              	Hal_Adc_Start:
 123              	.LFB5:
 124              		.loc 1 122 0
 125              		.cfi_startproc
 126              		.loc 1 123 0
 127 0000 70FFE7E0 		e_lis %r7,0xffe0
 128 0004 C067     		se_lwz %r6,0(%r7)
 129 0006 4815     		se_li %r5,1
 130 0008 74A6D908 		e_rlwimi %r6,%r5,27,4,4
 131 000c D067     		se_stw %r6,0(%r7)
 132 000e 0004     		se_blr
 133              		.cfi_endproc
 134              	.LFE5:
 135              		.size	Hal_Adc_Start, .-Hal_Adc_Start
 136              		.section	.text.vector528,"axv",@progbits
 137              		.align 1
 138              		.p2align 4,,15
 139              		.globl vector528
 140              		.type	vector528, @function
 141              	vector528:
 142              	.LFB6:
 143              		.loc 1 133 0
 144              		.cfi_startproc
 145 0000 182106F0 		e_stwu %r1,-16(%r1)
 146              	.LCFI2:
 147              		.cfi_def_cfa_offset 16
 148 0004 0080     		se_mflr %r0
 149 0006 D501     		se_stw %r0,20(%r1)
 150 0008 D3F1     		se_stw %r31,12(%r1)
 151              		.cfi_offset 65, 4
 152              		.cfi_offset 31, -4
 153              	.LBB4:
 154              	.LBB5:
 155              		.loc 1 163 0
 156 000a 70E0E000 		e_lis %r7,.LANCHOR0@ha
 157 000e 58C70000 		e_lhz %r6,.LANCHOR0@l(%r7)
 158 0012 709FE7E0 		e_lis %r4,0xffe0
 159 0016 5864010A 		e_lhz %r3,266(%r4)
 160 001a 7CC50870 		e_slwi %r5,%r6,1
 161 001e 2CC7     		se_bmaski %r7,12
 162 0020 7C603838 		and %r0,%r3,%r7
 163 0024 7060E000 		e_lis %r3,.LANCHOR1@ha
 164 0028 1C630000 		e_la %r3,.LANCHOR1@l(%r3)
 165 002c 7C032B2E 		sthx %r0,%r3,%r5
 166              		.loc 1 164 0
 167 0030 5864010E 		e_lhz %r3,270(%r4)
 168 0034 7C603838 		and %r0,%r3,%r7
 169 0038 7060E000 		e_lis %r3,.LANCHOR2@ha
 170 003c 1C630000 		e_la %r3,.LANCHOR2@l(%r3)
 171 0040 7C032B2E 		sthx %r0,%r3,%r5
GAS LISTING C:\Users\duchu\AppData\Local\Temp\ccBoOH7D.s 			page 4


 172              		.loc 1 165 0
 173 0044 58640116 		e_lhz %r3,278(%r4)
 174 0048 7C603838 		and %r0,%r3,%r7
 175 004c 7060E000 		e_lis %r3,.LANCHOR3@ha
 176 0050 1C630000 		e_la %r3,.LANCHOR3@l(%r3)
 177 0054 7C032B2E 		sthx %r0,%r3,%r5
 178              		.loc 1 166 0
 179 0058 5864011A 		e_lhz %r3,282(%r4)
 180 005c 7C603838 		and %r0,%r3,%r7
 181 0060 7060E000 		e_lis %r3,.LANCHOR4@ha
 182 0064 1C630000 		e_la %r3,.LANCHOR4@l(%r3)
 183 0068 7C032B2E 		sthx %r0,%r3,%r5
 184              		.loc 1 167 0
 185 006c 5864011E 		e_lhz %r3,286(%r4)
 186 0070 7C603838 		and %r0,%r3,%r7
 187 0074 7060E000 		e_lis %r3,.LANCHOR5@ha
 188 0078 1C630000 		e_la %r3,.LANCHOR5@l(%r3)
 189 007c 7C032B2E 		sthx %r0,%r3,%r5
 190              		.loc 1 168 0
 191 0080 58840126 		e_lhz %r4,294(%r4)
 192 0084 4647     		se_and %r7,%r4
 193 0086 7080E000 		e_lis %r4,.LANCHOR6@ha
 194 008a 1C840000 		e_la %r4,.LANCHOR6@l(%r4)
 195 008e 7CE42B2E 		sthx %r7,%r4,%r5
 196              		.loc 1 170 0
 197 0092 2006     		se_addi %r6,1
 198 0094 00E6     		se_extzh %r6
 199              		.loc 1 171 0
 200 0096 2256     		se_cmpli %r6,6
 201 0098 7A110010 		e_bgt %cr0,.L7
 202              		.loc 1 170 0
 203 009c 70E0E000 		e_lis %r7,.LANCHOR0@ha
 204 00a0 5CC70000 		e_sth %r6,.LANCHOR0@l(%r7)
 205 00a4 7800000E 		e_b .L8
 206              	.L7:
 207              		.loc 1 171 0
 208 00a8 4806     		se_li %r6,0
 209 00aa 70E0E000 		e_lis %r7,.LANCHOR0@ha
 210 00ae 5CC70000 		e_sth %r6,.LANCHOR0@l(%r7)
 211              	.L8:
 212              		.loc 1 173 0
 213 00b2 70C007D0 		e_li %r6,2000
 214 00b6 70E0E000 		e_lis %r7,.LANCHOR7@ha
 215 00ba 5CC70000 		e_sth %r6,.LANCHOR7@l(%r7)
 216              		.loc 1 174 0
 217 00be 7060E000 		e_lis %r3,.LANCHOR2@ha
 218 00c2 1C630000 		e_la %r3,.LANCHOR2@l(%r3)
 219 00c6 78000001 		e_bl Hal_MovingAvg
 220              	.LVL7:
 221 00ca 70E0E000 		e_lis %r7,.LANCHOR8@ha
 222 00ce 5C670000 		e_sth %r3,.LANCHOR8@l(%r7)
 223              		.loc 1 175 0
 224 00d2 7060E000 		e_lis %r3,.LANCHOR3@ha
 225 00d6 1C630000 		e_la %r3,.LANCHOR3@l(%r3)
 226 00da 78000001 		e_bl Hal_MovingAvg
 227              	.LVL8:
 228 00de 70E0E000 		e_lis %r7,.LANCHOR9@ha
GAS LISTING C:\Users\duchu\AppData\Local\Temp\ccBoOH7D.s 			page 5


 229 00e2 5C670000 		e_sth %r3,.LANCHOR9@l(%r7)
 230              		.loc 1 176 0
 231 00e6 7060E000 		e_lis %r3,.LANCHOR4@ha
 232 00ea 1C630000 		e_la %r3,.LANCHOR4@l(%r3)
 233 00ee 78000001 		e_bl Hal_MovingAvg
 234              	.LVL9:
 235 00f2 013F     		se_mr %r31,%r3
 236 00f4 70E0E000 		e_lis %r7,.LANCHOR10@ha
 237 00f8 5C670000 		e_sth %r3,.LANCHOR10@l(%r7)
 238              		.loc 1 177 0
 239 00fc 7060E000 		e_lis %r3,.LANCHOR5@ha
 240 0100 1C630000 		e_la %r3,.LANCHOR5@l(%r3)
 241 0104 78000001 		e_bl Hal_MovingAvg
 242              	.LVL10:
 243 0108 70E0E000 		e_lis %r7,.LANCHOR11@ha
 244 010c 5C670000 		e_sth %r3,.LANCHOR11@l(%r7)
 245              		.loc 1 178 0
 246 0110 7060E000 		e_lis %r3,.LANCHOR6@ha
 247 0114 1C630000 		e_la %r3,.LANCHOR6@l(%r3)
 248 0118 78000001 		e_bl Hal_MovingAvg
 249              	.LVL11:
 250 011c 70E0E000 		e_lis %r7,.LANCHOR12@ha
 251 0120 5C670000 		e_sth %r3,.LANCHOR12@l(%r7)
 252              		.loc 1 180 0
 253 0124 701FA999 		e_cmpl16i %r31,409
 254 0128 7A010014 		e_ble %cr0,.L9
 255              		.loc 1 182 0
 256 012c 1FFFFE67 		e_add16i %r31,%r31,-409
 257 0130 70E0E000 		e_lis %r7,.LANCHOR10@ha
 258 0134 5FE70000 		e_sth %r31,.LANCHOR10@l(%r7)
 259 0138 7800000E 		e_b .L10
 260              	.L9:
 261              		.loc 1 186 0
 262 013c 4806     		se_li %r6,0
 263 013e 70E0E000 		e_lis %r7,u32g_Bsw_AdcIout_Q15@ha
 264 0142 54C70000 		e_stw %r6,u32g_Bsw_AdcIout_Q15@l(%r7)
 265              	.L10:
 266              	.LBE5:
 267              	.LBE4:
 268              		.loc 1 137 0
 269 0146 70FFE7E0 		e_lis %r7,0xffe0
 270 014a C467     		se_lwz %r6,16(%r7)
 271 014c 4815     		se_li %r5,1
 272 014e 74A607FE 		e_rlwimi %r6,%r5,0,31,31
 273 0152 D467     		se_stw %r6,16(%r7)
 274              		.loc 1 140 0
 275 0154 C501     		se_lwz %r0,20(%r1)
 276 0156 0090     		se_mtlr %r0
 277              		.cfi_restore 65
 278 0158 C3F1     		se_lwz %r31,12(%r1)
 279 015a 20F1     		se_addi %r1,16
 280              	.LCFI3:
 281              		.cfi_restore 31
 282              		.cfi_def_cfa_offset 0
 283 015c 0004     		se_blr
 284              		.cfi_endproc
 285              	.LFE6:
GAS LISTING C:\Users\duchu\AppData\Local\Temp\ccBoOH7D.s 			page 6


 286              		.size	vector528, .-vector528
 287              		.globl u16g_Hal_AverAdc_KeyIn
 288              		.globl u16g_Hal_AverAdc_Temp
 289              		.globl u16g_Hal_AverAdc_Iout
 290              		.globl u16g_Hal_AverAdc_Vin
 291              		.globl u16g_Hal_AverAdc_Vout
 292              		.globl u16g_Hal_AverAdc_Batt
 293              		.section	.bss.Hist_KeyIn.11096,"aw",@nobits
 294              		.align 1
 295              		.set	.LANCHOR1,. + 0
 296              		.type	Hist_KeyIn.11096, @object
 297              		.size	Hist_KeyIn.11096, 14
 298              	Hist_KeyIn.11096:
 299 0000 00000000 		.zero	14
 299      00000000 
 299      00000000 
 299      0000
 300              		.section	.bss.Hist_Iout.11099,"aw",@nobits
 301              		.align 1
 302              		.set	.LANCHOR4,. + 0
 303              		.type	Hist_Iout.11099, @object
 304              		.size	Hist_Iout.11099, 14
 305              	Hist_Iout.11099:
 306 0000 00000000 		.zero	14
 306      00000000 
 306      00000000 
 306      0000
 307              		.section	.bss.u16g_Hal_AverAdc_KeyIn,"aw",@nobits
 308              		.align 1
 309              		.set	.LANCHOR7,. + 0
 310              		.type	u16g_Hal_AverAdc_KeyIn, @object
 311              		.size	u16g_Hal_AverAdc_KeyIn, 2
 312              	u16g_Hal_AverAdc_KeyIn:
 313 0000 0000     		.zero	2
 314              		.section	.bss.u16g_Hal_AverAdc_Vin,"aw",@nobits
 315              		.align 1
 316              		.set	.LANCHOR11,. + 0
 317              		.type	u16g_Hal_AverAdc_Vin, @object
 318              		.size	u16g_Hal_AverAdc_Vin, 2
 319              	u16g_Hal_AverAdc_Vin:
 320 0000 0000     		.zero	2
 321              		.section	.bss.Index.11095,"aw",@nobits
 322              		.align 1
 323              		.set	.LANCHOR0,. + 0
 324              		.type	Index.11095, @object
 325              		.size	Index.11095, 2
 326              	Index.11095:
 327 0000 0000     		.zero	2
 328              		.section	.bss.u16g_Hal_AverAdc_Vout,"aw",@nobits
 329              		.align 1
 330              		.set	.LANCHOR9,. + 0
 331              		.type	u16g_Hal_AverAdc_Vout, @object
 332              		.size	u16g_Hal_AverAdc_Vout, 2
 333              	u16g_Hal_AverAdc_Vout:
 334 0000 0000     		.zero	2
 335              		.section	.bss.u16g_Hal_AverAdc_Iout,"aw",@nobits
 336              		.align 1
GAS LISTING C:\Users\duchu\AppData\Local\Temp\ccBoOH7D.s 			page 7


 337              		.set	.LANCHOR10,. + 0
 338              		.type	u16g_Hal_AverAdc_Iout, @object
 339              		.size	u16g_Hal_AverAdc_Iout, 2
 340              	u16g_Hal_AverAdc_Iout:
 341 0000 0000     		.zero	2
 342              		.section	.bss.Hist_Vin.11100,"aw",@nobits
 343              		.align 1
 344              		.set	.LANCHOR5,. + 0
 345              		.type	Hist_Vin.11100, @object
 346              		.size	Hist_Vin.11100, 14
 347              	Hist_Vin.11100:
 348 0000 00000000 		.zero	14
 348      00000000 
 348      00000000 
 348      0000
 349              		.section	.bss.Hist_Vout.11098,"aw",@nobits
 350              		.align 1
 351              		.set	.LANCHOR3,. + 0
 352              		.type	Hist_Vout.11098, @object
 353              		.size	Hist_Vout.11098, 14
 354              	Hist_Vout.11098:
 355 0000 00000000 		.zero	14
 355      00000000 
 355      00000000 
 355      0000
 356              		.section	.bss.u16g_Hal_AverAdc_Batt,"aw",@nobits
 357              		.align 1
 358              		.set	.LANCHOR8,. + 0
 359              		.type	u16g_Hal_AverAdc_Batt, @object
 360              		.size	u16g_Hal_AverAdc_Batt, 2
 361              	u16g_Hal_AverAdc_Batt:
 362 0000 0000     		.zero	2
 363              		.section	.bss.Hist_14VVCC.11097,"aw",@nobits
 364              		.align 1
 365              		.set	.LANCHOR2,. + 0
 366              		.type	Hist_14VVCC.11097, @object
 367              		.size	Hist_14VVCC.11097, 14
 368              	Hist_14VVCC.11097:
 369 0000 00000000 		.zero	14
 369      00000000 
 369      00000000 
 369      0000
 370              		.section	.bss.Hist_Temp.11101,"aw",@nobits
 371              		.align 1
 372              		.set	.LANCHOR6,. + 0
 373              		.type	Hist_Temp.11101, @object
 374              		.size	Hist_Temp.11101, 14
 375              	Hist_Temp.11101:
 376 0000 00000000 		.zero	14
 376      00000000 
 376      00000000 
 376      0000
 377              		.section	.bss.u16g_Hal_AverAdc_Temp,"aw",@nobits
 378              		.align 1
 379              		.set	.LANCHOR12,. + 0
 380              		.type	u16g_Hal_AverAdc_Temp, @object
 381              		.size	u16g_Hal_AverAdc_Temp, 2
GAS LISTING C:\Users\duchu\AppData\Local\Temp\ccBoOH7D.s 			page 8


 382              	u16g_Hal_AverAdc_Temp:
 383 0000 0000     		.zero	2
 384              		.section	".text","axv"
 385              	.Letext0:
 386              		.file 2 "c:\\spc5studio\\eclipse\\plugins\\com.st.tools.spc5.tools.gnu.gcc.ppcvle.win32_4.9.4.2019
 387              		.file 3 "c:\\spc5studio\\eclipse\\plugins\\com.st.tools.spc5.tools.gnu.gcc.ppcvle.win32_4.9.4.2019
 388              		.file 4 "./components/spc570sxx_platform_component_rla/lib/include/typedefs.h"
 389              		.file 5 "./components/spc570sxx_platform_component_rla/lib/include/xpc570s.h"
 390              		.file 6 "./source/BSW/Bsw_Adc.h"
 391              		.file 7 "./components/spc570sxx_clock_component_rla/lib/include/clock.h"