GAS LISTING C:\Users\duchu\AppData\Local\Temp\ccXNVpgD.s 			page 1


   1              		.file	"Hal_PIT.c"
   2              		.section	".text","axv"
   3              	.Ltext0:
   4              		.cfi_sections	.debug_frame
   5              		.section	.text.Hal_PIT_Init,"axv",@progbits
   6              		.align 1
   7              		.p2align 4,,15
   8              		.globl Hal_PIT_Init
   9              		.type	Hal_PIT_Init, @function
  10              	Hal_PIT_Init:
  11              	.LFB4:
  12              		.file 1 "./source/HAL/Hal_PIT.c"
  13              		.loc 1 84 0
  14              		.cfi_startproc
  15 0000 182106F8 		e_stwu %r1,-8(%r1)
  16              	.LCFI0:
  17              		.cfi_def_cfa_offset 8
  18 0004 0080     		se_mflr %r0
  19 0006 D301     		se_stw %r0,12(%r1)
  20              		.cfi_offset 65, 4
  21              		.loc 1 85 0
  22 0008 49E3     		se_li %r3,30
  23 000a 4924     		se_li %r4,18
  24 000c 78000001 		e_bl SPCSetPeripheralClockMode
  25              	.LVL0:
  26              		.loc 1 87 0
  27 0010 70E84000 		e_li %r7,-507904
  28 0014 4816     		se_li %r6,1
  29 0016 D067     		se_stw %r6,0(%r7)
  30              		.loc 1 88 0
  31 0018 70A7067F 		e_li %r5,15999
  32 001c 54A70130 		e_stw %r5,304(%r7)
  33              		.loc 1 89 0
  34 0020 54A70134 		e_stw %r5,308(%r7)
  35              		.loc 1 90 0
  36 0024 54C7013C 		e_stw %r6,316(%r7)
  37              		.loc 1 91 0
  38 0028 4836     		se_li %r6,3
  39 002a 54C70138 		e_stw %r6,312(%r7)
  40              		.loc 1 94 0
  41 002e 70D0780D 		e_li %r6,-32755
  42 0032 70FFE404 		e_lis %r7,0xfc04
  43 0036 70E0C22A 		e_or2i %r7,554
  44 003a B067     		se_sth %r6,0(%r7)
  45              		.loc 1 97 0
  46 003c C301     		se_lwz %r0,12(%r1)
  47 003e 0090     		se_mtlr %r0
  48              		.cfi_restore 65
  49 0040 2071     		se_addi %r1,8
  50              	.LCFI1:
  51              		.cfi_def_cfa_offset 0
  52 0042 0004     		se_blr
  53              		.cfi_endproc
  54              	.LFE4:
  55              		.size	Hal_PIT_Init, .-Hal_PIT_Init
  56              		.section	.text.Get_PIT_CH3_CVAL,"axv",@progbits
  57              		.align 1
GAS LISTING C:\Users\duchu\AppData\Local\Temp\ccXNVpgD.s 			page 2


  58              		.p2align 4,,15
  59              		.globl Get_PIT_CH3_CVAL
  60              		.type	Get_PIT_CH3_CVAL, @function
  61              	Get_PIT_CH3_CVAL:
  62              	.LFB5:
  63              		.loc 1 107 0
  64              		.cfi_startproc
  65              		.loc 1 110 0
  66 0000 70E84000 		e_li %r7,-507904
  67 0004 50670134 		e_lwz %r3,308(%r7)
  68              	.LVL1:
  69              		.loc 1 113 0
  70 0008 0004     		se_blr
  71              		.cfi_endproc
  72              	.LFE5:
  73              		.size	Get_PIT_CH3_CVAL, .-Get_PIT_CH3_CVAL
  74              		.section	.text.vector229,"axv",@progbits
  75              		.align 1
  76              		.p2align 4,,15
  77              		.globl vector229
  78              		.type	vector229, @function
  79              	vector229:
  80              	.LFB6:
  81              		.loc 1 123 0
  82              		.cfi_startproc
  83 0000 182106E8 		e_stwu %r1,-24(%r1)
  84              	.LCFI2:
  85              		.cfi_def_cfa_offset 24
  86 0004 0080     		se_mflr %r0
  87 0006 D701     		se_stw %r0,28(%r1)
  88 0008 1BA1090C 		e_stmw %r29,12(%r1)
  89              		.cfi_offset 65, 4
  90              		.cfi_offset 29, -12
  91              		.cfi_offset 30, -8
  92              		.cfi_offset 31, -4
  93              		.loc 1 126 0
  94 000c 4816     		se_li %r6,1
  95 000e 70E0E000 		e_lis %r7,.LANCHOR0@ha
  96 0012 34C70000 		e_stb %r6,.LANCHOR0@l(%r7)
  97              		.loc 1 128 0
  98 0016 78000001 		e_bl Hal_Adc_Start
  99              	.LVL2:
 100              		.loc 1 129 0
 101 001a 70E0E000 		e_lis %r7,u16g_Hal_AverAdc_Iout@ha
 102 001e 58E70000 		e_lhz %r7,u16g_Hal_AverAdc_Iout@l(%r7)
 103 0022 1CE7FE67 		e_add16i %r7,%r7,-409
 104 0026 6C57     		se_slwi %r7, 5
 105 0028 73C0E000 		e_lis %r30,u32g_Bsw_AdcIout_Q15@ha
 106 002c 54FE0000 		e_stw %r7,u32g_Bsw_AdcIout_Q15@l(%r30)
 107              		.loc 1 130 0
 108 0030 70E0E000 		e_lis %r7,u16g_Hal_AverAdc_Vout@ha
 109 0034 58E70000 		e_lhz %r7,u16g_Hal_AverAdc_Vout@l(%r7)
 110 0038 6C57     		se_slwi %r7, 5
 111 003a 73E0E000 		e_lis %r31,u32g_Bsw_AdcVout_Q15@ha
 112 003e 54FF0000 		e_stw %r7,u32g_Bsw_AdcVout_Q15@l(%r31)
 113              		.loc 1 132 0
 114 0042 73A0E000 		e_lis %r29,u32_IoRef_SS@ha
GAS LISTING C:\Users\duchu\AppData\Local\Temp\ccXNVpgD.s 			page 3


 115 0046 70E0E000 		e_lis %r7,u32g_Asw_IoReference@ha
 116 004a 50670000 		e_lwz %r3,u32g_Asw_IoReference@l(%r7)
 117 004e 509D0000 		e_lwz %r4,u32_IoRef_SS@l(%r29)
 118 0052 78000001 		e_bl Asw_Ramp
 119              	.LVL3:
 120 0056 547D0000 		e_stw %r3,u32_IoRef_SS@l(%r29)
 121              		.loc 1 137 0
 122 005a 50BE0000 		e_lwz %r5,u32g_Bsw_AdcIout_Q15@l(%r30)
 123 005e 50DF0000 		e_lwz %r6,u32g_Bsw_AdcVout_Q15@l(%r31)
 124 0062 70E0E000 		e_lis %r7,u32g_Asw_VoReference@ha
 125 0066 50870000 		e_lwz %r4,u32g_Asw_VoReference@l(%r7)
 126 006a 78000001 		e_bl Asw_PI_Controller
 127              	.LVL4:
 128 006e 70E0E000 		e_lis %r7,u16g_Rte_pwmShift@ha
 129 0072 5C670000 		e_sth %r3,u16g_Rte_pwmShift@l(%r7)
 130              		.loc 1 139 0
 131 0076 78000001 		e_bl Bsw_PwmSetShift
 132              	.LVL5:
 133              		.loc 1 141 0
 134 007a 4816     		se_li %r6,1
 135 007c 70E84000 		e_li %r7,-507904
 136 0080 54C7013C 		e_stw %r6,316(%r7)
 137              		.loc 1 144 0
 138 0084 C701     		se_lwz %r0,28(%r1)
 139 0086 0090     		se_mtlr %r0
 140              		.cfi_restore 65
 141 0088 1BA1080C 		e_lmw %r29,12(%r1)
 142 008c 2171     		se_addi %r1,24
 143              	.LCFI3:
 144              		.cfi_restore 31
 145              		.cfi_restore 30
 146              		.cfi_restore 29
 147              		.cfi_def_cfa_offset 0
 148 008e 0004     		se_blr
 149              		.cfi_endproc
 150              	.LFE6:
 151              		.size	vector229, .-vector229
 152              		.globl u8g_Hal_task_100m_cnt
 153              		.globl u8g_Hal_task_10m_cnt
 154              		.globl u8g_Hal_task_flag_1m
 155              		.section	.data.u8g_Hal_task_100m_cnt,"aw",@progbits
 156              		.type	u8g_Hal_task_100m_cnt, @object
 157              		.size	u8g_Hal_task_100m_cnt, 1
 158              	u8g_Hal_task_100m_cnt:
 159 0000 69       		.byte	105
 160              		.section	.data.u8g_Hal_task_flag_1m,"aw",@progbits
 161              		.set	.LANCHOR0,. + 0
 162              		.type	u8g_Hal_task_flag_1m, @object
 163              		.size	u8g_Hal_task_flag_1m, 1
 164              	u8g_Hal_task_flag_1m:
 165 0000 01       		.byte	1
 166              		.section	.data.u8g_Hal_task_10m_cnt,"aw",@progbits
 167              		.type	u8g_Hal_task_10m_cnt, @object
 168              		.size	u8g_Hal_task_10m_cnt, 1
 169              	u8g_Hal_task_10m_cnt:
 170 0000 0A       		.byte	10
 171              		.section	".text","axv"
GAS LISTING C:\Users\duchu\AppData\Local\Temp\ccXNVpgD.s 			page 4


 172              	.Letext0:
 173              		.file 2 "c:\\spc5studio\\eclipse\\plugins\\com.st.tools.spc5.tools.gnu.gcc.ppcvle.win32_4.9.4.2019
 174              		.file 3 "c:\\spc5studio\\eclipse\\plugins\\com.st.tools.spc5.tools.gnu.gcc.ppcvle.win32_4.9.4.2019
 175              		.file 4 "./components/spc570sxx_platform_component_rla/lib/include/typedefs.h"
 176              		.file 5 "./components/spc570sxx_platform_component_rla/lib/include/xpc570s.h"
 177              		.file 6 "./source/RTE/Rte.h"
 178              		.file 7 "./source/ASW/Asw_Utility.h"
 179              		.file 8 "./source/ASW/Asw_StateMachine.h"
 180              		.file 9 "./source/BSW/Bsw_Adc.h"
 181              		.file 10 "./source/HAL/Hal_Adc.h"
 182              		.file 11 "./source/ASW/Asw_Pid.h"
 183              		.file 12 "./components/spc570sxx_clock_component_rla/lib/include/clock.h"
 184              		.file 13 "./source/BSW/Bsw_Pwm.h"