GAS LISTING C:\Users\duchu\AppData\Local\Temp\ccbpUpgD.s 			page 1


   1              		.file	"Hal_Can.c"
   2              		.section	".text","axv"
   3              	.Ltext0:
   4              		.cfi_sections	.debug_frame
   5              		.section	.text.Hal_CAN1_Init,"axv",@progbits
   6              		.align 1
   7              		.p2align 4,,15
   8              		.globl Hal_CAN1_Init
   9              		.type	Hal_CAN1_Init, @function
  10              	Hal_CAN1_Init:
  11              	.LFB4:
  12              		.file 1 "./source/HAL/Hal_Can.c"
  13              		.loc 1 113 0
  14              		.cfi_startproc
  15 0000 182106F8 		e_stwu %r1,-8(%r1)
  16              	.LCFI0:
  17              		.cfi_def_cfa_offset 8
  18 0004 0080     		se_mflr %r0
  19 0006 D301     		se_stw %r0,12(%r1)
  20              		.cfi_offset 65, 4
  21              		.loc 1 116 0
  22 0008 706000CF 		e_li %r3,207
  23 000c 4924     		se_li %r4,18
  24 000e 78000001 		e_bl SPCSetPeripheralClockMode
  25              	.LVL0:
  26              		.loc 1 118 0
  27 0012 70FFE3EC 		e_lis %r7,0xfbec
  28 0016 C057     		se_lwz %r5,0(%r7)
  29 0018 4816     		se_li %r6,1
  30 001a 74C5E0C6 		e_rlwimi %r5,%r6,28,3,3
  31 001e D057     		se_stw %r5,0(%r7)
  32              		.loc 1 119 0
  33 0020 C047     		se_lwz %r4,0(%r7)
  34 0022 4805     		se_li %r5,0
  35 0024 74A4F800 		e_rlwimi %r4,%r5,31,0,0
  36 0028 D047     		se_stw %r4,0(%r7)
  37              		.loc 1 122 0
  38 002a C047     		se_lwz %r4,0(%r7)
  39 002c 74C4E884 		e_rlwimi %r4,%r6,29,2,2
  40 0030 D047     		se_stw %r4,0(%r7)
  41              		.loc 1 123 0
  42 0032 C047     		se_lwz %r4,0(%r7)
  43 0034 74A445AE 		e_rlwimi %r4,%r5,8,22,23
  44 0038 D047     		se_stw %r4,0(%r7)
  45              		.loc 1 124 0
  46 003a C047     		se_lwz %r4,0(%r7)
  47 003c 74C483DE 		e_rlwimi %r4,%r6,16,15,15
  48 0040 D047     		se_stw %r4,0(%r7)
  49              		.loc 1 126 0
  50 0042 9467     		se_stb %r6,4(%r7)
  51              		.loc 1 127 0
  52 0044 C147     		se_lwz %r4,4(%r7)
  53 0046 74A4B212 		e_rlwimi %r4,%r5,22,8,9
  54 004a D147     		se_stw %r4,4(%r7)
  55              		.loc 1 128 0
  56 004c C147     		se_lwz %r4,4(%r7)
  57 004e 4873     		se_li %r3,7
GAS LISTING C:\Users\duchu\AppData\Local\Temp\ccbpUpgD.s 			page 2


  58 0050 7464077E 		e_rlwimi %r4,%r3,0,29,31
  59 0054 D147     		se_stw %r4,4(%r7)
  60              		.loc 1 129 0
  61 0056 C147     		se_lwz %r4,4(%r7)
  62 0058 4863     		se_li %r3,6
  63 005a 74649A98 		e_rlwimi %r4,%r3,19,10,12
  64 005e D147     		se_stw %r4,4(%r7)
  65              		.loc 1 130 0
  66 0060 C147     		se_lwz %r4,4(%r7)
  67 0062 4833     		se_li %r3,3
  68 0064 7464835E 		e_rlwimi %r4,%r3,16,13,15
  69 0068 D147     		se_stw %r4,4(%r7)
  70              		.loc 1 132 0
  71 006a C147     		se_lwz %r4,4(%r7)
  72 006c 74A464E6 		e_rlwimi %r4,%r5,12,19,19
  73 0070 D147     		se_stw %r4,4(%r7)
  74              		.loc 1 133 0
  75 0072 C047     		se_lwz %r4,0(%r7)
  76 0074 74C48B9C 		e_rlwimi %r4,%r6,17,14,14
  77 0078 D047     		se_stw %r4,0(%r7)
  78              		.loc 1 135 0
  79 007a CA47     		se_lwz %r4,40(%r7)
  80 007c 74C42EB4 		e_rlwimi %r4,%r6,5,26,26
  81 0080 DA47     		se_stw %r4,40(%r7)
  82              		.loc 1 137 0
  83 0082 6254     		se_bgeni %r4,5
  84 0084 54870080 		e_stw %r4,128(%r7)
  85              		.loc 1 139 0
  86 0088 C047     		se_lwz %r4,0(%r7)
  87 008a 74A4F800 		e_rlwimi %r4,%r5,31,0,0
  88 008e D047     		se_stw %r4,0(%r7)
  89              	.LVL1:
  90              		.loc 1 144 0
  91 0090 50870080 		e_lwz %r4,128(%r7)
  92 0094 74C4AA94 		e_rlwimi %r4,%r6,21,10,10
  93 0098 54870080 		e_stw %r4,128(%r7)
  94              		.loc 1 145 0
  95 009c 50870084 		e_lwz %r4,132(%r7)
  96 00a0 7063E0FF 		e_lis %r3,0x18ff
  97 00a4 7066C1EF 		e_or2i %r3,12783
  98 00a8 746400FE 		e_rlwimi %r4,%r3,0,3,31
  99 00ac 54870084 		e_stw %r4,132(%r7)
 100              		.loc 1 146 0
 101 00b0 50670080 		e_lwz %r3,128(%r7)
 102 00b4 4844     		se_li %r4,4
 103 00b6 7483C10E 		e_rlwimi %r3,%r4,24,4,7
 104 00ba 54670080 		e_stw %r3,128(%r7)
 105              	.LVL2:
 106              		.loc 1 144 0
 107 00be 50670090 		e_lwz %r3,144(%r7)
 108 00c2 74C3AA94 		e_rlwimi %r3,%r6,21,10,10
 109 00c6 54670090 		e_stw %r3,144(%r7)
 110              		.loc 1 145 0
 111 00ca 50670094 		e_lwz %r3,148(%r7)
 112 00ce 7003E0DA 		e_lis %r0,0x18da
 113 00d2 7003C2F9 		e_or2i %r0,6905
 114 00d6 740300FE 		e_rlwimi %r3,%r0,0,3,31
GAS LISTING C:\Users\duchu\AppData\Local\Temp\ccbpUpgD.s 			page 3


 115 00da 54670094 		e_stw %r3,148(%r7)
 116              		.loc 1 146 0
 117 00de 50670090 		e_lwz %r3,144(%r7)
 118 00e2 7483C10E 		e_rlwimi %r3,%r4,24,4,7
 119 00e6 54670090 		e_stw %r3,144(%r7)
 120              	.LVL3:
 121              		.loc 1 144 0
 122 00ea 506700A0 		e_lwz %r3,160(%r7)
 123 00ee 74C3AA94 		e_rlwimi %r3,%r6,21,10,10
 124 00f2 546700A0 		e_stw %r3,160(%r7)
 125              		.loc 1 145 0
 126 00f6 50C700A4 		e_lwz %r6,164(%r7)
 127 00fa 7063E0DB 		e_lis %r3,0x18db
 128 00fe 707FC7F9 		e_or2i %r3,65529
 129 0102 746600FE 		e_rlwimi %r6,%r3,0,3,31
 130 0106 54C700A4 		e_stw %r6,164(%r7)
 131              		.loc 1 146 0
 132 010a 50C700A0 		e_lwz %r6,160(%r7)
 133 010e 7486C10E 		e_rlwimi %r6,%r4,24,4,7
 134 0112 54C700A0 		e_stw %r6,160(%r7)
 135              	.LVL4:
 136              		.loc 1 149 0
 137 0116 708EE1FE 		e_lis %r4,0x71fe
 138 011a 708CC3DE 		e_or2i %r4,25566
 139 011e 70DFE3EC 		e_lis %r6,0xfbec
 140 0122 18C6D0E0 		e_ori %r6,%r6,224
 141 0126 D046     		se_stw %r4,0(%r6)
 142              		.loc 1 150 0
 143 0128 708EE1B4 		e_lis %r4,0x71b4
 144 012c 7086C5F2 		e_or2i %r4,13810
 145 0130 2036     		se_addi %r6,4
 146 0132 D046     		se_stw %r4,0(%r6)
 147              		.loc 1 151 0
 148 0134 708EE1B7 		e_lis %r4,0x71b7
 149 0138 709FC7F2 		e_or2i %r4,65522
 150 013c 2036     		se_addi %r6,4
 151 013e D046     		se_stw %r4,0(%r6)
 152              		.loc 1 152 0
 153 0140 6216     		se_bgeni %r6,1
 154 0142 709FE3EC 		e_lis %r4,0xfbec
 155 0146 1884D0EC 		e_ori %r4,%r4,236
 156 014a D064     		se_stw %r6,0(%r4)
 157              		.loc 1 153 0
 158 014c 2034     		se_addi %r4,4
 159 014e D064     		se_stw %r6,0(%r4)
 160              		.loc 1 154 0
 161 0150 2034     		se_addi %r4,4
 162 0152 D064     		se_stw %r6,0(%r4)
 163              		.loc 1 155 0
 164 0154 2034     		se_addi %r4,4
 165 0156 D064     		se_stw %r6,0(%r4)
 166              		.loc 1 156 0
 167 0158 2034     		se_addi %r4,4
 168 015a D064     		se_stw %r6,0(%r4)
 169              		.loc 1 159 0
 170 015c 70C3E0FF 		e_lis %r6,0x18ff
 171 0160 70DFC7FF 		e_or2i %r6,65535
GAS LISTING C:\Users\duchu\AppData\Local\Temp\ccbpUpgD.s 			page 4


 172 0164 54C70880 		e_stw %r6,2176(%r7)
 173              		.loc 1 160 0
 174 0168 54C70884 		e_stw %r6,2180(%r7)
 175              		.loc 1 161 0
 176 016c 54C70888 		e_stw %r6,2184(%r7)
 177              		.loc 1 162 0
 178 0170 54C7088C 		e_stw %r6,2188(%r7)
 179              		.loc 1 163 0
 180 0174 54C70890 		e_stw %r6,2192(%r7)
 181              		.loc 1 164 0
 182 0178 54C70894 		e_stw %r6,2196(%r7)
 183              		.loc 1 165 0
 184 017c 54C70898 		e_stw %r6,2200(%r7)
 185              		.loc 1 166 0
 186 0180 54C7089C 		e_stw %r6,2204(%r7)
 187              	.LVL5:
 188              		.loc 1 171 0
 189 0184 50870100 		e_lwz %r4,256(%r7)
 190 0188 4886     		se_li %r6,8
 191 018a 74C4C10E 		e_rlwimi %r4,%r6,24,4,7
 192 018e 54870100 		e_stw %r4,256(%r7)
 193              	.LVL6:
 194 0192 50870110 		e_lwz %r4,272(%r7)
 195 0196 74C4C10E 		e_rlwimi %r4,%r6,24,4,7
 196 019a 54870110 		e_stw %r4,272(%r7)
 197              	.LVL7:
 198 019e 50870120 		e_lwz %r4,288(%r7)
 199 01a2 74C4C10E 		e_rlwimi %r4,%r6,24,4,7
 200 01a6 54870120 		e_stw %r4,288(%r7)
 201              	.LVL8:
 202              		.loc 1 174 0
 203 01aa C267     		se_lwz %r6,8(%r7)
 204              		.loc 1 177 0
 205 01ac C167     		se_lwz %r6,4(%r7)
 206 01ae 6506     		se_bseti %r6,16
 207 01b0 D167     		se_stw %r6,4(%r7)
 208              		.loc 1 179 0
 209 01b2 70907807 		e_li %r4,-32761
 210 01b6 70DFE404 		e_lis %r6,0xfc04
 211 01ba 70C0C5DA 		e_or2i %r6,1498
 212 01be B046     		se_sth %r4,0(%r6)
 213              		.loc 1 180 0
 214 01c0 7090780A 		e_li %r4,-32758
 215 01c4 18C684EC 		e_addi %r6,%r6,-20
 216 01c8 B046     		se_sth %r4,0(%r6)
 217              		.loc 1 182 0
 218 01ca C067     		se_lwz %r6,0(%r7)
 219 01cc 74A6E0C6 		e_rlwimi %r6,%r5,28,3,3
 220 01d0 D067     		se_stw %r6,0(%r7)
 221              		.loc 1 183 0
 222 01d2 C301     		se_lwz %r0,12(%r1)
 223 01d4 0090     		se_mtlr %r0
 224              		.cfi_restore 65
 225 01d6 2071     		se_addi %r1,8
 226              	.LCFI1:
 227              		.cfi_def_cfa_offset 0
 228 01d8 0004     		se_blr
GAS LISTING C:\Users\duchu\AppData\Local\Temp\ccbpUpgD.s 			page 5


 229              		.cfi_endproc
 230              	.LFE4:
 231              		.size	Hal_CAN1_Init, .-Hal_CAN1_Init
 232              		.section	.text.Hal_CAN2_Init,"axv",@progbits
 233              		.align 1
 234              		.p2align 4,,15
 235              		.globl Hal_CAN2_Init
 236              		.type	Hal_CAN2_Init, @function
 237              	Hal_CAN2_Init:
 238              	.LFB5:
 239              		.loc 1 193 0
 240              		.cfi_startproc
 241 0000 182106F8 		e_stwu %r1,-8(%r1)
 242              	.LCFI2:
 243              		.cfi_def_cfa_offset 8
 244 0004 0080     		se_mflr %r0
 245 0006 D301     		se_stw %r0,12(%r1)
 246              		.cfi_offset 65, 4
 247              		.loc 1 196 0
 248 0008 4CF3     		se_li %r3,79
 249 000a 4924     		se_li %r4,18
 250 000c 78000001 		e_bl SPCSetPeripheralClockMode
 251              	.LVL9:
 252              		.loc 1 198 0
 253 0010 70FFE7EC 		e_lis %r7,0xffec
 254 0014 C057     		se_lwz %r5,0(%r7)
 255 0016 4816     		se_li %r6,1
 256 0018 74C5E0C6 		e_rlwimi %r5,%r6,28,3,3
 257 001c D057     		se_stw %r5,0(%r7)
 258              		.loc 1 199 0
 259 001e C047     		se_lwz %r4,0(%r7)
 260 0020 4805     		se_li %r5,0
 261 0022 74A4F800 		e_rlwimi %r4,%r5,31,0,0
 262 0026 D047     		se_stw %r4,0(%r7)
 263              		.loc 1 202 0
 264 0028 C047     		se_lwz %r4,0(%r7)
 265 002a 74C4E884 		e_rlwimi %r4,%r6,29,2,2
 266 002e D047     		se_stw %r4,0(%r7)
 267              		.loc 1 203 0
 268 0030 C047     		se_lwz %r4,0(%r7)
 269 0032 74A445AE 		e_rlwimi %r4,%r5,8,22,23
 270 0036 D047     		se_stw %r4,0(%r7)
 271              		.loc 1 204 0
 272 0038 C047     		se_lwz %r4,0(%r7)
 273 003a 74C483DE 		e_rlwimi %r4,%r6,16,15,15
 274 003e D047     		se_stw %r4,0(%r7)
 275              		.loc 1 206 0
 276 0040 9467     		se_stb %r6,4(%r7)
 277              		.loc 1 207 0
 278 0042 C147     		se_lwz %r4,4(%r7)
 279 0044 74A4B212 		e_rlwimi %r4,%r5,22,8,9
 280 0048 D147     		se_stw %r4,4(%r7)
 281              		.loc 1 208 0
 282 004a C147     		se_lwz %r4,4(%r7)
 283 004c 4873     		se_li %r3,7
 284 004e 7464077E 		e_rlwimi %r4,%r3,0,29,31
 285 0052 D147     		se_stw %r4,4(%r7)
GAS LISTING C:\Users\duchu\AppData\Local\Temp\ccbpUpgD.s 			page 6


 286              		.loc 1 209 0
 287 0054 C147     		se_lwz %r4,4(%r7)
 288 0056 4863     		se_li %r3,6
 289 0058 74649A98 		e_rlwimi %r4,%r3,19,10,12
 290 005c D147     		se_stw %r4,4(%r7)
 291              		.loc 1 210 0
 292 005e C147     		se_lwz %r4,4(%r7)
 293 0060 4833     		se_li %r3,3
 294 0062 7464835E 		e_rlwimi %r4,%r3,16,13,15
 295 0066 D147     		se_stw %r4,4(%r7)
 296              		.loc 1 212 0
 297 0068 C147     		se_lwz %r4,4(%r7)
 298 006a 74A464E6 		e_rlwimi %r4,%r5,12,19,19
 299 006e D147     		se_stw %r4,4(%r7)
 300              		.loc 1 213 0
 301 0070 C047     		se_lwz %r4,0(%r7)
 302 0072 74C48B9C 		e_rlwimi %r4,%r6,17,14,14
 303 0076 D047     		se_stw %r4,0(%r7)
 304              		.loc 1 215 0
 305 0078 CA47     		se_lwz %r4,40(%r7)
 306 007a 74C42EB4 		e_rlwimi %r4,%r6,5,26,26
 307 007e DA47     		se_stw %r4,40(%r7)
 308              		.loc 1 217 0
 309 0080 6254     		se_bgeni %r4,5
 310 0082 54870080 		e_stw %r4,128(%r7)
 311              		.loc 1 219 0
 312 0086 C047     		se_lwz %r4,0(%r7)
 313 0088 74A4F800 		e_rlwimi %r4,%r5,31,0,0
 314 008c D047     		se_stw %r4,0(%r7)
 315              	.LVL10:
 316              		.loc 1 224 0
 317 008e 50870080 		e_lwz %r4,128(%r7)
 318 0092 74C4AA94 		e_rlwimi %r4,%r6,21,10,10
 319 0096 54870080 		e_stw %r4,128(%r7)
 320              		.loc 1 225 0
 321 009a 50870084 		e_lwz %r4,132(%r7)
 322 009e 7063E0FF 		e_lis %r3,0x18ff
 323 00a2 7066C1EF 		e_or2i %r3,12783
 324 00a6 746400FE 		e_rlwimi %r4,%r3,0,3,31
 325 00aa 54870084 		e_stw %r4,132(%r7)
 326              		.loc 1 226 0
 327 00ae 50670080 		e_lwz %r3,128(%r7)
 328 00b2 4844     		se_li %r4,4
 329 00b4 7483C10E 		e_rlwimi %r3,%r4,24,4,7
 330 00b8 54670080 		e_stw %r3,128(%r7)
 331              	.LVL11:
 332              		.loc 1 224 0
 333 00bc 50670090 		e_lwz %r3,144(%r7)
 334 00c0 74C3AA94 		e_rlwimi %r3,%r6,21,10,10
 335 00c4 54670090 		e_stw %r3,144(%r7)
 336              		.loc 1 225 0
 337 00c8 50670094 		e_lwz %r3,148(%r7)
 338 00cc 7003E0DA 		e_lis %r0,0x18da
 339 00d0 7003C2F9 		e_or2i %r0,6905
 340 00d4 740300FE 		e_rlwimi %r3,%r0,0,3,31
 341 00d8 54670094 		e_stw %r3,148(%r7)
 342              		.loc 1 226 0
GAS LISTING C:\Users\duchu\AppData\Local\Temp\ccbpUpgD.s 			page 7


 343 00dc 50670090 		e_lwz %r3,144(%r7)
 344 00e0 7483C10E 		e_rlwimi %r3,%r4,24,4,7
 345 00e4 54670090 		e_stw %r3,144(%r7)
 346              	.LVL12:
 347              		.loc 1 224 0
 348 00e8 506700A0 		e_lwz %r3,160(%r7)
 349 00ec 74C3AA94 		e_rlwimi %r3,%r6,21,10,10
 350 00f0 546700A0 		e_stw %r3,160(%r7)
 351              		.loc 1 225 0
 352 00f4 50C700A4 		e_lwz %r6,164(%r7)
 353 00f8 7063E0DB 		e_lis %r3,0x18db
 354 00fc 707FC7F9 		e_or2i %r3,65529
 355 0100 746600FE 		e_rlwimi %r6,%r3,0,3,31
 356 0104 54C700A4 		e_stw %r6,164(%r7)
 357              		.loc 1 226 0
 358 0108 50C700A0 		e_lwz %r6,160(%r7)
 359 010c 7486C10E 		e_rlwimi %r6,%r4,24,4,7
 360 0110 54C700A0 		e_stw %r6,160(%r7)
 361              	.LVL13:
 362              		.loc 1 229 0
 363 0114 708EE1FE 		e_lis %r4,0x71fe
 364 0118 708CC3DE 		e_or2i %r4,25566
 365 011c 70DFE7EC 		e_lis %r6,0xffec
 366 0120 18C6D0E0 		e_ori %r6,%r6,224
 367 0124 D046     		se_stw %r4,0(%r6)
 368              		.loc 1 230 0
 369 0126 708EE1B4 		e_lis %r4,0x71b4
 370 012a 7086C5F2 		e_or2i %r4,13810
 371 012e 2036     		se_addi %r6,4
 372 0130 D046     		se_stw %r4,0(%r6)
 373              		.loc 1 231 0
 374 0132 708EE1B7 		e_lis %r4,0x71b7
 375 0136 709FC7F2 		e_or2i %r4,65522
 376 013a 2036     		se_addi %r6,4
 377 013c D046     		se_stw %r4,0(%r6)
 378              		.loc 1 232 0
 379 013e 6216     		se_bgeni %r6,1
 380 0140 709FE7EC 		e_lis %r4,0xffec
 381 0144 1884D0EC 		e_ori %r4,%r4,236
 382 0148 D064     		se_stw %r6,0(%r4)
 383              		.loc 1 233 0
 384 014a 2034     		se_addi %r4,4
 385 014c D064     		se_stw %r6,0(%r4)
 386              		.loc 1 234 0
 387 014e 2034     		se_addi %r4,4
 388 0150 D064     		se_stw %r6,0(%r4)
 389              		.loc 1 235 0
 390 0152 2034     		se_addi %r4,4
 391 0154 D064     		se_stw %r6,0(%r4)
 392              		.loc 1 236 0
 393 0156 2034     		se_addi %r4,4
 394 0158 D064     		se_stw %r6,0(%r4)
 395              		.loc 1 239 0
 396 015a 70C3E0FF 		e_lis %r6,0x18ff
 397 015e 70DFC7FF 		e_or2i %r6,65535
 398 0162 54C70880 		e_stw %r6,2176(%r7)
 399              		.loc 1 240 0
GAS LISTING C:\Users\duchu\AppData\Local\Temp\ccbpUpgD.s 			page 8


 400 0166 54C70884 		e_stw %r6,2180(%r7)
 401              		.loc 1 241 0
 402 016a 54C70888 		e_stw %r6,2184(%r7)
 403              		.loc 1 242 0
 404 016e 54C7088C 		e_stw %r6,2188(%r7)
 405              		.loc 1 243 0
 406 0172 54C70890 		e_stw %r6,2192(%r7)
 407              		.loc 1 244 0
 408 0176 54C70894 		e_stw %r6,2196(%r7)
 409              		.loc 1 245 0
 410 017a 54C70898 		e_stw %r6,2200(%r7)
 411              		.loc 1 246 0
 412 017e 54C7089C 		e_stw %r6,2204(%r7)
 413              	.LVL14:
 414              		.loc 1 251 0
 415 0182 50870100 		e_lwz %r4,256(%r7)
 416 0186 4886     		se_li %r6,8
 417 0188 74C4C10E 		e_rlwimi %r4,%r6,24,4,7
 418 018c 54870100 		e_stw %r4,256(%r7)
 419              	.LVL15:
 420 0190 50870110 		e_lwz %r4,272(%r7)
 421 0194 74C4C10E 		e_rlwimi %r4,%r6,24,4,7
 422 0198 54870110 		e_stw %r4,272(%r7)
 423              	.LVL16:
 424 019c 50870120 		e_lwz %r4,288(%r7)
 425 01a0 74C4C10E 		e_rlwimi %r4,%r6,24,4,7
 426 01a4 54870120 		e_stw %r4,288(%r7)
 427              	.LVL17:
 428              		.loc 1 254 0
 429 01a8 C267     		se_lwz %r6,8(%r7)
 430              		.loc 1 257 0
 431 01aa C167     		se_lwz %r6,4(%r7)
 432 01ac 6506     		se_bseti %r6,16
 433 01ae D167     		se_stw %r6,4(%r7)
 434              		.loc 1 259 0
 435 01b0 70907807 		e_li %r4,-32761
 436 01b4 70DFE404 		e_lis %r6,0xfc04
 437 01b8 70C0C5C0 		e_or2i %r6,1472
 438 01bc B046     		se_sth %r4,0(%r6)
 439              		.loc 1 260 0
 440 01be 7090780A 		e_li %r4,-32758
 441 01c2 18C684EC 		e_addi %r6,%r6,-20
 442 01c6 B046     		se_sth %r4,0(%r6)
 443              		.loc 1 262 0
 444 01c8 C067     		se_lwz %r6,0(%r7)
 445 01ca 74A6E0C6 		e_rlwimi %r6,%r5,28,3,3
 446 01ce D067     		se_stw %r6,0(%r7)
 447              		.loc 1 263 0
 448 01d0 C301     		se_lwz %r0,12(%r1)
 449 01d2 0090     		se_mtlr %r0
 450              		.cfi_restore 65
 451 01d4 2071     		se_addi %r1,8
 452              	.LCFI3:
 453              		.cfi_def_cfa_offset 0
 454 01d6 0004     		se_blr
 455              		.cfi_endproc
 456              	.LFE5:
GAS LISTING C:\Users\duchu\AppData\Local\Temp\ccbpUpgD.s 			page 9


 457              		.size	Hal_CAN2_Init, .-Hal_CAN2_Init
 458              		.section	.text.CAN1_Drv_SendFrame,"axv",@progbits
 459              		.align 1
 460              		.p2align 4,,15
 461              		.globl CAN1_Drv_SendFrame
 462              		.type	CAN1_Drv_SendFrame, @function
 463              	CAN1_Drv_SendFrame:
 464              	.LFB6:
 465              		.loc 1 273 0
 466              		.cfi_startproc
 467              	.LVL18:
 468              		.loc 1 274 0
 469 0000 70DFE3EC 		e_lis %r6,0xfbec
 470 0004 18E38008 		e_addi %r7,%r3,8
 471 0008 6C47     		se_slwi %r7, 4
 472 000a 7CA63A14 		add %r5,%r6,%r7
 473 000e 7C06382E 		lwzx %r0,%r6,%r7
 474 0012 71600001 		e_li %r11,1
 475 0016 7560AA94 		e_rlwimi %r0,%r11,21,10,10
 476 001a 7C06392E 		stwx %r0,%r6,%r7
 477              		.loc 1 275 0
 478 001e 7C06382E 		lwzx %r0,%r6,%r7
 479 0022 71600000 		e_li %r11,0
 480 0026 7560A2D6 		e_rlwimi %r0,%r11,20,11,11
 481 002a 7C06392E 		stwx %r0,%r6,%r7
 482              		.loc 1 277 0
 483 002e 7D66382E 		lwzx %r11,%r6,%r7
 484 0032 4880     		se_li %r0,8
 485 0034 740BC10E 		e_rlwimi %r11,%r0,24,4,7
 486 0038 7D66392E 		stwx %r11,%r6,%r7
 487              		.loc 1 279 0
 488 003c 51240004 		e_lwz %r9,4(%r4)
 489 0040 51650004 		e_lwz %r11,4(%r5)
 490 0044 752B00FE 		e_rlwimi %r11,%r9,0,3,31
 491 0048 55650004 		e_stw %r11,4(%r5)
 492              		.loc 1 281 0
 493 004c 8854     		se_lbz %r5,8(%r4)
 494 004e 6C43     		se_slwi %r3, 4
 495              	.LVL19:
 496 0050 7C661A14 		add %r3,%r6,%r3
 497 0054 34A30088 		e_stb %r5,136(%r3)
 498              		.loc 1 282 0
 499 0058 8954     		se_lbz %r5,9(%r4)
 500 005a 34A30089 		e_stb %r5,137(%r3)
 501              		.loc 1 283 0
 502 005e 8A54     		se_lbz %r5,10(%r4)
 503 0060 34A3008A 		e_stb %r5,138(%r3)
 504              		.loc 1 284 0
 505 0064 8B54     		se_lbz %r5,11(%r4)
 506 0066 34A3008B 		e_stb %r5,139(%r3)
 507              		.loc 1 285 0
 508 006a 8C54     		se_lbz %r5,12(%r4)
 509 006c 34A3008C 		e_stb %r5,140(%r3)
 510              		.loc 1 286 0
 511 0070 8D54     		se_lbz %r5,13(%r4)
 512 0072 34A3008D 		e_stb %r5,141(%r3)
 513              		.loc 1 287 0
GAS LISTING C:\Users\duchu\AppData\Local\Temp\ccbpUpgD.s 			page 10


 514 0076 8E54     		se_lbz %r5,14(%r4)
 515 0078 34A3008E 		e_stb %r5,142(%r3)
 516              		.loc 1 288 0
 517 007c 8F54     		se_lbz %r5,15(%r4)
 518 007e 34A3008F 		e_stb %r5,143(%r3)
 519              		.loc 1 290 0
 520 0082 7CA6382E 		lwzx %r5,%r6,%r7
 521 0086 7405831E 		e_rlwimi %r5,%r0,16,12,15
 522 008a 7CA6392E 		stwx %r5,%r6,%r7
 523              		.loc 1 292 0
 524 008e 7CA6382E 		lwzx %r5,%r6,%r7
 525 0092 48C4     		se_li %r4,12
 526 0094 7485C10E 		e_rlwimi %r5,%r4,24,4,7
 527 0098 7CA6392E 		stwx %r5,%r6,%r7
 528 009c 0004     		se_blr
 529              		.cfi_endproc
 530              	.LFE6:
 531              		.size	CAN1_Drv_SendFrame, .-CAN1_Drv_SendFrame
 532              		.section	.text.CAN2_Drv_SendFrame,"axv",@progbits
 533              		.align 1
 534              		.p2align 4,,15
 535              		.globl CAN2_Drv_SendFrame
 536              		.type	CAN2_Drv_SendFrame, @function
 537              	CAN2_Drv_SendFrame:
 538              	.LFB7:
 539              		.loc 1 305 0
 540              		.cfi_startproc
 541              	.LVL20:
 542              		.loc 1 306 0
 543 0000 70DFE7EC 		e_lis %r6,0xffec
 544 0004 18E38008 		e_addi %r7,%r3,8
 545 0008 6C47     		se_slwi %r7, 4
 546 000a 7CA63A14 		add %r5,%r6,%r7
 547 000e 7C06382E 		lwzx %r0,%r6,%r7
 548 0012 71600001 		e_li %r11,1
 549 0016 7560AA94 		e_rlwimi %r0,%r11,21,10,10
 550 001a 7C06392E 		stwx %r0,%r6,%r7
 551              		.loc 1 307 0
 552 001e 7C06382E 		lwzx %r0,%r6,%r7
 553 0022 71600000 		e_li %r11,0
 554 0026 7560A2D6 		e_rlwimi %r0,%r11,20,11,11
 555 002a 7C06392E 		stwx %r0,%r6,%r7
 556              		.loc 1 308 0
 557 002e 7D66382E 		lwzx %r11,%r6,%r7
 558 0032 4880     		se_li %r0,8
 559 0034 740BC10E 		e_rlwimi %r11,%r0,24,4,7
 560 0038 7D66392E 		stwx %r11,%r6,%r7
 561              		.loc 1 310 0
 562 003c 51240004 		e_lwz %r9,4(%r4)
 563 0040 51650004 		e_lwz %r11,4(%r5)
 564 0044 752B00FE 		e_rlwimi %r11,%r9,0,3,31
 565 0048 55650004 		e_stw %r11,4(%r5)
 566              		.loc 1 312 0
 567 004c 8854     		se_lbz %r5,8(%r4)
 568 004e 6C43     		se_slwi %r3, 4
 569              	.LVL21:
 570 0050 7C661A14 		add %r3,%r6,%r3
GAS LISTING C:\Users\duchu\AppData\Local\Temp\ccbpUpgD.s 			page 11


 571 0054 34A30088 		e_stb %r5,136(%r3)
 572              		.loc 1 313 0
 573 0058 8954     		se_lbz %r5,9(%r4)
 574 005a 34A30089 		e_stb %r5,137(%r3)
 575              		.loc 1 314 0
 576 005e 8A54     		se_lbz %r5,10(%r4)
 577 0060 34A3008A 		e_stb %r5,138(%r3)
 578              		.loc 1 315 0
 579 0064 8B54     		se_lbz %r5,11(%r4)
 580 0066 34A3008B 		e_stb %r5,139(%r3)
 581              		.loc 1 316 0
 582 006a 8C54     		se_lbz %r5,12(%r4)
 583 006c 34A3008C 		e_stb %r5,140(%r3)
 584              		.loc 1 317 0
 585 0070 8D54     		se_lbz %r5,13(%r4)
 586 0072 34A3008D 		e_stb %r5,141(%r3)
 587              		.loc 1 318 0
 588 0076 8E54     		se_lbz %r5,14(%r4)
 589 0078 34A3008E 		e_stb %r5,142(%r3)
 590              		.loc 1 319 0
 591 007c 8F54     		se_lbz %r5,15(%r4)
 592 007e 34A3008F 		e_stb %r5,143(%r3)
 593              		.loc 1 321 0
 594 0082 7CA6382E 		lwzx %r5,%r6,%r7
 595 0086 7405831E 		e_rlwimi %r5,%r0,16,12,15
 596 008a 7CA6392E 		stwx %r5,%r6,%r7
 597              		.loc 1 323 0
 598 008e 7CA6382E 		lwzx %r5,%r6,%r7
 599 0092 48C4     		se_li %r4,12
 600 0094 7485C10E 		e_rlwimi %r5,%r4,24,4,7
 601 0098 7CA6392E 		stwx %r5,%r6,%r7
 602 009c 0004     		se_blr
 603              		.cfi_endproc
 604              	.LFE7:
 605              		.size	CAN2_Drv_SendFrame, .-CAN2_Drv_SendFrame
 606              		.section	.text.vector691,"axv",@progbits
 607              		.align 1
 608              		.p2align 4,,15
 609              		.globl vector691
 610              		.type	vector691, @function
 611              	vector691:
 612              	.LFB8:
 613              		.loc 1 338 0
 614              		.cfi_startproc
 615              		.loc 1 344 0
 616 0000 70FFE3EC 		e_lis %r7,0xfbec
 617 0004 CC77     		se_lwz %r7,48(%r7)
 618 0006 67A7     		se_btsti %r7,26
 619 0008 7A12017C 		e_beq %cr0,.L5
 620              		.loc 1 347 0
 621 000c 4807     		se_li %r7,0
 622 000e 70C0E000 		e_lis %r6,.LANCHOR0@ha
 623 0012 54E60000 		e_stw %r7,.LANCHOR0@l(%r6)
 624              		.loc 1 348 0
 625 0016 70C0E000 		e_lis %r6,.LANCHOR1@ha
 626 001a 34E60000 		e_stb %r7,.LANCHOR1@l(%r6)
 627              		.loc 1 350 0
GAS LISTING C:\Users\duchu\AppData\Local\Temp\ccbpUpgD.s 			page 12


 628 001e 70FFE3EC 		e_lis %r7,0xfbec
 629 0022 50E70084 		e_lwz %r7,132(%r7)
 630 0026 74E700FF 		e_rlwinm %r7,%r7,0,3,31
 631              	.LVL22:
 632              		.loc 1 352 0
 633 002a 70C3E0DB 		e_lis %r6,0x18db
 634 002e 70DFC7F9 		e_or2i %r6,65529
 635 0032 0C67     		se_cmp %r7,%r6
 636 0034 7A1200E2 		e_beq %cr0,.L8
 637 0038 70C3E0FF 		e_lis %r6,0x18ff
 638 003c 70C6C1EF 		e_or2i %r6,12783
 639 0040 0C67     		se_cmp %r7,%r6
 640 0042 7A120016 		e_beq %cr0,.L9
 641 0046 70C3E0DA 		e_lis %r6,0x18da
 642 004a 70C3C2F9 		e_or2i %r6,6905
 643 004e 0C67     		se_cmp %r7,%r6
 644 0050 7A020126 		e_bne %cr0,.L7
 645 0054 7800005E 		e_b .L10
 646              	.L9:
 647              		.loc 1 355 0
 648 0058 70DFE3EC 		e_lis %r6,0xfbec
 649 005c 50E60080 		e_lwz %r7,128(%r6)
 650              	.LVL23:
 651 0060 74E5873F 		e_rlwinm %r5,%r7,16,28,31
 652 0064 70E0E000 		e_lis %r7,.LANCHOR2@ha
 653 0068 1CE70000 		e_la %r7,.LANCHOR2@l(%r7)
 654 006c 9157     		se_stb %r5,1(%r7)
 655              		.loc 1 357 0
 656 006e 58A60082 		e_lhz %r5,130(%r6)
 657 0072 B157     		se_sth %r5,2(%r7)
 658              		.loc 1 359 0
 659 0074 50A60084 		e_lwz %r5,132(%r6)
 660 0078 74A500FF 		e_rlwinm %r5,%r5,0,3,31
 661 007c D157     		se_stw %r5,4(%r7)
 662              		.loc 1 361 0
 663 007e 30A60088 		e_lbz %r5,136(%r6)
 664 0082 9857     		se_stb %r5,8(%r7)
 665              		.loc 1 362 0
 666 0084 30A60089 		e_lbz %r5,137(%r6)
 667 0088 9957     		se_stb %r5,9(%r7)
 668              		.loc 1 363 0
 669 008a 30A6008A 		e_lbz %r5,138(%r6)
 670 008e 9A57     		se_stb %r5,10(%r7)
 671              		.loc 1 364 0
 672 0090 30A6008B 		e_lbz %r5,139(%r6)
 673 0094 9B57     		se_stb %r5,11(%r7)
 674              		.loc 1 365 0
 675 0096 30A6008C 		e_lbz %r5,140(%r6)
 676 009a 9C57     		se_stb %r5,12(%r7)
 677              		.loc 1 366 0
 678 009c 30A6008D 		e_lbz %r5,141(%r6)
 679 00a0 9D57     		se_stb %r5,13(%r7)
 680              		.loc 1 367 0
 681 00a2 30A6008E 		e_lbz %r5,142(%r6)
 682 00a6 9E57     		se_stb %r5,14(%r7)
 683              		.loc 1 368 0
 684 00a8 30C6008F 		e_lbz %r6,143(%r6)
GAS LISTING C:\Users\duchu\AppData\Local\Temp\ccbpUpgD.s 			page 13


 685 00ac 9F67     		se_stb %r6,15(%r7)
 686              		.loc 1 369 0
 687 00ae 780000C8 		e_b .L7
 688              	.LVL24:
 689              	.L10:
 690              		.loc 1 371 0
 691 00b2 70DFE3EC 		e_lis %r6,0xfbec
 692 00b6 50E60080 		e_lwz %r7,128(%r6)
 693              	.LVL25:
 694 00ba 74E5873F 		e_rlwinm %r5,%r7,16,28,31
 695 00be 70E0E000 		e_lis %r7,.LANCHOR3@ha
 696 00c2 1CE70000 		e_la %r7,.LANCHOR3@l(%r7)
 697 00c6 9157     		se_stb %r5,1(%r7)
 698              		.loc 1 373 0
 699 00c8 58A60082 		e_lhz %r5,130(%r6)
 700 00cc B157     		se_sth %r5,2(%r7)
 701              		.loc 1 375 0
 702 00ce 50A60084 		e_lwz %r5,132(%r6)
 703 00d2 74A500FF 		e_rlwinm %r5,%r5,0,3,31
 704 00d6 D157     		se_stw %r5,4(%r7)
 705              		.loc 1 377 0
 706 00d8 30A60088 		e_lbz %r5,136(%r6)
 707 00dc 9857     		se_stb %r5,8(%r7)
 708              		.loc 1 378 0
 709 00de 30A60089 		e_lbz %r5,137(%r6)
 710 00e2 9957     		se_stb %r5,9(%r7)
 711              		.loc 1 379 0
 712 00e4 30A6008A 		e_lbz %r5,138(%r6)
 713 00e8 9A57     		se_stb %r5,10(%r7)
 714              		.loc 1 380 0
 715 00ea 30A6008B 		e_lbz %r5,139(%r6)
 716 00ee 9B57     		se_stb %r5,11(%r7)
 717              		.loc 1 381 0
 718 00f0 30A6008C 		e_lbz %r5,140(%r6)
 719 00f4 9C57     		se_stb %r5,12(%r7)
 720              		.loc 1 382 0
 721 00f6 30A6008D 		e_lbz %r5,141(%r6)
 722 00fa 9D57     		se_stb %r5,13(%r7)
 723              		.loc 1 383 0
 724 00fc 30A6008E 		e_lbz %r5,142(%r6)
 725 0100 9E57     		se_stb %r5,14(%r7)
 726              		.loc 1 384 0
 727 0102 30C6008F 		e_lbz %r6,143(%r6)
 728 0106 9F67     		se_stb %r6,15(%r7)
 729              		.loc 1 385 0
 730 0108 4816     		se_li %r6,1
 731 010a 70E0E000 		e_lis %r7,.LANCHOR4@ha
 732 010e 34C70000 		e_stb %r6,.LANCHOR4@l(%r7)
 733              		.loc 1 386 0
 734 0112 78000064 		e_b .L7
 735              	.LVL26:
 736              	.L8:
 737              		.loc 1 388 0
 738 0116 70DFE3EC 		e_lis %r6,0xfbec
 739 011a 50E60080 		e_lwz %r7,128(%r6)
 740              	.LVL27:
 741 011e 74E5873F 		e_rlwinm %r5,%r7,16,28,31
GAS LISTING C:\Users\duchu\AppData\Local\Temp\ccbpUpgD.s 			page 14


 742 0122 70E0E000 		e_lis %r7,.LANCHOR3@ha
 743 0126 1CE70000 		e_la %r7,.LANCHOR3@l(%r7)
 744 012a 9157     		se_stb %r5,1(%r7)
 745              		.loc 1 390 0
 746 012c 58A60082 		e_lhz %r5,130(%r6)
 747 0130 B157     		se_sth %r5,2(%r7)
 748              		.loc 1 392 0
 749 0132 50A60084 		e_lwz %r5,132(%r6)
 750 0136 74A500FF 		e_rlwinm %r5,%r5,0,3,31
 751 013a D157     		se_stw %r5,4(%r7)
 752              		.loc 1 394 0
 753 013c 30A60088 		e_lbz %r5,136(%r6)
 754 0140 9857     		se_stb %r5,8(%r7)
 755              		.loc 1 395 0
 756 0142 30A60089 		e_lbz %r5,137(%r6)
 757 0146 9957     		se_stb %r5,9(%r7)
 758              		.loc 1 396 0
 759 0148 30A6008A 		e_lbz %r5,138(%r6)
 760 014c 9A57     		se_stb %r5,10(%r7)
 761              		.loc 1 397 0
 762 014e 30A6008B 		e_lbz %r5,139(%r6)
 763 0152 9B57     		se_stb %r5,11(%r7)
 764              		.loc 1 398 0
 765 0154 30A6008C 		e_lbz %r5,140(%r6)
 766 0158 9C57     		se_stb %r5,12(%r7)
 767              		.loc 1 399 0
 768 015a 30A6008D 		e_lbz %r5,141(%r6)
 769 015e 9D57     		se_stb %r5,13(%r7)
 770              		.loc 1 400 0
 771 0160 30A6008E 		e_lbz %r5,142(%r6)
 772 0164 9E57     		se_stb %r5,14(%r7)
 773              		.loc 1 401 0
 774 0166 30C6008F 		e_lbz %r6,143(%r6)
 775 016a 9F67     		se_stb %r6,15(%r7)
 776              		.loc 1 402 0
 777 016c 4816     		se_li %r6,1
 778 016e 70E0E000 		e_lis %r7,.LANCHOR4@ha
 779 0172 34C70000 		e_stb %r6,.LANCHOR4@l(%r7)
 780              	.L7:
 781              		.loc 1 409 0
 782 0176 70FFE3EC 		e_lis %r7,0xfbec
 783 017a CC67     		se_lwz %r6,48(%r7)
 784 017c 4815     		se_li %r5,1
 785 017e 74A62EB4 		e_rlwimi %r6,%r5,5,26,26
 786 0182 DC67     		se_stw %r6,48(%r7)
 787              	.L5:
 788 0184 0004     		se_blr
 789              		.cfi_endproc
 790              	.LFE8:
 791              		.size	vector691, .-vector691
 792              		.section	.text.vector678,"axv",@progbits
 793              		.align 1
 794              		.p2align 4,,15
 795              		.globl vector678
 796              		.type	vector678, @function
 797              	vector678:
 798              	.LFB9:
GAS LISTING C:\Users\duchu\AppData\Local\Temp\ccbpUpgD.s 			page 15


 799              		.loc 1 425 0
 800              		.cfi_startproc
 801              		.loc 1 431 0
 802 0000 70FFE7EC 		e_lis %r7,0xffec
 803 0004 CC77     		se_lwz %r7,48(%r7)
 804 0006 67A7     		se_btsti %r7,26
 805 0008 7A12017C 		e_beq %cr0,.L11
 806              		.loc 1 434 0
 807 000c 4807     		se_li %r7,0
 808 000e 70C0E000 		e_lis %r6,.LANCHOR5@ha
 809 0012 54E60000 		e_stw %r7,.LANCHOR5@l(%r6)
 810              		.loc 1 435 0
 811 0016 70C0E000 		e_lis %r6,.LANCHOR6@ha
 812 001a 34E60000 		e_stb %r7,.LANCHOR6@l(%r6)
 813              		.loc 1 437 0
 814 001e 70FFE7EC 		e_lis %r7,0xffec
 815 0022 50E70084 		e_lwz %r7,132(%r7)
 816 0026 74E700FF 		e_rlwinm %r7,%r7,0,3,31
 817              	.LVL28:
 818              		.loc 1 439 0
 819 002a 70C3E0DB 		e_lis %r6,0x18db
 820 002e 70DFC7F9 		e_or2i %r6,65529
 821 0032 0C67     		se_cmp %r7,%r6
 822 0034 7A1200E2 		e_beq %cr0,.L14
 823 0038 70C3E0FF 		e_lis %r6,0x18ff
 824 003c 70C6C1EF 		e_or2i %r6,12783
 825 0040 0C67     		se_cmp %r7,%r6
 826 0042 7A120016 		e_beq %cr0,.L15
 827 0046 70C3E0DA 		e_lis %r6,0x18da
 828 004a 70C3C2F9 		e_or2i %r6,6905
 829 004e 0C67     		se_cmp %r7,%r6
 830 0050 7A020126 		e_bne %cr0,.L13
 831 0054 7800005E 		e_b .L16
 832              	.L15:
 833              		.loc 1 442 0
 834 0058 70DFE7EC 		e_lis %r6,0xffec
 835 005c 50E60080 		e_lwz %r7,128(%r6)
 836              	.LVL29:
 837 0060 74E5873F 		e_rlwinm %r5,%r7,16,28,31
 838 0064 70E0E000 		e_lis %r7,.LANCHOR2@ha
 839 0068 1CE70000 		e_la %r7,.LANCHOR2@l(%r7)
 840 006c 9157     		se_stb %r5,1(%r7)
 841              		.loc 1 444 0
 842 006e 58A60082 		e_lhz %r5,130(%r6)
 843 0072 B157     		se_sth %r5,2(%r7)
 844              		.loc 1 446 0
 845 0074 50A60084 		e_lwz %r5,132(%r6)
 846 0078 74A500FF 		e_rlwinm %r5,%r5,0,3,31
 847 007c D157     		se_stw %r5,4(%r7)
 848              		.loc 1 448 0
 849 007e 30A60088 		e_lbz %r5,136(%r6)
 850 0082 9857     		se_stb %r5,8(%r7)
 851              		.loc 1 449 0
 852 0084 30A60089 		e_lbz %r5,137(%r6)
 853 0088 9957     		se_stb %r5,9(%r7)
 854              		.loc 1 450 0
 855 008a 30A6008A 		e_lbz %r5,138(%r6)
GAS LISTING C:\Users\duchu\AppData\Local\Temp\ccbpUpgD.s 			page 16


 856 008e 9A57     		se_stb %r5,10(%r7)
 857              		.loc 1 451 0
 858 0090 30A6008B 		e_lbz %r5,139(%r6)
 859 0094 9B57     		se_stb %r5,11(%r7)
 860              		.loc 1 452 0
 861 0096 30A6008C 		e_lbz %r5,140(%r6)
 862 009a 9C57     		se_stb %r5,12(%r7)
 863              		.loc 1 453 0
 864 009c 30A6008D 		e_lbz %r5,141(%r6)
 865 00a0 9D57     		se_stb %r5,13(%r7)
 866              		.loc 1 454 0
 867 00a2 30A6008E 		e_lbz %r5,142(%r6)
 868 00a6 9E57     		se_stb %r5,14(%r7)
 869              		.loc 1 455 0
 870 00a8 30C6008F 		e_lbz %r6,143(%r6)
 871 00ac 9F67     		se_stb %r6,15(%r7)
 872              		.loc 1 456 0
 873 00ae 780000C8 		e_b .L13
 874              	.LVL30:
 875              	.L16:
 876              		.loc 1 458 0
 877 00b2 70DFE7EC 		e_lis %r6,0xffec
 878 00b6 50E60080 		e_lwz %r7,128(%r6)
 879              	.LVL31:
 880 00ba 74E5873F 		e_rlwinm %r5,%r7,16,28,31
 881 00be 70E0E000 		e_lis %r7,.LANCHOR3@ha
 882 00c2 1CE70000 		e_la %r7,.LANCHOR3@l(%r7)
 883 00c6 9157     		se_stb %r5,1(%r7)
 884              		.loc 1 460 0
 885 00c8 58A60082 		e_lhz %r5,130(%r6)
 886 00cc B157     		se_sth %r5,2(%r7)
 887              		.loc 1 462 0
 888 00ce 50A60084 		e_lwz %r5,132(%r6)
 889 00d2 74A500FF 		e_rlwinm %r5,%r5,0,3,31
 890 00d6 D157     		se_stw %r5,4(%r7)
 891              		.loc 1 464 0
 892 00d8 30A60088 		e_lbz %r5,136(%r6)
 893 00dc 9857     		se_stb %r5,8(%r7)
 894              		.loc 1 465 0
 895 00de 30A60089 		e_lbz %r5,137(%r6)
 896 00e2 9957     		se_stb %r5,9(%r7)
 897              		.loc 1 466 0
 898 00e4 30A6008A 		e_lbz %r5,138(%r6)
 899 00e8 9A57     		se_stb %r5,10(%r7)
 900              		.loc 1 467 0
 901 00ea 30A6008B 		e_lbz %r5,139(%r6)
 902 00ee 9B57     		se_stb %r5,11(%r7)
 903              		.loc 1 468 0
 904 00f0 30A6008C 		e_lbz %r5,140(%r6)
 905 00f4 9C57     		se_stb %r5,12(%r7)
 906              		.loc 1 469 0
 907 00f6 30A6008D 		e_lbz %r5,141(%r6)
 908 00fa 9D57     		se_stb %r5,13(%r7)
 909              		.loc 1 470 0
 910 00fc 30A6008E 		e_lbz %r5,142(%r6)
 911 0100 9E57     		se_stb %r5,14(%r7)
 912              		.loc 1 471 0
GAS LISTING C:\Users\duchu\AppData\Local\Temp\ccbpUpgD.s 			page 17


 913 0102 30C6008F 		e_lbz %r6,143(%r6)
 914 0106 9F67     		se_stb %r6,15(%r7)
 915              		.loc 1 472 0
 916 0108 4816     		se_li %r6,1
 917 010a 70E0E000 		e_lis %r7,.LANCHOR4@ha
 918 010e 34C70000 		e_stb %r6,.LANCHOR4@l(%r7)
 919              		.loc 1 473 0
 920 0112 78000064 		e_b .L13
 921              	.LVL32:
 922              	.L14:
 923              		.loc 1 475 0
 924 0116 70DFE7EC 		e_lis %r6,0xffec
 925 011a 50E60080 		e_lwz %r7,128(%r6)
 926              	.LVL33:
 927 011e 74E5873F 		e_rlwinm %r5,%r7,16,28,31
 928 0122 70E0E000 		e_lis %r7,.LANCHOR3@ha
 929 0126 1CE70000 		e_la %r7,.LANCHOR3@l(%r7)
 930 012a 9157     		se_stb %r5,1(%r7)
 931              		.loc 1 477 0
 932 012c 58A60082 		e_lhz %r5,130(%r6)
 933 0130 B157     		se_sth %r5,2(%r7)
 934              		.loc 1 479 0
 935 0132 50A60084 		e_lwz %r5,132(%r6)
 936 0136 74A500FF 		e_rlwinm %r5,%r5,0,3,31
 937 013a D157     		se_stw %r5,4(%r7)
 938              		.loc 1 481 0
 939 013c 30A60088 		e_lbz %r5,136(%r6)
 940 0140 9857     		se_stb %r5,8(%r7)
 941              		.loc 1 482 0
 942 0142 30A60089 		e_lbz %r5,137(%r6)
 943 0146 9957     		se_stb %r5,9(%r7)
 944              		.loc 1 483 0
 945 0148 30A6008A 		e_lbz %r5,138(%r6)
 946 014c 9A57     		se_stb %r5,10(%r7)
 947              		.loc 1 484 0
 948 014e 30A6008B 		e_lbz %r5,139(%r6)
 949 0152 9B57     		se_stb %r5,11(%r7)
 950              		.loc 1 485 0
 951 0154 30A6008C 		e_lbz %r5,140(%r6)
 952 0158 9C57     		se_stb %r5,12(%r7)
 953              		.loc 1 486 0
 954 015a 30A6008D 		e_lbz %r5,141(%r6)
 955 015e 9D57     		se_stb %r5,13(%r7)
 956              		.loc 1 487 0
 957 0160 30A6008E 		e_lbz %r5,142(%r6)
 958 0164 9E57     		se_stb %r5,14(%r7)
 959              		.loc 1 488 0
 960 0166 30C6008F 		e_lbz %r6,143(%r6)
 961 016a 9F67     		se_stb %r6,15(%r7)
 962              		.loc 1 489 0
 963 016c 4816     		se_li %r6,1
 964 016e 70E0E000 		e_lis %r7,.LANCHOR4@ha
 965 0172 34C70000 		e_stb %r6,.LANCHOR4@l(%r7)
 966              	.L13:
 967              		.loc 1 496 0
 968 0176 70FFE7EC 		e_lis %r7,0xffec
 969 017a CC67     		se_lwz %r6,48(%r7)
GAS LISTING C:\Users\duchu\AppData\Local\Temp\ccbpUpgD.s 			page 18


 970 017c 4815     		se_li %r5,1
 971 017e 74A62EB4 		e_rlwimi %r6,%r5,5,26,26
 972 0182 DC67     		se_stw %r6,48(%r7)
 973              	.L11:
 974 0184 0004     		se_blr
 975              		.cfi_endproc
 976              	.LFE9:
 977              		.size	vector678, .-vector678
 978              		.section	.text.vector701,"axv",@progbits
 979              		.align 1
 980              		.p2align 4,,15
 981              		.globl vector701
 982              		.type	vector701, @function
 983              	vector701:
 984              	.LFB10:
 985              		.loc 1 510 0
 986              		.cfi_startproc
 987              		.loc 1 513 0
 988 0000 70FFE3EC 		e_lis %r7,0xfbec
 989 0004 C877     		se_lwz %r7,32(%r7)
 990 0006 67D7     		se_btsti %r7,29
 991 0008 7A12001A 		e_beq %cr0,.L17
 992              		.loc 1 515 0
 993 000c 70DFE3EC 		e_lis %r6,0xfbec
 994 0010 C856     		se_lwz %r5,32(%r6)
 995 0012 4817     		se_li %r7,1
 996 0014 74E5177A 		e_rlwimi %r5,%r7,2,29,29
 997 0018 D856     		se_stw %r5,32(%r6)
 998              		.loc 1 516 0
 999 001a 70C0E000 		e_lis %r6,.LANCHOR1@ha
 1000 001e 34E60000 		e_stb %r7,.LANCHOR1@l(%r6)
 1001              	.L17:
 1002 0022 0004     		se_blr
 1003              		.cfi_endproc
 1004              	.LFE10:
 1005              		.size	vector701, .-vector701
 1006              		.section	.text.vector688,"axv",@progbits
 1007              		.align 1
 1008              		.p2align 4,,15
 1009              		.globl vector688
 1010              		.type	vector688, @function
 1011              	vector688:
 1012              	.LFB11:
 1013              		.loc 1 530 0
 1014              		.cfi_startproc
 1015              		.loc 1 533 0
 1016 0000 70FFE7EC 		e_lis %r7,0xffec
 1017 0004 C877     		se_lwz %r7,32(%r7)
 1018 0006 67D7     		se_btsti %r7,29
 1019 0008 7A12001A 		e_beq %cr0,.L19
 1020              		.loc 1 535 0
 1021 000c 70DFE7EC 		e_lis %r6,0xffec
 1022 0010 C856     		se_lwz %r5,32(%r6)
 1023 0012 4817     		se_li %r7,1
 1024 0014 74E5177A 		e_rlwimi %r5,%r7,2,29,29
 1025 0018 D856     		se_stw %r5,32(%r6)
 1026              		.loc 1 536 0
GAS LISTING C:\Users\duchu\AppData\Local\Temp\ccbpUpgD.s 			page 19


 1027 001a 70C0E000 		e_lis %r6,.LANCHOR6@ha
 1028 001e 34E60000 		e_stb %r7,.LANCHOR6@l(%r6)
 1029              	.L19:
 1030 0022 0004     		se_blr
 1031              		.cfi_endproc
 1032              	.LFE11:
 1033              		.size	vector688, .-vector688
 1034              		.globl u8g_can2BusOffFlag
 1035              		.globl u8g_can1BusOffFlag
 1036              		.globl u32g_Hal_TimeoutCan2Cnt
 1037              		.globl u32g_Hal_TimeoutCan1Cnt
 1038              		.globl u8g_Hal_RecvNewDataforDiag
 1039              		.globl g_can_RxData_REQUEST
 1040              		.globl g_can_RxData_18FF31EF
 1041              		.section	.bss.u32g_Hal_TimeoutCan1Cnt,"aw",@nobits
 1042              		.align 2
 1043              		.set	.LANCHOR0,. + 0
 1044              		.type	u32g_Hal_TimeoutCan1Cnt, @object
 1045              		.size	u32g_Hal_TimeoutCan1Cnt, 4
 1046              	u32g_Hal_TimeoutCan1Cnt:
 1047 0000 00000000 		.zero	4
 1048              		.section	.bss.g_can_RxData_18FF31EF,"aw",@nobits
 1049              		.align 2
 1050              		.set	.LANCHOR2,. + 0
 1051              		.type	g_can_RxData_18FF31EF, @object
 1052              		.size	g_can_RxData_18FF31EF, 16
 1053              	g_can_RxData_18FF31EF:
 1054 0000 00000000 		.zero	16
 1054      00000000 
 1054      00000000 
 1054      00000000 
 1055              		.section	.bss.u8g_can1BusOffFlag,"aw",@nobits
 1056              		.set	.LANCHOR1,. + 0
 1057              		.type	u8g_can1BusOffFlag, @object
 1058              		.size	u8g_can1BusOffFlag, 1
 1059              	u8g_can1BusOffFlag:
 1060 0000 00       		.zero	1
 1061              		.section	.bss.u32g_Hal_TimeoutCan2Cnt,"aw",@nobits
 1062              		.align 2
 1063              		.set	.LANCHOR5,. + 0
 1064              		.type	u32g_Hal_TimeoutCan2Cnt, @object
 1065              		.size	u32g_Hal_TimeoutCan2Cnt, 4
 1066              	u32g_Hal_TimeoutCan2Cnt:
 1067 0000 00000000 		.zero	4
 1068              		.section	.bss.u8g_Hal_RecvNewDataforDiag,"aw",@nobits
 1069              		.set	.LANCHOR4,. + 0
 1070              		.type	u8g_Hal_RecvNewDataforDiag, @object
 1071              		.size	u8g_Hal_RecvNewDataforDiag, 1
 1072              	u8g_Hal_RecvNewDataforDiag:
 1073 0000 00       		.zero	1
 1074              		.section	.bss.g_can_RxData_REQUEST,"aw",@nobits
 1075              		.align 2
 1076              		.set	.LANCHOR3,. + 0
 1077              		.type	g_can_RxData_REQUEST, @object
 1078              		.size	g_can_RxData_REQUEST, 16
 1079              	g_can_RxData_REQUEST:
 1080 0000 00000000 		.zero	16
GAS LISTING C:\Users\duchu\AppData\Local\Temp\ccbpUpgD.s 			page 20


 1080      00000000 
 1080      00000000 
 1080      00000000 
 1081              		.section	.bss.u8g_can2BusOffFlag,"aw",@nobits
 1082              		.set	.LANCHOR6,. + 0
 1083              		.type	u8g_can2BusOffFlag, @object
 1084              		.size	u8g_can2BusOffFlag, 1
 1085              	u8g_can2BusOffFlag:
 1086 0000 00       		.zero	1
 1087              		.section	".text","axv"
 1088              	.Letext0:
 1089              		.file 2 "c:\\spc5studio\\eclipse\\plugins\\com.st.tools.spc5.tools.gnu.gcc.ppcvle.win32_4.9.4.2019
 1090              		.file 3 "c:\\spc5studio\\eclipse\\plugins\\com.st.tools.spc5.tools.gnu.gcc.ppcvle.win32_4.9.4.2019
 1091              		.file 4 "./components/spc570sxx_platform_component_rla/lib/include/typedefs.h"
 1092              		.file 5 "./components/spc570sxx_platform_component_rla/lib/include/xpc570s.h"
 1093              		.file 6 "./source/HAL/Hal_Can.h"
 1094              		.file 7 "./components/spc570sxx_clock_component_rla/lib/include/clock.h"