GAS LISTING C:\Users\duchu\AppData\Local\Temp\cclIm5PB.s 			page 1


   1              		.file	"Rte.c"
   2              		.section	".text","axv"
   3              	.Ltext0:
   4              		.cfi_sections	.debug_frame
   5              		.section	.text.Rte_Init,"axv",@progbits
   6              		.align 1
   7              		.p2align 4,,15
   8              		.globl Rte_Init
   9              		.type	Rte_Init, @function
  10              	Rte_Init:
  11              	.LFB4:
  12              		.file 1 "./source/RTE/Rte.c"
  13              		.loc 1 84 0
  14              		.cfi_startproc
  15 0000 182106F8 		e_stwu %r1,-8(%r1)
  16              	.LCFI0:
  17              		.cfi_def_cfa_offset 8
  18 0004 0080     		se_mflr %r0
  19 0006 D301     		se_stw %r0,12(%r1)
  20              		.cfi_offset 65, 4
  21              	.LBB6:
  22              	.LBB7:
  23              		.file 2 "./components/spc570sxx_irq_component_rla/lib/include/irq.h"
  24              		.loc 2 79 0
  25              	 # 79 "./components/spc570sxx_irq_component_rla/lib/include/irq.h" 1
  26 0008 7C000146 		wrteei  0
  27              	 # 0 "" 2
  28              	.LBE7:
  29              	.LBE6:
  30              		.loc 1 92 0
  31 000c 78000001 		e_bl componentsInit
  32              	.LVL0:
  33              		.loc 1 94 0
  34 0010 78000001 		e_bl Bsw_PIT_Init
  35              	.LVL1:
  36              		.loc 1 97 0
  37 0014 78000001 		e_bl Bsw_CAN1_Init
  38              	.LVL2:
  39              		.loc 1 98 0
  40 0018 78000001 		e_bl Bsw_CAN2_Init
  41              	.LVL3:
  42              		.loc 1 101 0
  43 001c 78000001 		e_bl Bsw_PwmInit
  44              	.LVL4:
  45              		.loc 1 104 0
  46 0020 78000001 		e_bl Bsw_AdcInit
  47              	.LVL5:
  48              		.loc 1 106 0
  49 0024 78000001 		e_bl Gp_Func_Init
  50              	.LVL6:
  51              		.loc 1 109 0
  52 0028 78000001 		e_bl Uds_Func_Init
  53              	.LVL7:
  54              		.loc 1 112 0
  55 002c 78000001 		e_bl Tp_Func_Init
  56              	.LVL8:
  57              		.loc 1 114 0
GAS LISTING C:\Users\duchu\AppData\Local\Temp\cclIm5PB.s 			page 2


  58 0030 78000001 		e_bl Bsw_Can_DM1_Init
  59              	.LVL9:
  60              		.loc 1 117 0
  61 0034 78000001 		e_bl Asw_Diagnostic_Init
  62              	.LVL10:
  63              		.loc 1 120 0
  64 0038 78000001 		e_bl EEP_EEPROM_INIT
  65              	.LVL11:
  66              		.loc 1 121 0
  67 003c 78000001 		e_bl EEP_EEPROM_READ
  68              	.LVL12:
  69              		.loc 1 129 0
  70 0040 4807     		se_li %r7,0
  71 0042 70C0E000 		e_lis %r6,u8g_Asw_Ldc_State_Ready@ha
  72 0046 34E60000 		e_stb %r7,u8g_Asw_Ldc_State_Ready@l(%r6)
  73              		.loc 1 130 0
  74 004a 70C0E000 		e_lis %r6,u8g_Asw_Ldc_State_Run@ha
  75 004e 34E60000 		e_stb %r7,u8g_Asw_Ldc_State_Run@l(%r6)
  76              	.LBB8:
  77              	.LBB9:
  78              		.loc 2 68 0
  79              	 # 68 "./components/spc570sxx_irq_component_rla/lib/include/irq.h" 1
  80 0052 7C008146 		wrteei  1
  81              	 # 0 "" 2
  82              	.LBE9:
  83              	.LBE8:
  84              		.loc 1 136 0
  85 0056 4806     		se_li %r6,0
  86 0058 70E0E000 		e_lis %r7,eng_LDC_Sts@ha
  87 005c 54C70000 		e_stw %r6,eng_LDC_Sts@l(%r7)
  88              		.loc 1 137 0
  89 0060 C301     		se_lwz %r0,12(%r1)
  90 0062 0090     		se_mtlr %r0
  91              		.cfi_restore 65
  92 0064 2071     		se_addi %r1,8
  93              	.LCFI1:
  94              		.cfi_def_cfa_offset 0
  95 0066 0004     		se_blr
  96              		.cfi_endproc
  97              	.LFE4:
  98              		.size	Rte_Init, .-Rte_Init
  99              		.section	.text.Rte_TimeTaskCtrl,"axv",@progbits
 100              		.align 1
 101              		.p2align 4,,15
 102              		.globl Rte_TimeTaskCtrl
 103              		.type	Rte_TimeTaskCtrl, @function
 104              	Rte_TimeTaskCtrl:
 105              	.LFB5:
 106              		.loc 1 147 0
 107              		.cfi_startproc
 108 0000 182106F0 		e_stwu %r1,-16(%r1)
 109              	.LCFI2:
 110              		.cfi_def_cfa_offset 16
 111 0004 0080     		se_mflr %r0
 112 0006 D501     		se_stw %r0,20(%r1)
 113 0008 D3F1     		se_stw %r31,12(%r1)
 114              		.cfi_offset 65, 4
GAS LISTING C:\Users\duchu\AppData\Local\Temp\cclIm5PB.s 			page 3


 115              		.cfi_offset 31, -4
 116              	.LBB16:
 117              	.LBB17:
 118              		.loc 1 195 0
 119 000a 78000001 		e_bl Uds_Func
 120              	.LVL13:
 121              		.loc 1 197 0
 122 000e 78000001 		e_bl Tp_Func
 123              	.LVL14:
 124              		.loc 1 200 0
 125 0012 70E0E000 		e_lis %r7,u8g_ReqReset@ha
 126 0016 30E70000 		e_lbz %r7,u8g_ReqReset@l(%r7)
 127 001a 2A17     		se_cmpi %r7,1
 128 001c 7A120008 		e_beq %cr0,.L3
 129              		.loc 1 202 0
 130 0020 78000001 		e_bl UDS_WDT_PulseOut
 131              	.LVL15:
 132              	.L3:
 133              	.LBE17:
 134              	.LBE16:
 135              		.loc 1 157 0
 136 0024 70E0E000 		e_lis %r7,u8g_Hal_task_10m_cnt@ha
 137 0028 30E70000 		e_lbz %r7,u8g_Hal_task_10m_cnt@l(%r7)
 138 002c 18E784FF 		e_addi %r7,%r7,-1
 139 0030 18E6C8FF 		e_andi. %r6,%r7,0xff
 140 0034 7A120010 		e_beq %cr0,.L4
 141 0038 70E0E000 		e_lis %r7,u8g_Hal_task_10m_cnt@ha
 142 003c 34C70000 		e_stb %r6,u8g_Hal_task_10m_cnt@l(%r7)
 143 0040 7800004A 		e_b .L5
 144              	.L4:
 145              		.loc 1 159 0
 146 0044 48A6     		se_li %r6,10
 147 0046 70E0E000 		e_lis %r7,u8g_Hal_task_10m_cnt@ha
 148 004a 34C70000 		e_stb %r6,u8g_Hal_task_10m_cnt@l(%r7)
 149              	.LBB18:
 150              	.LBB19:
 151              		.loc 1 215 0
 152 004e 70E0E000 		e_lis %r7,u8g_CAN_TX_Ctrl@ha
 153 0052 30E70000 		e_lbz %r7,u8g_CAN_TX_Ctrl@l(%r7)
 154 0056 2A07     		se_cmpi %r7,0
 155 0058 7A020008 		e_bne %cr0,.L6
 156              		.loc 1 217 0
 157 005c 78000001 		e_bl Bsw_Can_DM1_Transmitter
 158              	.LVL16:
 159              	.L6:
 160              		.loc 1 220 0
 161 0060 78000001 		e_bl Bsw_ADC2REAL
 162              	.LVL17:
 163              		.loc 1 222 0
 164 0064 78000001 		e_bl Asw_Diagnostic_Fault
 165              	.LVL18:
 166              		.loc 1 223 0
 167 0068 78000001 		e_bl Asw_LDC_Operation
 168              	.LVL19:
 169              		.loc 1 225 0
 170 006c 70E0E000 		e_lis %r7,eng_LDC_Sts@ha
 171 0070 50E70000 		e_lwz %r7,eng_LDC_Sts@l(%r7)
GAS LISTING C:\Users\duchu\AppData\Local\Temp\cclIm5PB.s 			page 4


 172 0074 2A47     		se_cmpi %r7,4
 173 0076 7A120014 		e_beq %cr0,.L5
 174 007a 73E0E000 		e_lis %r31,.LANCHOR0@ha
 175 007e 587F0000 		e_lhz %r3,.LANCHOR0@l(%r31)
 176 0082 78000001 		e_bl Asw_LDC_OFF
 177              	.LVL20:
 178 0086 5C7F0000 		e_sth %r3,.LANCHOR0@l(%r31)
 179              	.L5:
 180              	.LBE19:
 181              	.LBE18:
 182              		.loc 1 168 0
 183 008a 70E0E000 		e_lis %r7,u8g_Hal_task_100m_cnt@ha
 184 008e 30E70000 		e_lbz %r7,u8g_Hal_task_100m_cnt@l(%r7)
 185 0092 18E784FF 		e_addi %r7,%r7,-1
 186 0096 18E6C8FF 		e_andi. %r6,%r7,0xff
 187 009a 7A120010 		e_beq %cr0,.L7
 188 009e 70E0E000 		e_lis %r7,u8g_Hal_task_100m_cnt@ha
 189 00a2 34C70000 		e_stb %r6,u8g_Hal_task_100m_cnt@l(%r7)
 190 00a6 78000064 		e_b .L2
 191              	.L7:
 192              		.loc 1 170 0
 193 00aa 4E46     		se_li %r6,100
 194 00ac 70E0E000 		e_lis %r7,u8g_Hal_task_100m_cnt@ha
 195 00b0 34C70000 		e_stb %r6,u8g_Hal_task_100m_cnt@l(%r7)
 196              	.LBB20:
 197              	.LBB21:
 198              		.loc 1 239 0
 199 00b4 78000001 		e_bl Bsw_Can_Tx
 200              	.LVL21:
 201              		.loc 1 240 0
 202 00b8 78000001 		e_bl Bsw_Can_Rx
 203              	.LVL22:
 204              		.loc 1 242 0
 205 00bc 70E0E000 		e_lis %r7,u8_DtcControl@ha
 206 00c0 30E70000 		e_lbz %r7,u8_DtcControl@l(%r7)
 207 00c4 2A07     		se_cmpi %r7,0
 208 00c6 7A020008 		e_bne %cr0,.L9
 209 00ca 78000001 		e_bl Asw_DTC_Eeprom_Write
 210              	.LVL23:
 211              	.L9:
 212              		.loc 1 244 0
 213 00ce 70E0E000 		e_lis %r7,eng_LDC_Sts@ha
 214 00d2 50E70000 		e_lwz %r7,eng_LDC_Sts@l(%r7)
 215 00d6 2A47     		se_cmpi %r7,4
 216 00d8 7A120032 		e_beq %cr0,.L2
 217              		.loc 1 247 0
 218 00dc 78000001 		e_bl EEP_GET_WRITE_BUFFER
 219              	.LVL24:
 220 00e0 0134     		se_mr %r4,%r3
 221 00e2 73E0E000 		e_lis %r31,.LANCHOR1@ha
 222 00e6 1FFF0000 		e_la %r31,.LANCHOR1@l(%r31)
 223 00ea 01F3     		se_mr %r3,%r31
 224 00ec 49D5     		se_li %r5,29
 225 00ee 78000001 		e_bl utils_memcpy
 226              	.LVL25:
 227              		.loc 1 248 0
 228 00f2 01F3     		se_mr %r3,%r31
GAS LISTING C:\Users\duchu\AppData\Local\Temp\cclIm5PB.s 			page 5


 229 00f4 78000001 		e_bl DtcMng_DtcCodeUpdate
 230              	.LVL26:
 231              		.loc 1 249 0
 232 00f8 70E0E000 		e_lis %r7,eng_LDC_Sts@ha
 233 00fc 50A70000 		e_lwz %r5,eng_LDC_Sts@l(%r7)
 234 0100 01F3     		se_mr %r3,%r31
 235 0102 49D4     		se_li %r4,29
 236 0104 00C5     		se_extzb %r5
 237 0106 78000001 		e_bl EEP_UPDATE_EEPROM
 238              	.LVL27:
 239              	.L2:
 240              	.LBE21:
 241              	.LBE20:
 242              		.loc 1 177 0
 243 010a C501     		se_lwz %r0,20(%r1)
 244 010c 0090     		se_mtlr %r0
 245              		.cfi_restore 65
 246 010e C3F1     		se_lwz %r31,12(%r1)
 247 0110 20F1     		se_addi %r1,16
 248              	.LCFI3:
 249              		.cfi_restore 31
 250              		.cfi_def_cfa_offset 0
 251 0112 0004     		se_blr
 252              		.cfi_endproc
 253              	.LFE5:
 254              		.size	Rte_TimeTaskCtrl, .-Rte_TimeTaskCtrl
 255              		.globl u16g_Rte_pwmShift
 256              		.section	.bss.dtcBuffer.11117,"aw",@nobits
 257              		.set	.LANCHOR1,. + 0
 258              		.type	dtcBuffer.11117, @object
 259              		.size	dtcBuffer.11117, 29
 260              	dtcBuffer.11117:
 261 0000 00000000 		.zero	29
 261      00000000 
 261      00000000 
 261      00000000 
 261      00000000 
 262              		.section	.bss.u16g_Rte_pwmShift,"aw",@nobits
 263              		.align 1
 264              		.set	.LANCHOR0,. + 0
 265              		.type	u16g_Rte_pwmShift, @object
 266              		.size	u16g_Rte_pwmShift, 2
 267              	u16g_Rte_pwmShift:
 268 0000 0000     		.zero	2
 269              		.section	".text","axv"
 270              	.Letext0:
 271              		.file 3 "c:\\spc5studio\\eclipse\\plugins\\com.st.tools.spc5.tools.gnu.gcc.ppcvle.win32_4.9.4.2019
 272              		.file 4 "c:\\spc5studio\\eclipse\\plugins\\com.st.tools.spc5.tools.gnu.gcc.ppcvle.win32_4.9.4.2019
 273              		.file 5 "./source/ASW/Asw_StateMachine.h"
 274              		.file 6 "./source/ASW/Asw_DtcMng.h"
 275              		.file 7 "./source/ASW/Asw_Utility.h"
 276              		.file 8 "./source/HAL/Hal_PIT.h"
 277              		.file 9 "./source/UDS/Uds_Func.h"
 278              		.file 10 "./components/components.h"
 279              		.file 11 "./source/BSW/Bsw_PIT.h"
 280              		.file 12 "./source/BSW/Bsw_Can.h"
 281              		.file 13 "./source/BSW/Bsw_Pwm.h"
GAS LISTING C:\Users\duchu\AppData\Local\Temp\cclIm5PB.s 			page 6


 282              		.file 14 "./source/BSW/Bsw_Adc.h"
 283              		.file 15 "./source/UDS/GpFunc.h"
 284              		.file 16 "./source/UDS/Tp_Func.h"
 285              		.file 17 "./source/ASW/Asw_FaultDetection.h"
 286              		.file 18 "./source/BSW/Bsw_Eeprom.h"