GAS LISTING C:\Users\duchu\AppData\Local\Temp\ccqhNTr1.s 			page 1


   1              		.file	"spc5_edma.c"
   2              		.section	".text","axv"
   3              	.Ltext0:
   4              		.cfi_sections	.debug_frame
   5              		.section	.text.vector52,"axv",@progbits
   6              		.align 1
   7              		.p2align 4,,15
   8              		.globl vector52
   9              		.type	vector52, @function
  10              	vector52:
  11              	.LFB4:
  12              		.file 1 "./components/spc570sxx_low_level_drivers_component_rla/lib/src/spc5_edma.c"
  13              		.loc 1 73 0
  14              		.cfi_startproc
  15 0000 182106E8 		e_stwu %r1,-24(%r1)
  16              	.LCFI0:
  17              		.cfi_def_cfa_offset 24
  18 0004 0080     		se_mflr %r0
  19 0006 D701     		se_stw %r0,28(%r1)
  20 0008 1B810908 		e_stmw %r28,8(%r1)
  21              		.cfi_offset 65, 4
  22              		.cfi_offset 28, -16
  23              		.cfi_offset 29, -12
  24              		.cfi_offset 30, -8
  25              		.cfi_offset 31, -4
  26              	.LVL0:
  27              		.loc 1 90 0
  28 000c 70FFE40A 		e_lis %r7,0xfc0a
  29 0010 CB77     		se_lwz %r7,44(%r7)
  30 0012 70FFC7FF 		e_or2i %r7,65535
  31              	.LVL1:
  32              		.loc 1 88 0
  33 0016 480F     		se_li %r31,0
  34              		.loc 1 117 0
  35 0018 73DFE40A 		e_lis %r30,0xfc0a
  36              		.loc 1 122 0
  37 001c 7380E000 		e_lis %r28,.LANCHOR0@ha
  38 0020 1F9C0000 		e_la %r28,.LANCHOR0@l(%r28)
  39              		.loc 1 170 0
  40 0024 2D0D     		se_bmaski %r29,16
  41              	.LVL2:
  42              	.L3:
  43              		.loc 1 114 0
  44 0026 23EF     		se_cmpli %r31,31
  45 0028 7A110034 		e_bgt %cr0,.L2
  46              		.loc 1 115 0
  47 002c 40F7     		se_srw %r7,%r31
  48              	.LVL3:
  49 002e 67F7     		se_btsti %r7,31
  50 0030 7A12002C 		e_beq %cr0,.L2
  51              		.loc 1 117 0
  52 0034 77E7063F 		e_rlwinm %r7,%r31,0,0xff
  53 0038 34FE001D 		e_stb %r7,29(%r30)
  54              		.loc 1 118 0
  55 003c C15E     		se_lwz %r5,4(%r30)
  56              	.LVL4:
  57 003e 7FE71070 		e_slwi %r7,%r31,2
GAS LISTING C:\Users\duchu\AppData\Local\Temp\ccqhNTr1.s 			page 2


  58              		.loc 1 122 0
  59 0042 7CE7E02E 		lwzx %r7,%r7,%r28
  60 0046 2A07     		se_cmpi %r7,0
  61 0048 7A120014 		e_beq %cr0,.L2
  62              		.loc 1 123 0 discriminator 1
  63 004c C367     		se_lwz %r6,12(%r7)
  64              		.loc 1 122 0 discriminator 1
  65 004e 2A06     		se_cmpi %r6,0
  66 0050 7A12000C 		e_beq %cr0,.L2
  67              		.loc 1 124 0
  68 0054 01F3     		se_mr %r3,%r31
  69 0056 C447     		se_lwz %r4,16(%r7)
  70 0058 00B6     		se_mtctr %r6
  71 005a 0007     		se_bctrl
  72              	.LVL5:
  73              	.L2:
  74              		.loc 1 167 0
  75 005c 200F     		se_addi %r31,1
  76              	.LVL6:
  77              		.loc 1 170 0
  78 005e CB7E     		se_lwz %r7,44(%r30)
  79 0060 44D7     		se_or %r7,%r29
  80              	.LVL7:
  81              		.loc 1 91 0
  82 0062 22FF     		se_cmpli %r31,16
  83 0064 7A02FFC2 		e_bne %cr0,.L3
  84              		.loc 1 189 0
  85 0068 C701     		se_lwz %r0,28(%r1)
  86 006a 0090     		se_mtlr %r0
  87              		.cfi_restore 65
  88 006c 1B810808 		e_lmw %r28,8(%r1)
  89              	.LVL8:
  90 0070 2171     		se_addi %r1,24
  91              	.LCFI1:
  92              		.cfi_restore 31
  93              		.cfi_restore 30
  94              		.cfi_restore 29
  95              		.cfi_restore 28
  96              		.cfi_def_cfa_offset 0
  97 0072 0004     		se_blr
  98              		.cfi_endproc
  99              	.LFE4:
 100              		.size	vector52, .-vector52
 101              		.section	.text.vector53,"axv",@progbits
 102              		.align 1
 103              		.p2align 4,,15
 104              		.globl vector53
 105              		.type	vector53, @function
 106              	vector53:
 107              	.LFB5:
 108              		.loc 1 199 0
 109              		.cfi_startproc
 110 0000 182106F8 		e_stwu %r1,-8(%r1)
 111              	.LCFI2:
 112              		.cfi_def_cfa_offset 8
 113 0004 0080     		se_mflr %r0
 114 0006 D301     		se_stw %r0,12(%r1)
GAS LISTING C:\Users\duchu\AppData\Local\Temp\ccqhNTr1.s 			page 3


 115              		.cfi_offset 65, 4
 116              		.loc 1 203 0
 117 0008 70E0E000 		e_lis %r7,.LANCHOR0@ha
 118 000c 50E70000 		e_lwz %r7,.LANCHOR0@l(%r7)
 119 0010 2A07     		se_cmpi %r7,0
 120 0012 7A020008 		e_bne %cr0,.L6
 121              		.loc 1 204 0
 122 0016 78000001 		e_bl irqSysHalt
 123              	.LVL9:
 124              	.L6:
 125              		.loc 1 206 0
 126 001a 4806     		se_li %r6,0
 127 001c 70FFE40A 		e_lis %r7,0xfc0a
 128 0020 34C7001C 		e_stb %r6,28(%r7)
 129              		.loc 1 207 0
 130 0024 70E0E000 		e_lis %r7,.LANCHOR0@ha
 131 0028 50E70000 		e_lwz %r7,.LANCHOR0@l(%r7)
 132 002c C267     		se_lwz %r6,8(%r7)
 133 002e 4803     		se_li %r3,0
 134 0030 C447     		se_lwz %r4,16(%r7)
 135 0032 00B6     		se_mtctr %r6
 136 0034 0007     		se_bctrl
 137              	.LVL10:
 138              		.loc 1 210 0
 139 0036 C301     		se_lwz %r0,12(%r1)
 140 0038 0090     		se_mtlr %r0
 141              		.cfi_restore 65
 142 003a 2071     		se_addi %r1,8
 143              	.LCFI3:
 144              		.cfi_def_cfa_offset 0
 145 003c 0004     		se_blr
 146              		.cfi_endproc
 147              	.LFE5:
 148              		.size	vector53, .-vector53
 149              		.section	.text.vector54,"axv",@progbits
 150              		.align 1
 151              		.p2align 4,,15
 152              		.globl vector54
 153              		.type	vector54, @function
 154              	vector54:
 155              	.LFB6:
 156              		.loc 1 220 0
 157              		.cfi_startproc
 158 0000 182106F8 		e_stwu %r1,-8(%r1)
 159              	.LCFI4:
 160              		.cfi_def_cfa_offset 8
 161 0004 0080     		se_mflr %r0
 162 0006 D301     		se_stw %r0,12(%r1)
 163              		.cfi_offset 65, 4
 164              		.loc 1 224 0
 165 0008 70E0E000 		e_lis %r7,.LANCHOR0+4@ha
 166 000c 50E70000 		e_lwz %r7,.LANCHOR0+4@l(%r7)
 167 0010 2A07     		se_cmpi %r7,0
 168 0012 7A020008 		e_bne %cr0,.L8
 169              		.loc 1 225 0
 170 0016 78000001 		e_bl irqSysHalt
 171              	.LVL11:
GAS LISTING C:\Users\duchu\AppData\Local\Temp\ccqhNTr1.s 			page 4


 172              	.L8:
 173              		.loc 1 227 0
 174 001a 4816     		se_li %r6,1
 175 001c 70FFE40A 		e_lis %r7,0xfc0a
 176 0020 34C7001C 		e_stb %r6,28(%r7)
 177              		.loc 1 228 0
 178 0024 70E0E000 		e_lis %r7,.LANCHOR0+4@ha
 179 0028 50E70000 		e_lwz %r7,.LANCHOR0+4@l(%r7)
 180 002c C267     		se_lwz %r6,8(%r7)
 181 002e 4813     		se_li %r3,1
 182 0030 C447     		se_lwz %r4,16(%r7)
 183 0032 00B6     		se_mtctr %r6
 184 0034 0007     		se_bctrl
 185              	.LVL12:
 186              		.loc 1 231 0
 187 0036 C301     		se_lwz %r0,12(%r1)
 188 0038 0090     		se_mtlr %r0
 189              		.cfi_restore 65
 190 003a 2071     		se_addi %r1,8
 191              	.LCFI5:
 192              		.cfi_def_cfa_offset 0
 193 003c 0004     		se_blr
 194              		.cfi_endproc
 195              	.LFE6:
 196              		.size	vector54, .-vector54
 197              		.section	.text.vector55,"axv",@progbits
 198              		.align 1
 199              		.p2align 4,,15
 200              		.globl vector55
 201              		.type	vector55, @function
 202              	vector55:
 203              	.LFB7:
 204              		.loc 1 241 0
 205              		.cfi_startproc
 206 0000 182106F8 		e_stwu %r1,-8(%r1)
 207              	.LCFI6:
 208              		.cfi_def_cfa_offset 8
 209 0004 0080     		se_mflr %r0
 210 0006 D301     		se_stw %r0,12(%r1)
 211              		.cfi_offset 65, 4
 212              		.loc 1 245 0
 213 0008 70E0E000 		e_lis %r7,.LANCHOR0+8@ha
 214 000c 50E70000 		e_lwz %r7,.LANCHOR0+8@l(%r7)
 215 0010 2A07     		se_cmpi %r7,0
 216 0012 7A020008 		e_bne %cr0,.L10
 217              		.loc 1 246 0
 218 0016 78000001 		e_bl irqSysHalt
 219              	.LVL13:
 220              	.L10:
 221              		.loc 1 248 0
 222 001a 4826     		se_li %r6,2
 223 001c 70FFE40A 		e_lis %r7,0xfc0a
 224 0020 34C7001C 		e_stb %r6,28(%r7)
 225              		.loc 1 249 0
 226 0024 70E0E000 		e_lis %r7,.LANCHOR0+8@ha
 227 0028 50E70000 		e_lwz %r7,.LANCHOR0+8@l(%r7)
 228 002c C267     		se_lwz %r6,8(%r7)
GAS LISTING C:\Users\duchu\AppData\Local\Temp\ccqhNTr1.s 			page 5


 229 002e 4823     		se_li %r3,2
 230 0030 C447     		se_lwz %r4,16(%r7)
 231 0032 00B6     		se_mtctr %r6
 232 0034 0007     		se_bctrl
 233              	.LVL14:
 234              		.loc 1 252 0
 235 0036 C301     		se_lwz %r0,12(%r1)
 236 0038 0090     		se_mtlr %r0
 237              		.cfi_restore 65
 238 003a 2071     		se_addi %r1,8
 239              	.LCFI7:
 240              		.cfi_def_cfa_offset 0
 241 003c 0004     		se_blr
 242              		.cfi_endproc
 243              	.LFE7:
 244              		.size	vector55, .-vector55
 245              		.section	.text.vector56,"axv",@progbits
 246              		.align 1
 247              		.p2align 4,,15
 248              		.globl vector56
 249              		.type	vector56, @function
 250              	vector56:
 251              	.LFB8:
 252              		.loc 1 262 0
 253              		.cfi_startproc
 254 0000 182106F8 		e_stwu %r1,-8(%r1)
 255              	.LCFI8:
 256              		.cfi_def_cfa_offset 8
 257 0004 0080     		se_mflr %r0
 258 0006 D301     		se_stw %r0,12(%r1)
 259              		.cfi_offset 65, 4
 260              		.loc 1 266 0
 261 0008 70E0E000 		e_lis %r7,.LANCHOR0+12@ha
 262 000c 50E70000 		e_lwz %r7,.LANCHOR0+12@l(%r7)
 263 0010 2A07     		se_cmpi %r7,0
 264 0012 7A020008 		e_bne %cr0,.L12
 265              		.loc 1 267 0
 266 0016 78000001 		e_bl irqSysHalt
 267              	.LVL15:
 268              	.L12:
 269              		.loc 1 269 0
 270 001a 4836     		se_li %r6,3
 271 001c 70FFE40A 		e_lis %r7,0xfc0a
 272 0020 34C7001C 		e_stb %r6,28(%r7)
 273              		.loc 1 270 0
 274 0024 70E0E000 		e_lis %r7,.LANCHOR0+12@ha
 275 0028 50E70000 		e_lwz %r7,.LANCHOR0+12@l(%r7)
 276 002c C267     		se_lwz %r6,8(%r7)
 277 002e 4833     		se_li %r3,3
 278 0030 C447     		se_lwz %r4,16(%r7)
 279 0032 00B6     		se_mtctr %r6
 280 0034 0007     		se_bctrl
 281              	.LVL16:
 282              		.loc 1 273 0
 283 0036 C301     		se_lwz %r0,12(%r1)
 284 0038 0090     		se_mtlr %r0
 285              		.cfi_restore 65
GAS LISTING C:\Users\duchu\AppData\Local\Temp\ccqhNTr1.s 			page 6


 286 003a 2071     		se_addi %r1,8
 287              	.LCFI9:
 288              		.cfi_def_cfa_offset 0
 289 003c 0004     		se_blr
 290              		.cfi_endproc
 291              	.LFE8:
 292              		.size	vector56, .-vector56
 293              		.section	.text.vector57,"axv",@progbits
 294              		.align 1
 295              		.p2align 4,,15
 296              		.globl vector57
 297              		.type	vector57, @function
 298              	vector57:
 299              	.LFB9:
 300              		.loc 1 283 0
 301              		.cfi_startproc
 302 0000 182106F8 		e_stwu %r1,-8(%r1)
 303              	.LCFI10:
 304              		.cfi_def_cfa_offset 8
 305 0004 0080     		se_mflr %r0
 306 0006 D301     		se_stw %r0,12(%r1)
 307              		.cfi_offset 65, 4
 308              		.loc 1 287 0
 309 0008 70E0E000 		e_lis %r7,.LANCHOR0+16@ha
 310 000c 50E70000 		e_lwz %r7,.LANCHOR0+16@l(%r7)
 311 0010 2A07     		se_cmpi %r7,0
 312 0012 7A020008 		e_bne %cr0,.L14
 313              		.loc 1 288 0
 314 0016 78000001 		e_bl irqSysHalt
 315              	.LVL17:
 316              	.L14:
 317              		.loc 1 290 0
 318 001a 4846     		se_li %r6,4
 319 001c 70FFE40A 		e_lis %r7,0xfc0a
 320 0020 34C7001C 		e_stb %r6,28(%r7)
 321              		.loc 1 291 0
 322 0024 70E0E000 		e_lis %r7,.LANCHOR0+16@ha
 323 0028 50E70000 		e_lwz %r7,.LANCHOR0+16@l(%r7)
 324 002c C267     		se_lwz %r6,8(%r7)
 325 002e 4843     		se_li %r3,4
 326 0030 C447     		se_lwz %r4,16(%r7)
 327 0032 00B6     		se_mtctr %r6
 328 0034 0007     		se_bctrl
 329              	.LVL18:
 330              		.loc 1 294 0
 331 0036 C301     		se_lwz %r0,12(%r1)
 332 0038 0090     		se_mtlr %r0
 333              		.cfi_restore 65
 334 003a 2071     		se_addi %r1,8
 335              	.LCFI11:
 336              		.cfi_def_cfa_offset 0
 337 003c 0004     		se_blr
 338              		.cfi_endproc
 339              	.LFE9:
 340              		.size	vector57, .-vector57
 341              		.section	.text.vector58,"axv",@progbits
 342              		.align 1
GAS LISTING C:\Users\duchu\AppData\Local\Temp\ccqhNTr1.s 			page 7


 343              		.p2align 4,,15
 344              		.globl vector58
 345              		.type	vector58, @function
 346              	vector58:
 347              	.LFB10:
 348              		.loc 1 304 0
 349              		.cfi_startproc
 350 0000 182106F8 		e_stwu %r1,-8(%r1)
 351              	.LCFI12:
 352              		.cfi_def_cfa_offset 8
 353 0004 0080     		se_mflr %r0
 354 0006 D301     		se_stw %r0,12(%r1)
 355              		.cfi_offset 65, 4
 356              		.loc 1 308 0
 357 0008 70E0E000 		e_lis %r7,.LANCHOR0+20@ha
 358 000c 50E70000 		e_lwz %r7,.LANCHOR0+20@l(%r7)
 359 0010 2A07     		se_cmpi %r7,0
 360 0012 7A020008 		e_bne %cr0,.L16
 361              		.loc 1 309 0
 362 0016 78000001 		e_bl irqSysHalt
 363              	.LVL19:
 364              	.L16:
 365              		.loc 1 311 0
 366 001a 4856     		se_li %r6,5
 367 001c 70FFE40A 		e_lis %r7,0xfc0a
 368 0020 34C7001C 		e_stb %r6,28(%r7)
 369              		.loc 1 312 0
 370 0024 70E0E000 		e_lis %r7,.LANCHOR0+20@ha
 371 0028 50E70000 		e_lwz %r7,.LANCHOR0+20@l(%r7)
 372 002c C267     		se_lwz %r6,8(%r7)
 373 002e 4853     		se_li %r3,5
 374 0030 C447     		se_lwz %r4,16(%r7)
 375 0032 00B6     		se_mtctr %r6
 376 0034 0007     		se_bctrl
 377              	.LVL20:
 378              		.loc 1 315 0
 379 0036 C301     		se_lwz %r0,12(%r1)
 380 0038 0090     		se_mtlr %r0
 381              		.cfi_restore 65
 382 003a 2071     		se_addi %r1,8
 383              	.LCFI13:
 384              		.cfi_def_cfa_offset 0
 385 003c 0004     		se_blr
 386              		.cfi_endproc
 387              	.LFE10:
 388              		.size	vector58, .-vector58
 389              		.section	.text.vector59,"axv",@progbits
 390              		.align 1
 391              		.p2align 4,,15
 392              		.globl vector59
 393              		.type	vector59, @function
 394              	vector59:
 395              	.LFB11:
 396              		.loc 1 325 0
 397              		.cfi_startproc
 398 0000 182106F8 		e_stwu %r1,-8(%r1)
 399              	.LCFI14:
GAS LISTING C:\Users\duchu\AppData\Local\Temp\ccqhNTr1.s 			page 8


 400              		.cfi_def_cfa_offset 8
 401 0004 0080     		se_mflr %r0
 402 0006 D301     		se_stw %r0,12(%r1)
 403              		.cfi_offset 65, 4
 404              		.loc 1 329 0
 405 0008 70E0E000 		e_lis %r7,.LANCHOR0+24@ha
 406 000c 50E70000 		e_lwz %r7,.LANCHOR0+24@l(%r7)
 407 0010 2A07     		se_cmpi %r7,0
 408 0012 7A020008 		e_bne %cr0,.L18
 409              		.loc 1 330 0
 410 0016 78000001 		e_bl irqSysHalt
 411              	.LVL21:
 412              	.L18:
 413              		.loc 1 332 0
 414 001a 4866     		se_li %r6,6
 415 001c 70FFE40A 		e_lis %r7,0xfc0a
 416 0020 34C7001C 		e_stb %r6,28(%r7)
 417              		.loc 1 333 0
 418 0024 70E0E000 		e_lis %r7,.LANCHOR0+24@ha
 419 0028 50E70000 		e_lwz %r7,.LANCHOR0+24@l(%r7)
 420 002c C267     		se_lwz %r6,8(%r7)
 421 002e 4863     		se_li %r3,6
 422 0030 C447     		se_lwz %r4,16(%r7)
 423 0032 00B6     		se_mtctr %r6
 424 0034 0007     		se_bctrl
 425              	.LVL22:
 426              		.loc 1 336 0
 427 0036 C301     		se_lwz %r0,12(%r1)
 428 0038 0090     		se_mtlr %r0
 429              		.cfi_restore 65
 430 003a 2071     		se_addi %r1,8
 431              	.LCFI15:
 432              		.cfi_def_cfa_offset 0
 433 003c 0004     		se_blr
 434              		.cfi_endproc
 435              	.LFE11:
 436              		.size	vector59, .-vector59
 437              		.section	.text.vector60,"axv",@progbits
 438              		.align 1
 439              		.p2align 4,,15
 440              		.globl vector60
 441              		.type	vector60, @function
 442              	vector60:
 443              	.LFB12:
 444              		.loc 1 346 0
 445              		.cfi_startproc
 446 0000 182106F8 		e_stwu %r1,-8(%r1)
 447              	.LCFI16:
 448              		.cfi_def_cfa_offset 8
 449 0004 0080     		se_mflr %r0
 450 0006 D301     		se_stw %r0,12(%r1)
 451              		.cfi_offset 65, 4
 452              		.loc 1 350 0
 453 0008 70E0E000 		e_lis %r7,.LANCHOR0+28@ha
 454 000c 50E70000 		e_lwz %r7,.LANCHOR0+28@l(%r7)
 455 0010 2A07     		se_cmpi %r7,0
 456 0012 7A020008 		e_bne %cr0,.L20
GAS LISTING C:\Users\duchu\AppData\Local\Temp\ccqhNTr1.s 			page 9


 457              		.loc 1 351 0
 458 0016 78000001 		e_bl irqSysHalt
 459              	.LVL23:
 460              	.L20:
 461              		.loc 1 353 0
 462 001a 4876     		se_li %r6,7
 463 001c 70FFE40A 		e_lis %r7,0xfc0a
 464 0020 34C7001C 		e_stb %r6,28(%r7)
 465              		.loc 1 354 0
 466 0024 70E0E000 		e_lis %r7,.LANCHOR0+28@ha
 467 0028 50E70000 		e_lwz %r7,.LANCHOR0+28@l(%r7)
 468 002c C267     		se_lwz %r6,8(%r7)
 469 002e 4873     		se_li %r3,7
 470 0030 C447     		se_lwz %r4,16(%r7)
 471 0032 00B6     		se_mtctr %r6
 472 0034 0007     		se_bctrl
 473              	.LVL24:
 474              		.loc 1 357 0
 475 0036 C301     		se_lwz %r0,12(%r1)
 476 0038 0090     		se_mtlr %r0
 477              		.cfi_restore 65
 478 003a 2071     		se_addi %r1,8
 479              	.LCFI17:
 480              		.cfi_def_cfa_offset 0
 481 003c 0004     		se_blr
 482              		.cfi_endproc
 483              	.LFE12:
 484              		.size	vector60, .-vector60
 485              		.section	.text.vector61,"axv",@progbits
 486              		.align 1
 487              		.p2align 4,,15
 488              		.globl vector61
 489              		.type	vector61, @function
 490              	vector61:
 491              	.LFB13:
 492              		.loc 1 367 0
 493              		.cfi_startproc
 494 0000 182106F8 		e_stwu %r1,-8(%r1)
 495              	.LCFI18:
 496              		.cfi_def_cfa_offset 8
 497 0004 0080     		se_mflr %r0
 498 0006 D301     		se_stw %r0,12(%r1)
 499              		.cfi_offset 65, 4
 500              		.loc 1 371 0
 501 0008 70E0E000 		e_lis %r7,.LANCHOR0+32@ha
 502 000c 50E70000 		e_lwz %r7,.LANCHOR0+32@l(%r7)
 503 0010 2A07     		se_cmpi %r7,0
 504 0012 7A020008 		e_bne %cr0,.L22
 505              		.loc 1 372 0
 506 0016 78000001 		e_bl irqSysHalt
 507              	.LVL25:
 508              	.L22:
 509              		.loc 1 374 0
 510 001a 4886     		se_li %r6,8
 511 001c 70FFE40A 		e_lis %r7,0xfc0a
 512 0020 34C7001C 		e_stb %r6,28(%r7)
 513              		.loc 1 375 0
GAS LISTING C:\Users\duchu\AppData\Local\Temp\ccqhNTr1.s 			page 10


 514 0024 70E0E000 		e_lis %r7,.LANCHOR0+32@ha
 515 0028 50E70000 		e_lwz %r7,.LANCHOR0+32@l(%r7)
 516 002c C267     		se_lwz %r6,8(%r7)
 517 002e 4883     		se_li %r3,8
 518 0030 C447     		se_lwz %r4,16(%r7)
 519 0032 00B6     		se_mtctr %r6
 520 0034 0007     		se_bctrl
 521              	.LVL26:
 522              		.loc 1 378 0
 523 0036 C301     		se_lwz %r0,12(%r1)
 524 0038 0090     		se_mtlr %r0
 525              		.cfi_restore 65
 526 003a 2071     		se_addi %r1,8
 527              	.LCFI19:
 528              		.cfi_def_cfa_offset 0
 529 003c 0004     		se_blr
 530              		.cfi_endproc
 531              	.LFE13:
 532              		.size	vector61, .-vector61
 533              		.section	.text.vector62,"axv",@progbits
 534              		.align 1
 535              		.p2align 4,,15
 536              		.globl vector62
 537              		.type	vector62, @function
 538              	vector62:
 539              	.LFB14:
 540              		.loc 1 388 0
 541              		.cfi_startproc
 542 0000 182106F8 		e_stwu %r1,-8(%r1)
 543              	.LCFI20:
 544              		.cfi_def_cfa_offset 8
 545 0004 0080     		se_mflr %r0
 546 0006 D301     		se_stw %r0,12(%r1)
 547              		.cfi_offset 65, 4
 548              		.loc 1 392 0
 549 0008 70E0E000 		e_lis %r7,.LANCHOR0+36@ha
 550 000c 50E70000 		e_lwz %r7,.LANCHOR0+36@l(%r7)
 551 0010 2A07     		se_cmpi %r7,0
 552 0012 7A020008 		e_bne %cr0,.L24
 553              		.loc 1 393 0
 554 0016 78000001 		e_bl irqSysHalt
 555              	.LVL27:
 556              	.L24:
 557              		.loc 1 395 0
 558 001a 4896     		se_li %r6,9
 559 001c 70FFE40A 		e_lis %r7,0xfc0a
 560 0020 34C7001C 		e_stb %r6,28(%r7)
 561              		.loc 1 396 0
 562 0024 70E0E000 		e_lis %r7,.LANCHOR0+36@ha
 563 0028 50E70000 		e_lwz %r7,.LANCHOR0+36@l(%r7)
 564 002c C267     		se_lwz %r6,8(%r7)
 565 002e 4893     		se_li %r3,9
 566 0030 C447     		se_lwz %r4,16(%r7)
 567 0032 00B6     		se_mtctr %r6
 568 0034 0007     		se_bctrl
 569              	.LVL28:
 570              		.loc 1 399 0
GAS LISTING C:\Users\duchu\AppData\Local\Temp\ccqhNTr1.s 			page 11


 571 0036 C301     		se_lwz %r0,12(%r1)
 572 0038 0090     		se_mtlr %r0
 573              		.cfi_restore 65
 574 003a 2071     		se_addi %r1,8
 575              	.LCFI21:
 576              		.cfi_def_cfa_offset 0
 577 003c 0004     		se_blr
 578              		.cfi_endproc
 579              	.LFE14:
 580              		.size	vector62, .-vector62
 581              		.section	.text.vector63,"axv",@progbits
 582              		.align 1
 583              		.p2align 4,,15
 584              		.globl vector63
 585              		.type	vector63, @function
 586              	vector63:
 587              	.LFB15:
 588              		.loc 1 409 0
 589              		.cfi_startproc
 590 0000 182106F8 		e_stwu %r1,-8(%r1)
 591              	.LCFI22:
 592              		.cfi_def_cfa_offset 8
 593 0004 0080     		se_mflr %r0
 594 0006 D301     		se_stw %r0,12(%r1)
 595              		.cfi_offset 65, 4
 596              		.loc 1 413 0
 597 0008 70E0E000 		e_lis %r7,.LANCHOR0+40@ha
 598 000c 50E70000 		e_lwz %r7,.LANCHOR0+40@l(%r7)
 599 0010 2A07     		se_cmpi %r7,0
 600 0012 7A020008 		e_bne %cr0,.L26
 601              		.loc 1 414 0
 602 0016 78000001 		e_bl irqSysHalt
 603              	.LVL29:
 604              	.L26:
 605              		.loc 1 416 0
 606 001a 48A6     		se_li %r6,10
 607 001c 70FFE40A 		e_lis %r7,0xfc0a
 608 0020 34C7001C 		e_stb %r6,28(%r7)
 609              		.loc 1 417 0
 610 0024 70E0E000 		e_lis %r7,.LANCHOR0+40@ha
 611 0028 50E70000 		e_lwz %r7,.LANCHOR0+40@l(%r7)
 612 002c C267     		se_lwz %r6,8(%r7)
 613 002e 48A3     		se_li %r3,10
 614 0030 C447     		se_lwz %r4,16(%r7)
 615 0032 00B6     		se_mtctr %r6
 616 0034 0007     		se_bctrl
 617              	.LVL30:
 618              		.loc 1 420 0
 619 0036 C301     		se_lwz %r0,12(%r1)
 620 0038 0090     		se_mtlr %r0
 621              		.cfi_restore 65
 622 003a 2071     		se_addi %r1,8
 623              	.LCFI23:
 624              		.cfi_def_cfa_offset 0
 625 003c 0004     		se_blr
 626              		.cfi_endproc
 627              	.LFE15:
GAS LISTING C:\Users\duchu\AppData\Local\Temp\ccqhNTr1.s 			page 12


 628              		.size	vector63, .-vector63
 629              		.section	.text.vector64,"axv",@progbits
 630              		.align 1
 631              		.p2align 4,,15
 632              		.globl vector64
 633              		.type	vector64, @function
 634              	vector64:
 635              	.LFB16:
 636              		.loc 1 430 0
 637              		.cfi_startproc
 638 0000 182106F8 		e_stwu %r1,-8(%r1)
 639              	.LCFI24:
 640              		.cfi_def_cfa_offset 8
 641 0004 0080     		se_mflr %r0
 642 0006 D301     		se_stw %r0,12(%r1)
 643              		.cfi_offset 65, 4
 644              		.loc 1 434 0
 645 0008 70E0E000 		e_lis %r7,.LANCHOR0+44@ha
 646 000c 50E70000 		e_lwz %r7,.LANCHOR0+44@l(%r7)
 647 0010 2A07     		se_cmpi %r7,0
 648 0012 7A020008 		e_bne %cr0,.L28
 649              		.loc 1 435 0
 650 0016 78000001 		e_bl irqSysHalt
 651              	.LVL31:
 652              	.L28:
 653              		.loc 1 437 0
 654 001a 48B6     		se_li %r6,11
 655 001c 70FFE40A 		e_lis %r7,0xfc0a
 656 0020 34C7001C 		e_stb %r6,28(%r7)
 657              		.loc 1 438 0
 658 0024 70E0E000 		e_lis %r7,.LANCHOR0+44@ha
 659 0028 50E70000 		e_lwz %r7,.LANCHOR0+44@l(%r7)
 660 002c C267     		se_lwz %r6,8(%r7)
 661 002e 48B3     		se_li %r3,11
 662 0030 C447     		se_lwz %r4,16(%r7)
 663 0032 00B6     		se_mtctr %r6
 664 0034 0007     		se_bctrl
 665              	.LVL32:
 666              		.loc 1 441 0
 667 0036 C301     		se_lwz %r0,12(%r1)
 668 0038 0090     		se_mtlr %r0
 669              		.cfi_restore 65
 670 003a 2071     		se_addi %r1,8
 671              	.LCFI25:
 672              		.cfi_def_cfa_offset 0
 673 003c 0004     		se_blr
 674              		.cfi_endproc
 675              	.LFE16:
 676              		.size	vector64, .-vector64
 677              		.section	.text.vector65,"axv",@progbits
 678              		.align 1
 679              		.p2align 4,,15
 680              		.globl vector65
 681              		.type	vector65, @function
 682              	vector65:
 683              	.LFB17:
 684              		.loc 1 451 0
GAS LISTING C:\Users\duchu\AppData\Local\Temp\ccqhNTr1.s 			page 13


 685              		.cfi_startproc
 686 0000 182106F8 		e_stwu %r1,-8(%r1)
 687              	.LCFI26:
 688              		.cfi_def_cfa_offset 8
 689 0004 0080     		se_mflr %r0
 690 0006 D301     		se_stw %r0,12(%r1)
 691              		.cfi_offset 65, 4
 692              		.loc 1 455 0
 693 0008 70E0E000 		e_lis %r7,.LANCHOR0+48@ha
 694 000c 50E70000 		e_lwz %r7,.LANCHOR0+48@l(%r7)
 695 0010 2A07     		se_cmpi %r7,0
 696 0012 7A020008 		e_bne %cr0,.L30
 697              		.loc 1 456 0
 698 0016 78000001 		e_bl irqSysHalt
 699              	.LVL33:
 700              	.L30:
 701              		.loc 1 458 0
 702 001a 48C6     		se_li %r6,12
 703 001c 70FFE40A 		e_lis %r7,0xfc0a
 704 0020 34C7001C 		e_stb %r6,28(%r7)
 705              		.loc 1 459 0
 706 0024 70E0E000 		e_lis %r7,.LANCHOR0+48@ha
 707 0028 50E70000 		e_lwz %r7,.LANCHOR0+48@l(%r7)
 708 002c C267     		se_lwz %r6,8(%r7)
 709 002e 48C3     		se_li %r3,12
 710 0030 C447     		se_lwz %r4,16(%r7)
 711 0032 00B6     		se_mtctr %r6
 712 0034 0007     		se_bctrl
 713              	.LVL34:
 714              		.loc 1 462 0
 715 0036 C301     		se_lwz %r0,12(%r1)
 716 0038 0090     		se_mtlr %r0
 717              		.cfi_restore 65
 718 003a 2071     		se_addi %r1,8
 719              	.LCFI27:
 720              		.cfi_def_cfa_offset 0
 721 003c 0004     		se_blr
 722              		.cfi_endproc
 723              	.LFE17:
 724              		.size	vector65, .-vector65
 725              		.section	.text.vector66,"axv",@progbits
 726              		.align 1
 727              		.p2align 4,,15
 728              		.globl vector66
 729              		.type	vector66, @function
 730              	vector66:
 731              	.LFB18:
 732              		.loc 1 472 0
 733              		.cfi_startproc
 734 0000 182106F8 		e_stwu %r1,-8(%r1)
 735              	.LCFI28:
 736              		.cfi_def_cfa_offset 8
 737 0004 0080     		se_mflr %r0
 738 0006 D301     		se_stw %r0,12(%r1)
 739              		.cfi_offset 65, 4
 740              		.loc 1 476 0
 741 0008 70E0E000 		e_lis %r7,.LANCHOR0+52@ha
GAS LISTING C:\Users\duchu\AppData\Local\Temp\ccqhNTr1.s 			page 14


 742 000c 50E70000 		e_lwz %r7,.LANCHOR0+52@l(%r7)
 743 0010 2A07     		se_cmpi %r7,0
 744 0012 7A020008 		e_bne %cr0,.L32
 745              		.loc 1 477 0
 746 0016 78000001 		e_bl irqSysHalt
 747              	.LVL35:
 748              	.L32:
 749              		.loc 1 479 0
 750 001a 48D6     		se_li %r6,13
 751 001c 70FFE40A 		e_lis %r7,0xfc0a
 752 0020 34C7001C 		e_stb %r6,28(%r7)
 753              		.loc 1 480 0
 754 0024 70E0E000 		e_lis %r7,.LANCHOR0+52@ha
 755 0028 50E70000 		e_lwz %r7,.LANCHOR0+52@l(%r7)
 756 002c C267     		se_lwz %r6,8(%r7)
 757 002e 48D3     		se_li %r3,13
 758 0030 C447     		se_lwz %r4,16(%r7)
 759 0032 00B6     		se_mtctr %r6
 760 0034 0007     		se_bctrl
 761              	.LVL36:
 762              		.loc 1 483 0
 763 0036 C301     		se_lwz %r0,12(%r1)
 764 0038 0090     		se_mtlr %r0
 765              		.cfi_restore 65
 766 003a 2071     		se_addi %r1,8
 767              	.LCFI29:
 768              		.cfi_def_cfa_offset 0
 769 003c 0004     		se_blr
 770              		.cfi_endproc
 771              	.LFE18:
 772              		.size	vector66, .-vector66
 773              		.section	.text.vector67,"axv",@progbits
 774              		.align 1
 775              		.p2align 4,,15
 776              		.globl vector67
 777              		.type	vector67, @function
 778              	vector67:
 779              	.LFB19:
 780              		.loc 1 493 0
 781              		.cfi_startproc
 782 0000 182106F8 		e_stwu %r1,-8(%r1)
 783              	.LCFI30:
 784              		.cfi_def_cfa_offset 8
 785 0004 0080     		se_mflr %r0
 786 0006 D301     		se_stw %r0,12(%r1)
 787              		.cfi_offset 65, 4
 788              		.loc 1 497 0
 789 0008 70E0E000 		e_lis %r7,.LANCHOR0+56@ha
 790 000c 50E70000 		e_lwz %r7,.LANCHOR0+56@l(%r7)
 791 0010 2A07     		se_cmpi %r7,0
 792 0012 7A020008 		e_bne %cr0,.L34
 793              		.loc 1 498 0
 794 0016 78000001 		e_bl irqSysHalt
 795              	.LVL37:
 796              	.L34:
 797              		.loc 1 500 0
 798 001a 48E6     		se_li %r6,14
GAS LISTING C:\Users\duchu\AppData\Local\Temp\ccqhNTr1.s 			page 15


 799 001c 70FFE40A 		e_lis %r7,0xfc0a
 800 0020 34C7001C 		e_stb %r6,28(%r7)
 801              		.loc 1 501 0
 802 0024 70E0E000 		e_lis %r7,.LANCHOR0+56@ha
 803 0028 50E70000 		e_lwz %r7,.LANCHOR0+56@l(%r7)
 804 002c C267     		se_lwz %r6,8(%r7)
 805 002e 48E3     		se_li %r3,14
 806 0030 C447     		se_lwz %r4,16(%r7)
 807 0032 00B6     		se_mtctr %r6
 808 0034 0007     		se_bctrl
 809              	.LVL38:
 810              		.loc 1 504 0
 811 0036 C301     		se_lwz %r0,12(%r1)
 812 0038 0090     		se_mtlr %r0
 813              		.cfi_restore 65
 814 003a 2071     		se_addi %r1,8
 815              	.LCFI31:
 816              		.cfi_def_cfa_offset 0
 817 003c 0004     		se_blr
 818              		.cfi_endproc
 819              	.LFE19:
 820              		.size	vector67, .-vector67
 821              		.section	.text.vector68,"axv",@progbits
 822              		.align 1
 823              		.p2align 4,,15
 824              		.globl vector68
 825              		.type	vector68, @function
 826              	vector68:
 827              	.LFB20:
 828              		.loc 1 514 0
 829              		.cfi_startproc
 830 0000 182106F8 		e_stwu %r1,-8(%r1)
 831              	.LCFI32:
 832              		.cfi_def_cfa_offset 8
 833 0004 0080     		se_mflr %r0
 834 0006 D301     		se_stw %r0,12(%r1)
 835              		.cfi_offset 65, 4
 836              		.loc 1 518 0
 837 0008 70E0E000 		e_lis %r7,.LANCHOR0+60@ha
 838 000c 50E70000 		e_lwz %r7,.LANCHOR0+60@l(%r7)
 839 0010 2A07     		se_cmpi %r7,0
 840 0012 7A020008 		e_bne %cr0,.L36
 841              		.loc 1 519 0
 842 0016 78000001 		e_bl irqSysHalt
 843              	.LVL39:
 844              	.L36:
 845              		.loc 1 521 0
 846 001a 48F6     		se_li %r6,15
 847 001c 70FFE40A 		e_lis %r7,0xfc0a
 848 0020 34C7001C 		e_stb %r6,28(%r7)
 849              		.loc 1 522 0
 850 0024 70E0E000 		e_lis %r7,.LANCHOR0+60@ha
 851 0028 50E70000 		e_lwz %r7,.LANCHOR0+60@l(%r7)
 852 002c C267     		se_lwz %r6,8(%r7)
 853 002e 48F3     		se_li %r3,15
 854 0030 C447     		se_lwz %r4,16(%r7)
 855 0032 00B6     		se_mtctr %r6
GAS LISTING C:\Users\duchu\AppData\Local\Temp\ccqhNTr1.s 			page 16


 856 0034 0007     		se_bctrl
 857              	.LVL40:
 858              		.loc 1 525 0
 859 0036 C301     		se_lwz %r0,12(%r1)
 860 0038 0090     		se_mtlr %r0
 861              		.cfi_restore 65
 862 003a 2071     		se_addi %r1,8
 863              	.LCFI33:
 864              		.cfi_def_cfa_offset 0
 865 003c 0004     		se_blr
 866              		.cfi_endproc
 867              	.LFE20:
 868              		.size	vector68, .-vector68
 869              		.section	.text.edmaInit,"axv",@progbits
 870              		.align 1
 871              		.p2align 4,,15
 872              		.globl edmaInit
 873              		.type	edmaInit, @function
 874              	edmaInit:
 875              	.LFB21:
 876              		.loc 1 2224 0
 877              		.cfi_startproc
 878 0000 182106F8 		e_stwu %r1,-8(%r1)
 879              	.LCFI34:
 880              		.cfi_def_cfa_offset 8
 881 0004 0080     		se_mflr %r0
 882 0006 D301     		se_stw %r0,12(%r1)
 883              		.cfi_offset 65, 4
 884              		.loc 1 2227 0
 885 0008 70FFE40A 		e_lis %r7,0xfc0a
 886 000c 70DC0488 		e_li %r6,58504
 887 0010 D067     		se_stw %r6,0(%r7)
 888              		.loc 1 2228 0
 889 0012 4806     		se_li %r6,0
 890 0014 D367     		se_stw %r6,12(%r7)
 891              		.loc 1 2229 0
 892 0016 D567     		se_stw %r6,20(%r7)
 893              		.loc 1 2230 0
 894 0018 2C06     		se_bmaski %r6,0
 895 001a D967     		se_stw %r6,36(%r7)
 896              		.loc 1 2231 0
 897 001c DB67     		se_stw %r6,44(%r7)
 898              	.LVL41:
 899 001e 70E0E000 		e_lis %r7,.LANCHOR1@ha
 900 0022 1CE70000 		e_la %r7,.LANCHOR1@l(%r7)
 901 0026 7CC73214 		add %r6,%r7,%r6
 902 002a 1887B001 		e_subfic %r4, %r7, 1
 903              		.loc 1 2249 0
 904 002e 707FE40A 		e_lis %r3,0xfc0a
 905 0032 4907     		se_li %r7,16
 906 0034 00B7     		se_mtctr %r7
 907              	.LVL42:
 908              	.L38:
 909 0036 7CE43214 		add %r7,%r4,%r6
 910              		.loc 1 2249 0 is_stmt 0 discriminator 3
 911 003a 18A60001 		e_lbzu %r5,1(%r6)
 912              	.LVL43:
GAS LISTING C:\Users\duchu\AppData\Local\Temp\ccqhNTr1.s 			page 17


 913 003e 7CE33A14 		add %r7,%r3,%r7
 914 0042 34A70100 		e_stb %r5,256(%r7)
 915              	.LVL44:
 916              		.loc 1 2248 0 is_stmt 1 discriminator 3
 917 0046 7A20FFF0 		e_bdnz .L38
 918              		.loc 1 2266 0
 919 004a 48A6     		se_li %r6,10
 920              	.LVL45:
 921 004c 70FFE404 		e_lis %r7,0xfc04
 922 0050 18E7D0C8 		e_ori %r7,%r7,200
 923 0054 B067     		se_sth %r6,0(%r7)
 924              		.loc 1 2269 0
 925 0056 4A43     		se_li %r3,36
 926 0058 4914     		se_li %r4,17
 927 005a 78000001 		e_bl SPCSetPeripheralClockMode
 928              	.LVL46:
 929              		.loc 1 2283 0
 930 005e C301     		se_lwz %r0,12(%r1)
 931 0060 0090     		se_mtlr %r0
 932              		.cfi_restore 65
 933 0062 2071     		se_addi %r1,8
 934              	.LCFI35:
 935              		.cfi_def_cfa_offset 0
 936 0064 0004     		se_blr
 937              		.cfi_endproc
 938              	.LFE21:
 939              		.size	edmaInit, .-edmaInit
 940              		.section	.text.edmaChannelAllocate,"axv",@progbits
 941              		.align 1
 942              		.p2align 4,,15
 943              		.globl edmaChannelAllocate
 944              		.type	edmaChannelAllocate, @function
 945              	edmaChannelAllocate:
 946              	.LFB23:
 947              		.loc 1 2357 0
 948              		.cfi_startproc
 949              	.LVL47:
 950 0000 0136     		se_mr %r6,%r3
 951              		.loc 1 2360 0
 952 0002 C053     		se_lwz %r5,0(%r3)
 953 0004 7CA41070 		e_slwi %r4,%r5,2
 954 0008 70E0E000 		e_lis %r7,.LANCHOR0@ha
 955 000c 1CE70000 		e_la %r7,.LANCHOR0@l(%r7)
 956 0010 7CE7202E 		lwzx %r7,%r7,%r4
 957              		.loc 1 2361 0
 958 0014 2C03     		se_bmaski %r3,0
 959              	.LVL48:
 960              		.loc 1 2360 0
 961 0016 2A07     		se_cmpi %r7,0
 962 0018 7A020056 		e_bne %cr0,.L41
 963              	.LVL49:
 964              	.LBB4:
 965              	.LBB5:
 966              		.loc 1 2343 0
 967 001c 8476     		se_lbz %r7,4(%r6)
 968 001e 18E7D480 		e_ori %r7,%r7,-128
 969 0022 00C7     		se_extzb %r7
GAS LISTING C:\Users\duchu\AppData\Local\Temp\ccqhNTr1.s 			page 18


 970 0024 709FE7F6 		e_lis %r4,0xfff6
 971 0028 1884D1C0 		e_ori %r4,%r4,49152
 972 002c 7CE429AE 		stbx %r7,%r4,%r5
 973              	.LBE5:
 974              	.LBE4:
 975              		.loc 1 2367 0
 976 0030 C076     		se_lwz %r7,0(%r6)
 977 0032 6C27     		se_slwi %r7, 2
 978 0034 70A0E000 		e_lis %r5,.LANCHOR0@ha
 979 0038 1CA50000 		e_la %r5,.LANCHOR0@l(%r5)
 980 003c 7CC5392E 		stwx %r6,%r5,%r7
 981              		.loc 1 2371 0
 982 0040 C376     		se_lwz %r7,12(%r6)
 983 0042 2A07     		se_cmpi %r7,0
 984 0044 7A12000E 		e_beq %cr0,.L42
 985              		.loc 1 2373 0
 986 0048 8356     		se_lbz %r5,3(%r6)
 987 004a 70FFE40A 		e_lis %r7,0xfc0a
 988 004e 34A7001A 		e_stb %r5,26(%r7)
 989              	.L42:
 990              		.loc 1 2388 0
 991 0052 C076     		se_lwz %r7,0(%r6)
 992 0054 18E78035 		e_addi %r7,%r7,53
 993 0058 74E5043F 		e_rlwinm %r5,%r7,0,0xffff
 994 005c 70EFE602 		e_lis %r7,0x7e02
 995 0060 18E7D030 		e_ori %r7,%r7,48
 996 0064 0457     		se_add %r7,%r5
 997 0066 6C17     		se_slwi %r7, 1
 998 0068 A356     		se_lhz %r5,6(%r6)
 999 006a B057     		se_sth %r5,0(%r7)
 1000              		.loc 1 2391 0
 1001 006c C036     		se_lwz %r3,0(%r6)
 1002              	.LVL50:
 1003              	.L41:
 1004              		.loc 1 2392 0
 1005 006e 0004     		se_blr
 1006              		.cfi_endproc
 1007              	.LFE23:
 1008              		.size	edmaChannelAllocate, .-edmaChannelAllocate
 1009              		.section	.text.edmaChannelRelease,"axv",@progbits
 1010              		.align 1
 1011              		.p2align 4,,15
 1012              		.globl edmaChannelRelease
 1013              		.type	edmaChannelRelease, @function
 1014              	edmaChannelRelease:
 1015              	.LFB25:
 1016              		.loc 1 2457 0
 1017              		.cfi_startproc
 1018              	.LVL51:
 1019              		.loc 1 2460 0
 1020 0000 8363     		se_lbz %r6,3(%r3)
 1021 0002 70FFE40A 		e_lis %r7,0xfc0a
 1022 0006 34C70019 		e_stb %r6,25(%r7)
 1023 000a 8363     		se_lbz %r6,3(%r3)
 1024 000c 34C7001F 		e_stb %r6,31(%r7)
 1025              	.LVL52:
 1026              	.LBB8:
GAS LISTING C:\Users\duchu\AppData\Local\Temp\ccqhNTr1.s 			page 19


 1027              	.LBB9:
 1028              		.loc 1 2445 0
 1029 0010 C063     		se_lwz %r6,0(%r3)
 1030 0012 4804     		se_li %r4,0
 1031 0014 70BFE7F6 		e_lis %r5,0xfff6
 1032 0018 18A5D1C0 		e_ori %r5,%r5,49152
 1033 001c 7C8531AE 		stbx %r4,%r5,%r6
 1034              	.LBE9:
 1035              	.LBE8:
 1036              		.loc 1 2466 0
 1037 0020 8363     		se_lbz %r6,3(%r3)
 1038 0022 34C7001C 		e_stb %r6,28(%r7)
 1039              		.loc 1 2467 0
 1040 0026 8363     		se_lbz %r6,3(%r3)
 1041 0028 34C7001B 		e_stb %r6,27(%r7)
 1042              		.loc 1 2468 0
 1043 002c 8363     		se_lbz %r6,3(%r3)
 1044 002e 34C7001D 		e_stb %r6,29(%r7)
 1045              		.loc 1 2482 0
 1046 0032 C073     		se_lwz %r7,0(%r3)
 1047 0034 6C27     		se_slwi %r7, 2
 1048 0036 4805     		se_li %r5,0
 1049 0038 70C0E000 		e_lis %r6,.LANCHOR0@ha
 1050 003c 1CC60000 		e_la %r6,.LANCHOR0@l(%r6)
 1051 0040 7CA6392E 		stwx %r5,%r6,%r7
 1052 0044 0004     		se_blr
 1053              		.cfi_endproc
 1054              	.LFE25:
 1055              		.size	edmaChannelRelease, .-edmaChannelRelease
 1056              		.section	.rodata.dma1_g0,"a",@progbits
 1057              		.align 2
 1058              		.set	.LANCHOR1,. + 0
 1059              		.type	dma1_g0, @object
 1060              		.size	dma1_g0, 16
 1061              	dma1_g0:
 1062 0000 00       		.byte	0
 1063 0001 01       		.byte	1
 1064 0002 02       		.byte	2
 1065 0003 03       		.byte	3
 1066 0004 04       		.byte	4
 1067 0005 05       		.byte	5
 1068 0006 06       		.byte	6
 1069 0007 07       		.byte	7
 1070 0008 08       		.byte	8
 1071 0009 09       		.byte	9
 1072 000a 0A       		.byte	10
 1073 000b 0B       		.byte	11
 1074 000c 0C       		.byte	12
 1075 000d 0D       		.byte	13
 1076 000e 0E       		.byte	14
 1077 000f 0F       		.byte	15
 1078              		.section	.bss.channels,"aw",@nobits
 1079              		.align 2
 1080              		.set	.LANCHOR0,. + 0
 1081              		.type	channels, @object
 1082              		.size	channels, 64
 1083              	channels:
GAS LISTING C:\Users\duchu\AppData\Local\Temp\ccqhNTr1.s 			page 20


 1084 0000 00000000 		.zero	64
 1084      00000000 
 1084      00000000 
 1084      00000000 
 1084      00000000 
 1085              		.section	".text","axv"
 1086              	.Letext0:
 1087              		.file 2 "c:\\spc5studio\\eclipse\\plugins\\com.st.tools.spc5.tools.gnu.gcc.ppcvle.win32_4.9.4.2019
 1088              		.file 3 "c:\\spc5studio\\eclipse\\plugins\\com.st.tools.spc5.tools.gnu.gcc.ppcvle.win32_4.9.4.2019
 1089              		.file 4 "./components/spc570sxx_platform_component_rla/lib/include/typedefs.h"
 1090              		.file 5 "./components/spc570sxx_low_level_drivers_component_rla/lib/include/spc5_edma.h"
 1091              		.file 6 "./components/spc570sxx_irq_component_rla/lib/include/irq.h"
 1092              		.file 7 "./components/spc570sxx_clock_component_rla/lib/include/clock.h"