GAS LISTING C:\Users\duchu\AppData\Local\Temp\cc8L7U78.s 			page 1


   1              		.file	"systimer.c"
   2              		.section	".text","axv"
   3              	.Ltext0:
   4              		.cfi_sections	.debug_frame
   5              		.section	.text.sysTimeSetup,"axv",@progbits
   6              		.align 1
   7              		.p2align 4,,15
   8              		.globl sysTimeSetup
   9              		.type	sysTimeSetup, @function
  10              	sysTimeSetup:
  11              	.LFB4:
  12              		.file 1 "./components/spc570sxx_osal_component_rla/lib/src/systimer.c"
  13              		.loc 1 53 0
  14              		.cfi_startproc
  15              	.LVL0:
  16 0000 182106F0 		e_stwu %r1,-16(%r1)
  17              	.LCFI0:
  18              		.cfi_def_cfa_offset 16
  19 0004 0080     		se_mflr %r0
  20 0006 D501     		se_stw %r0,20(%r1)
  21 0008 D3F1     		se_stw %r31,12(%r1)
  22              		.cfi_offset 65, 4
  23              		.cfi_offset 31, -4
  24 000a 013F     		se_mr %r31,%r3
  25              		.loc 1 59 0
  26 000c 70D07804 		e_li %r6,-32764
  27 0010 70FFE404 		e_lis %r7,0xfc04
  28 0014 70E0C224 		e_or2i %r7,548
  29 0018 B067     		se_sth %r6,0(%r7)
  30              		.loc 1 60 0
  31 001a 49E3     		se_li %r3,30
  32              	.LVL1:
  33 001c 4924     		se_li %r4,18
  34 001e 78000001 		e_bl SPCSetPeripheralClockMode
  35              	.LVL2:
  36              		.loc 1 61 0
  37 0022 4803     		se_li %r3,0
  38 0024 78000001 		e_bl SPCGetPeripheralClock
  39              	.LVL3:
  40 0028 7C63FB96 		divwu %r3,%r3,%r31
  41 002c 186384FF 		e_addi %r3,%r3,-1
  42              	.LVL4:
  43              		.loc 1 62 0
  44 0030 70E84000 		e_li %r7,-507904
  45 0034 4816     		se_li %r6,1
  46 0036 D067     		se_stw %r6,0(%r7)
  47              		.loc 1 63 0
  48 0038 54670100 		e_stw %r3,256(%r7)
  49              		.loc 1 64 0
  50 003c 54670104 		e_stw %r3,260(%r7)
  51              		.loc 1 65 0
  52 0040 54C7010C 		e_stw %r6,268(%r7)
  53              		.loc 1 66 0
  54 0044 4836     		se_li %r6,3
  55 0046 54C70108 		e_stw %r6,264(%r7)
  56              		.loc 1 67 0
  57 004a C501     		se_lwz %r0,20(%r1)
GAS LISTING C:\Users\duchu\AppData\Local\Temp\cc8L7U78.s 			page 2


  58 004c 0090     		se_mtlr %r0
  59              		.cfi_restore 65
  60 004e C3F1     		se_lwz %r31,12(%r1)
  61              	.LVL5:
  62 0050 20F1     		se_addi %r1,16
  63              	.LCFI1:
  64              		.cfi_restore 31
  65              		.cfi_def_cfa_offset 0
  66 0052 0004     		se_blr
  67              		.cfi_endproc
  68              	.LFE4:
  69              		.size	sysTimeSetup, .-sysTimeSetup
  70              		.section	.text.sysTimeReset,"axv",@progbits
  71              		.align 1
  72              		.p2align 4,,15
  73              		.globl sysTimeReset
  74              		.type	sysTimeReset, @function
  75              	sysTimeReset:
  76              	.LFB5:
  77              		.loc 1 75 0
  78              		.cfi_startproc
  79              		.loc 1 77 0
  80 0000 70E84000 		e_li %r7,-507904
  81 0004 50E7010C 		e_lwz %r7,268(%r7)
  82 0008 2207     		se_cmpli %r7,1
  83 000a 7A02000E 		e_bne %cr0,.L2
  84              		.loc 1 78 0
  85 000e 4816     		se_li %r6,1
  86 0010 70E84000 		e_li %r7,-507904
  87 0014 54C7010C 		e_stw %r6,268(%r7)
  88              	.L2:
  89 0018 0004     		se_blr
  90              		.cfi_endproc
  91              	.LFE5:
  92              		.size	sysTimeReset, .-sysTimeReset
  93              		.section	".text","axv"
  94              	.Letext0:
  95              		.file 2 "c:\\spc5studio\\eclipse\\plugins\\com.st.tools.spc5.tools.gnu.gcc.ppcvle.win32_4.9.4.2019
  96              		.file 3 "c:\\spc5studio\\eclipse\\plugins\\com.st.tools.spc5.tools.gnu.gcc.ppcvle.win32_4.9.4.2019
  97              		.file 4 "./components/spc570sxx_platform_component_rla/lib/include/typedefs.h"
  98              		.file 5 "./components/spc570sxx_platform_component_rla/lib/include/xpc570s.h"
  99              		.file 6 "./components/spc570sxx_clock_component_rla/lib/include/clock.h"