GAS LISTING C:\Users\duchu\AppData\Local\Temp\ccZakpba.s 			page 1


   1              		.file	"Tp_Func.c"
   2              		.section	".text","axv"
   3              	.Ltext0:
   4              		.cfi_sections	.debug_frame
   5              		.section	.text.TpSendFrame,"axv",@progbits
   6              		.align 1
   7              		.p2align 4,,15
   8              		.type	TpSendFrame, @function
   9              	TpSendFrame:
  10              	.LFB10:
  11              		.file 1 "./source/UDS/Tp_Func.c"
  12              		.loc 1 473 0
  13              		.cfi_startproc
  14              	.LVL0:
  15 0000 182106D0 		e_stwu %r1,-48(%r1)
  16              	.LCFI0:
  17              		.cfi_def_cfa_offset 48
  18 0004 0080     		se_mflr %r0
  19 0006 DD01     		se_stw %r0,52(%r1)
  20              		.cfi_offset 65, 4
  21              		.loc 1 477 0
  22 0008 70E3E0DA 		e_lis %r7,0x18da
  23 000c 70FFC11A 		e_or2i %r7,63770
  24 0010 D371     		se_stw %r7,12(%r1)
  25              		.loc 1 478 0
  26 0012 4887     		se_li %r7,8
  27 0014 9971     		se_stb %r7,9(%r1)
  28              		.loc 1 479 0
  29 0016 4817     		se_li %r7,1
  30 0018 9871     		se_stb %r7,8(%r1)
  31              		.loc 1 481 0
  32 001a 70FF7FAA 		e_li %r7,-86
  33 001e 34E10010 		e_stb %r7,16(%r1)
  34              		.loc 1 482 0
  35 0022 34E10011 		e_stb %r7,17(%r1)
  36              		.loc 1 483 0
  37 0026 34E10012 		e_stb %r7,18(%r1)
  38              		.loc 1 484 0
  39 002a 34E10013 		e_stb %r7,19(%r1)
  40              		.loc 1 485 0
  41 002e 34E10014 		e_stb %r7,20(%r1)
  42              		.loc 1 486 0
  43 0032 34E10015 		e_stb %r7,21(%r1)
  44              		.loc 1 487 0
  45 0036 34E10016 		e_stb %r7,22(%r1)
  46              		.loc 1 488 0
  47 003a 34E10017 		e_stb %r7,23(%r1)
  48              	.LVL1:
  49              		.loc 1 490 0
  50 003e 2A04     		se_cmpi %r4,0
  51              	.LVL2:
  52 0040 7A120028 		e_beq %cr0,.L2
  53 0044 186384FF 		e_addi %r3,%r3,-1
  54              	.LVL3:
  55 0048 18C1800F 		e_addi %r6,%r1,15
  56 004c 18E484FF 		e_addi %r7,%r4,-1
  57 0050 00C7     		se_extzb %r7
GAS LISTING C:\Users\duchu\AppData\Local\Temp\ccZakpba.s 			page 2


  58 0052 7CE13A14 		add %r7,%r1,%r7
  59 0056 20F7     		se_addi %r7,16
  60 0058 0667     		se_sub %r7, %r6
  61 005a 00B7     		se_mtctr %r7
  62              	.LVL4:
  63              	.L3:
  64              		.loc 1 492 0 discriminator 3
  65 005c 18E30001 		e_lbzu %r7,1(%r3)
  66              	.LVL5:
  67 0060 18E60401 		e_stbu %r7,1(%r6)
  68              	.LVL6:
  69              		.loc 1 490 0 discriminator 3
  70 0064 7A20FFF8 		e_bdnz .L3
  71              	.LVL7:
  72              	.L2:
  73              		.loc 1 495 0
  74 0068 C271     		se_lwz %r7,8(%r1)
  75 006a D871     		se_stw %r7,32(%r1)
  76 006c C371     		se_lwz %r7,12(%r1)
  77 006e D971     		se_stw %r7,36(%r1)
  78 0070 C471     		se_lwz %r7,16(%r1)
  79 0072 DA71     		se_stw %r7,40(%r1)
  80 0074 C571     		se_lwz %r7,20(%r1)
  81 0076 DB71     		se_stw %r7,44(%r1)
  82 0078 48A3     		se_li %r3,10
  83 007a 18818020 		e_addi %r4,%r1,32
  84 007e 78000001 		e_bl CAN1_Drv_SendFrame
  85              	.LVL8:
  86              		.loc 1 496 0
  87 0082 C271     		se_lwz %r7,8(%r1)
  88 0084 D871     		se_stw %r7,32(%r1)
  89 0086 C371     		se_lwz %r7,12(%r1)
  90 0088 D971     		se_stw %r7,36(%r1)
  91 008a C471     		se_lwz %r7,16(%r1)
  92 008c DA71     		se_stw %r7,40(%r1)
  93 008e C571     		se_lwz %r7,20(%r1)
  94 0090 DB71     		se_stw %r7,44(%r1)
  95 0092 48A3     		se_li %r3,10
  96 0094 18818020 		e_addi %r4,%r1,32
  97 0098 78000001 		e_bl CAN2_Drv_SendFrame
  98              	.LVL9:
  99              		.loc 1 499 0
 100 009c CD01     		se_lwz %r0,52(%r1)
 101 009e 0090     		se_mtlr %r0
 102              		.cfi_restore 65
 103 00a0 18218030 		e_addi %r1,%r1,48
 104              	.LCFI1:
 105              		.cfi_def_cfa_offset 0
 106 00a4 0004     		se_blr
 107              		.cfi_endproc
 108              	.LFE10:
 109              		.size	TpSendFrame, .-TpSendFrame
 110              		.section	.text.TpFlowControlFrame,"axv",@progbits
 111              		.align 1
 112              		.p2align 4,,15
 113              		.type	TpFlowControlFrame, @function
 114              	TpFlowControlFrame:
GAS LISTING C:\Users\duchu\AppData\Local\Temp\ccZakpba.s 			page 3


 115              	.LFB9:
 116              		.loc 1 439 0
 117              		.cfi_startproc
 118 0000 182106E8 		e_stwu %r1,-24(%r1)
 119              	.LCFI2:
 120              		.cfi_def_cfa_offset 24
 121 0004 0080     		se_mflr %r0
 122 0006 D701     		se_stw %r0,28(%r1)
 123              		.cfi_offset 65, 4
 124              		.loc 1 448 0
 125 0008 4B07     		se_li %r7,48
 126 000a 9871     		se_stb %r7,8(%r1)
 127              		.loc 1 449 0
 128 000c 4887     		se_li %r7,8
 129 000e 9971     		se_stb %r7,9(%r1)
 130              		.loc 1 450 0
 131 0010 4947     		se_li %r7,20
 132 0012 9A71     		se_stb %r7,10(%r1)
 133              		.loc 1 452 0
 134 0014 18618008 		e_addi %r3,%r1,8
 135 0018 4834     		se_li %r4,3
 136 001a 78000001 		e_bl TpSendFrame
 137              	.LVL10:
 138              		.loc 1 463 0
 139 001e C701     		se_lwz %r0,28(%r1)
 140 0020 0090     		se_mtlr %r0
 141              		.cfi_restore 65
 142 0022 2171     		se_addi %r1,24
 143              	.LCFI3:
 144              		.cfi_def_cfa_offset 0
 145 0024 0004     		se_blr
 146              		.cfi_endproc
 147              	.LFE9:
 148              		.size	TpFlowControlFrame, .-TpFlowControlFrame
 149              		.section	.text.Tp_Func_Init,"axv",@progbits
 150              		.align 1
 151              		.p2align 4,,15
 152              		.globl Tp_Func_Init
 153              		.type	Tp_Func_Init, @function
 154              	Tp_Func_Init:
 155              	.LFB4:
 156              		.loc 1 116 0
 157              		.cfi_startproc
 158              		.loc 1 117 0
 159 0000 4807     		se_li %r7,0
 160 0002 70C0E000 		e_lis %r6,.LANCHOR0@ha
 161 0006 34E60000 		e_stb %r7,.LANCHOR0@l(%r6)
 162              		.loc 1 118 0
 163 000a 70C0E000 		e_lis %r6,.LANCHOR1@ha
 164 000e 34E60000 		e_stb %r7,.LANCHOR1@l(%r6)
 165              		.loc 1 119 0
 166 0012 70C0E000 		e_lis %r6,.LANCHOR2@ha
 167 0016 34E60000 		e_stb %r7,.LANCHOR2@l(%r6)
 168              		.loc 1 120 0
 169 001a 70C0E000 		e_lis %r6,.LANCHOR3@ha
 170 001e 34E60000 		e_stb %r7,.LANCHOR3@l(%r6)
 171              		.loc 1 122 0
GAS LISTING C:\Users\duchu\AppData\Local\Temp\ccZakpba.s 			page 4


 172 0022 70C0E000 		e_lis %r6,.LANCHOR4@ha
 173 0026 34E60000 		e_stb %r7,.LANCHOR4@l(%r6)
 174              		.loc 1 123 0
 175 002a 70C0E000 		e_lis %r6,.LANCHOR5@ha
 176 002e 34E60000 		e_stb %r7,.LANCHOR5@l(%r6)
 177              		.loc 1 124 0
 178 0032 70C0E000 		e_lis %r6,.LANCHOR6@ha
 179 0036 34E60000 		e_stb %r7,.LANCHOR6@l(%r6)
 180              		.loc 1 125 0
 181 003a 70C0E000 		e_lis %r6,.LANCHOR7@ha
 182 003e 34E60000 		e_stb %r7,.LANCHOR7@l(%r6)
 183              		.loc 1 127 0
 184 0042 4FF6     		se_li %r6,127
 185 0044 70E0E000 		e_lis %r7,.LANCHOR8@ha
 186 0048 5CC70000 		e_sth %r6,.LANCHOR8@l(%r7)
 187              		.loc 1 128 0
 188 004c 4806     		se_li %r6,0
 189 004e 70E0E000 		e_lis %r7,.LANCHOR9@ha
 190 0052 5CC70000 		e_sth %r6,.LANCHOR9@l(%r7)
 191 0056 0004     		se_blr
 192              		.cfi_endproc
 193              	.LFE4:
 194              		.size	Tp_Func_Init, .-Tp_Func_Init
 195              		.section	.text.Tp_Func,"axv",@progbits
 196              		.align 1
 197              		.p2align 4,,15
 198              		.globl Tp_Func
 199              		.type	Tp_Func, @function
 200              	Tp_Func:
 201              	.LFB5:
 202              		.loc 1 141 0
 203              		.cfi_startproc
 204 0000 182106E0 		e_stwu %r1,-32(%r1)
 205              	.LCFI4:
 206              		.cfi_def_cfa_offset 32
 207 0004 0080     		se_mflr %r0
 208 0006 D901     		se_stw %r0,36(%r1)
 209 0008 D7F1     		se_stw %r31,28(%r1)
 210              		.cfi_offset 65, 4
 211              		.cfi_offset 31, -4
 212              		.loc 1 151 0
 213 000a 70C0E000 		e_lis %r6,.LANCHOR9@ha
 214 000e 58E60000 		e_lhz %r7,.LANCHOR9@l(%r6)
 215 0012 2007     		se_addi %r7,1
 216 0014 00E7     		se_extzh %r7
 217 0016 5CE60000 		e_sth %r7,.LANCHOR9@l(%r6)
 218              		.loc 1 153 0
 219 001a 70C0E000 		e_lis %r6,.LANCHOR3@ha
 220 001e 30C60000 		e_lbz %r6,.LANCHOR3@l(%r6)
 221 0022 2A26     		se_cmpi %r6,2
 222 0024 7A0200DC 		e_bne %cr0,.L7
 223              		.loc 1 160 0
 224 0028 70C0E000 		e_lis %r6,.LANCHOR8@ha
 225 002c 58C60000 		e_lhz %r6,.LANCHOR8@l(%r6)
 226 0030 0D76     		se_cmpl %r6,%r7
 227 0032 7A1100CE 		e_bgt %cr0,.L7
 228              		.loc 1 162 0
GAS LISTING C:\Users\duchu\AppData\Local\Temp\ccZakpba.s 			page 5


 229 0036 4806     		se_li %r6,0
 230 0038 70E0E000 		e_lis %r7,.LANCHOR9@ha
 231 003c 5CC70000 		e_sth %r6,.LANCHOR9@l(%r7)
 232              		.loc 1 163 0
 233 0040 70E0E000 		e_lis %r7,.LANCHOR1@ha
 234 0044 30E70000 		e_lbz %r7,.LANCHOR1@l(%r7)
 235 0048 2007     		se_addi %r7,1
 236 004a 00C7     		se_extzb %r7
 237              		.loc 1 165 0
 238 004c 22E7     		se_cmpli %r7,15
 239 004e 7A110010 		e_bgt %cr0,.L10
 240              		.loc 1 163 0
 241 0052 70C0E000 		e_lis %r6,.LANCHOR1@ha
 242 0056 34E60000 		e_stb %r7,.LANCHOR1@l(%r6)
 243 005a 7800000E 		e_b .L11
 244              	.L10:
 245              		.loc 1 165 0 discriminator 1
 246 005e 4806     		se_li %r6,0
 247 0060 70E0E000 		e_lis %r7,.LANCHOR1@ha
 248 0064 34C70000 		e_stb %r6,.LANCHOR1@l(%r7)
 249              	.L11:
 250              		.loc 1 169 0
 251 0068 70E0E000 		e_lis %r7,.LANCHOR1@ha
 252 006c 30E70000 		e_lbz %r7,.LANCHOR1@l(%r7)
 253 0070 2EF7     		se_andi %r7,15
 254 0072 65A7     		se_bseti %r7,26
 255 0074 9871     		se_stb %r7,8(%r1)
 256              		.loc 1 174 0
 257 0076 70E0E000 		e_lis %r7,.LANCHOR2@ha
 258 007a 30C70000 		e_lbz %r6,.LANCHOR2@l(%r7)
 259 007e 0167     		se_mr %r7,%r6
 260 0080 2266     		se_cmpli %r6,7
 261 0082 7A010006 		e_ble %cr0,.L12
 262 0086 4877     		se_li %r7,7
 263              	.L12:
 264              	.LVL11:
 265              		.loc 1 177 0
 266 0088 18FFC8FF 		e_andi. %r31,%r7,0xff
 267 008c 7A120036 		e_beq %cr0,.L13
 268 0090 70E0E000 		e_lis %r7,.LANCHOR0@ha
 269 0094 30C70000 		e_lbz %r6,.LANCHOR0@l(%r7)
 270 0098 18C684FF 		e_addi %r6,%r6,-1
 271 009c 70E0E000 		e_lis %r7,.LANCHOR10@ha
 272 00a0 1CE70000 		e_la %r7,.LANCHOR10@l(%r7)
 273 00a4 7CC73214 		add %r6,%r7,%r6
 274 00a8 18A18008 		e_addi %r5,%r1,8
 275 00ac 18FF84FF 		e_addi %r7,%r31,-1
 276 00b0 00C7     		se_extzb %r7
 277 00b2 2007     		se_addi %r7,1
 278 00b4 00B7     		se_mtctr %r7
 279              	.LVL12:
 280              	.L14:
 281              		.loc 1 180 0 discriminator 3
 282 00b6 18E60001 		e_lbzu %r7,1(%r6)
 283              	.LVL13:
 284 00ba 18E50401 		e_stbu %r7,1(%r5)
 285              	.LVL14:
GAS LISTING C:\Users\duchu\AppData\Local\Temp\ccZakpba.s 			page 6


 286              		.loc 1 177 0 discriminator 3
 287 00be 7A20FFF8 		e_bdnz .L14
 288              	.LVL15:
 289              	.L13:
 290              		.loc 1 186 0
 291 00c2 189F8001 		e_addi %r4,%r31,1
 292 00c6 18618008 		e_addi %r3,%r1,8
 293 00ca 00C4     		se_extzb %r4
 294 00cc 78000001 		e_bl TpSendFrame
 295              	.LVL16:
 296              		.loc 1 190 0
 297 00d0 70C0E000 		e_lis %r6,.LANCHOR0@ha
 298 00d4 30E60000 		e_lbz %r7,.LANCHOR0@l(%r6)
 299 00d8 7CFF3A14 		add %r7,%r31,%r7
 300 00dc 34E60000 		e_stb %r7,.LANCHOR0@l(%r6)
 301              		.loc 1 191 0
 302 00e0 70C0E000 		e_lis %r6,.LANCHOR2@ha
 303 00e4 30E60000 		e_lbz %r7,.LANCHOR2@l(%r6)
 304 00e8 06F7     		se_sub %r7, %r31
 305 00ea 00C7     		se_extzb %r7
 306 00ec 34E60000 		e_stb %r7,.LANCHOR2@l(%r6)
 307              		.loc 1 193 0
 308 00f0 2A07     		se_cmpi %r7,0
 309 00f2 7A02000E 		e_bne %cr0,.L7
 310              		.loc 1 193 0 is_stmt 0 discriminator 1
 311 00f6 4806     		se_li %r6,0
 312 00f8 70E0E000 		e_lis %r7,.LANCHOR3@ha
 313 00fc 34C70000 		e_stb %r6,.LANCHOR3@l(%r7)
 314              	.L7:
 315              		.loc 1 201 0 is_stmt 1
 316 0100 C901     		se_lwz %r0,36(%r1)
 317 0102 0090     		se_mtlr %r0
 318              		.cfi_restore 65
 319 0104 C7F1     		se_lwz %r31,28(%r1)
 320 0106 21F1     		se_addi %r1,32
 321              	.LCFI5:
 322              		.cfi_restore 31
 323              		.cfi_def_cfa_offset 0
 324 0108 0004     		se_blr
 325              		.cfi_endproc
 326              	.LFE5:
 327              		.size	Tp_Func, .-Tp_Func
 328              		.section	.text.TpRecvProc,"axv",@progbits
 329              		.align 1
 330              		.p2align 4,,15
 331              		.globl TpRecvProc
 332              		.type	TpRecvProc, @function
 333              	TpRecvProc:
 334              	.LFB6:
 335              		.loc 1 211 0
 336              		.cfi_startproc
 337              	.LVL17:
 338 0000 182106F0 		e_stwu %r1,-16(%r1)
 339              	.LCFI6:
 340              		.cfi_def_cfa_offset 16
 341 0004 0080     		se_mflr %r0
 342 0006 D501     		se_stw %r0,20(%r1)
GAS LISTING C:\Users\duchu\AppData\Local\Temp\ccZakpba.s 			page 7


 343 0008 D3F1     		se_stw %r31,12(%r1)
 344              		.cfi_offset 65, 4
 345              		.cfi_offset 31, -4
 346              	.LVL18:
 347              		.loc 1 222 0
 348 000a 70E0E000 		e_lis %r7,g_can_RxData_REQUEST@ha
 349 000e 1CE70000 		e_la %r7,g_can_RxData_REQUEST@l(%r7)
 350 0012 C1F7     		se_lwz %r31,4(%r7)
 351              	.LVL19:
 352 0014 2067     		se_addi %r7,7
 353 0016 70C0E000 		e_lis %r6,.LANCHOR11@ha
 354 001a 1CC60000 		e_la %r6,.LANCHOR11@l(%r6)
 355 001e 18C684FF 		e_addi %r6,%r6,-1
 356 0022 4880     		se_li %r0,8
 357 0024 00B0     		se_mtctr %r0
 358              	.LVL20:
 359              	.L17:
 360              		.loc 1 225 0 discriminator 3
 361 0026 18070001 		e_lbzu %r0,1(%r7)
 362              	.LVL21:
 363 002a 18060401 		e_stbu %r0,1(%r6)
 364              	.LVL22:
 365              		.loc 1 223 0 discriminator 3
 366 002e 7A20FFF8 		e_bdnz .L17
 367              		.loc 1 228 0
 368 0032 70E3E0DA 		e_lis %r7,0x18da
 369              	.LVL23:
 370 0036 70E3C2F9 		e_or2i %r7,6905
 371 003a 0C7F     		se_cmp %r31,%r7
 372 003c 7A02000C 		e_bne %cr0,.L18
 373              		.loc 1 228 0 is_stmt 0 discriminator 1
 374 0040 4817     		se_li %r7,1
 375 0042 9075     		se_stb %r7,0(%r5)
 376 0044 78000218 		e_b .L19
 377              	.L18:
 378              		.loc 1 229 0 is_stmt 1
 379 0048 70E3E0DB 		e_lis %r7,0x18db
 380 004c 70FFC7F9 		e_or2i %r7,65529
 381 0050 0C7F     		se_cmp %r31,%r7
 382 0052 7A02000C 		e_bne %cr0,.L20
 383              		.loc 1 229 0 is_stmt 0 discriminator 1
 384 0056 4827     		se_li %r7,2
 385 0058 9075     		se_stb %r7,0(%r5)
 386 005a 78000202 		e_b .L19
 387              	.L20:
 388              		.loc 1 230 0 is_stmt 1
 389 005e 4807     		se_li %r7,0
 390 0060 9075     		se_stb %r7,0(%r5)
 391              		.loc 1 331 0
 392 0062 4893     		se_li %r3,9
 393              	.LVL24:
 394 0064 78000234 		e_b .L44
 395              	.LVL25:
 396              	.L22:
 397              		.loc 1 242 0 discriminator 1
 398 0068 2A00     		se_cmpi %r0,0
 399 006a 7A12002E 		e_beq %cr0,.L23
GAS LISTING C:\Users\duchu\AppData\Local\Temp\ccZakpba.s 			page 8


 400 006e 70A0E000 		e_lis %r5,.LANCHOR11@ha
 401 0072 1CA50000 		e_la %r5,.LANCHOR11@l(%r5)
 402 0076 70C0E000 		e_lis %r6,.LANCHOR12@ha
 403 007a 1CC60000 		e_la %r6,.LANCHOR12@l(%r6)
 404 007e 18C684FF 		e_addi %r6,%r6,-1
 405 0082 18E084FF 		e_addi %r7,%r0,-1
 406 0086 00C7     		se_extzb %r7
 407 0088 2007     		se_addi %r7,1
 408 008a 00B7     		se_mtctr %r7
 409              	.LVL26:
 410              	.L24:
 411              		.loc 1 244 0 discriminator 3
 412 008c 18E50001 		e_lbzu %r7,1(%r5)
 413              	.LVL27:
 414 0090 18E60401 		e_stbu %r7,1(%r6)
 415              	.LVL28:
 416              		.loc 1 242 0 discriminator 3
 417 0094 7A20FFF8 		e_bdnz .L24
 418              	.LVL29:
 419              	.L23:
 420              		.loc 1 247 0
 421 0098 4817     		se_li %r7,1
 422 009a 9073     		se_stb %r7,0(%r3)
 423              		.loc 1 248 0
 424 009c 9004     		se_stb %r0,0(%r4)
 425              		.loc 1 217 0
 426 009e 4803     		se_li %r3,0
 427              	.LVL30:
 428              		.loc 1 249 0
 429 00a0 780001F8 		e_b .L44
 430              	.LVL31:
 431              	.L25:
 432              		.loc 1 251 0
 433 00a4 70C0E000 		e_lis %r6,.LANCHOR11@ha
 434 00a8 1CC60000 		e_la %r6,.LANCHOR11@l(%r6)
 435 00ac 18860001 		e_lbzu %r4,1(%r6)
 436              	.LVL32:
 437 00b0 70E0E000 		e_lis %r7,.LANCHOR7@ha
 438 00b4 34870000 		e_stb %r4,.LANCHOR7@l(%r7)
 439              	.LVL33:
 440 00b8 70E0E000 		e_lis %r7,.LANCHOR13@ha
 441 00bc 1CE70000 		e_la %r7,.LANCHOR13@l(%r7)
 442 00c0 18E784FF 		e_addi %r7,%r7,-1
 443 00c4 4865     		se_li %r5,6
 444 00c6 00B5     		se_mtctr %r5
 445              	.LVL34:
 446              	.L26:
 447              		.loc 1 256 0 discriminator 3
 448 00c8 18A60001 		e_lbzu %r5,1(%r6)
 449              	.LVL35:
 450 00cc 18A70401 		e_stbu %r5,1(%r7)
 451              	.LVL36:
 452              		.loc 1 254 0 discriminator 3
 453 00d0 7A20FFF8 		e_bdnz .L26
 454              		.loc 1 259 0
 455 00d4 4866     		se_li %r6,6
 456              	.LVL37:
GAS LISTING C:\Users\duchu\AppData\Local\Temp\ccZakpba.s 			page 9


 457 00d6 70E0E000 		e_lis %r7,.LANCHOR4@ha
 458 00da 34C70000 		e_stb %r6,.LANCHOR4@l(%r7)
 459              		.loc 1 260 0
 460 00de 188484FA 		e_addi %r4,%r4,-6
 461 00e2 70E0E000 		e_lis %r7,.LANCHOR6@ha
 462 00e6 34870000 		e_stb %r4,.LANCHOR6@l(%r7)
 463              		.loc 1 261 0
 464 00ea 4806     		se_li %r6,0
 465 00ec 70E0E000 		e_lis %r7,.LANCHOR5@ha
 466 00f0 34C70000 		e_stb %r6,.LANCHOR5@l(%r7)
 467              		.loc 1 264 0
 468 00f4 78000001 		e_bl TpFlowControlFrame
 469              	.LVL38:
 470              		.loc 1 217 0
 471 00f8 4803     		se_li %r3,0
 472              		.loc 1 265 0
 473 00fa 7800019E 		e_b .L44
 474              	.LVL39:
 475              	.L27:
 476              		.loc 1 267 0
 477 00fe 70E0E000 		e_lis %r7,.LANCHOR5@ha
 478 0102 30E70000 		e_lbz %r7,.LANCHOR5@l(%r7)
 479 0106 2007     		se_addi %r7,1
 480 0108 00C7     		se_extzb %r7
 481              	.LVL40:
 482              		.loc 1 270 0
 483 010a 22E7     		se_cmpli %r7,15
 484 010c 7A110010 		e_bgt %cr0,.L28
 485              		.loc 1 267 0
 486 0110 70C0E000 		e_lis %r6,.LANCHOR5@ha
 487 0114 34E60000 		e_stb %r7,.LANCHOR5@l(%r6)
 488 0118 7800000E 		e_b .L29
 489              	.L28:
 490              		.loc 1 270 0 discriminator 1
 491 011c 4806     		se_li %r6,0
 492 011e 70E0E000 		e_lis %r7,.LANCHOR5@ha
 493 0122 34C70000 		e_stb %r6,.LANCHOR5@l(%r7)
 494              	.L29:
 495              		.loc 1 272 0
 496 0126 70E0E000 		e_lis %r7,.LANCHOR5@ha
 497 012a 30E70000 		e_lbz %r7,.LANCHOR5@l(%r7)
 498 012e 0C07     		se_cmp %r7,%r0
 499 0130 7A120014 		e_beq %cr0,.L30
 500              		.loc 1 274 0
 501 0134 4806     		se_li %r6,0
 502 0136 70E0E000 		e_lis %r7,.LANCHOR4@ha
 503 013a 34C70000 		e_stb %r6,.LANCHOR4@l(%r7)
 504              	.LVL41:
 505              		.loc 1 275 0
 506 013e 4A43     		se_li %r3,36
 507              	.LVL42:
 508 0140 78000158 		e_b .L44
 509              	.LVL43:
 510              	.L30:
 511              		.loc 1 279 0
 512 0144 70E0E000 		e_lis %r7,.LANCHOR6@ha
 513 0148 30E70000 		e_lbz %r7,.LANCHOR6@l(%r7)
GAS LISTING C:\Users\duchu\AppData\Local\Temp\ccZakpba.s 			page 10


 514 014c 0170     		se_mr %r0,%r7
 515              	.LVL44:
 516 014e 2267     		se_cmpli %r7,7
 517 0150 7A010006 		e_ble %cr0,.L31
 518 0154 4870     		se_li %r0,7
 519              	.L31:
 520 0156 00C0     		se_extzb %r0
 521              	.LVL45:
 522              		.loc 1 282 0
 523 0158 70C0E000 		e_lis %r6,.LANCHOR4@ha
 524 015c 31260000 		e_lbz %r9,.LANCHOR4@l(%r6)
 525 0160 7CC90214 		add %r6,%r9,%r0
 526 0164 7006A895 		e_cmpl16i %r6,149
 527 0168 7A11000E 		e_bgt %cr0,.L32
 528              	.LVL46:
 529              		.loc 1 289 0 discriminator 1
 530 016c 2A00     		se_cmpi %r0,0
 531 016e 7A020018 		e_bne %cr0,.L33
 532 0172 78000042 		e_b .L34
 533              	.LVL47:
 534              	.L32:
 535              		.loc 1 284 0
 536 0176 4806     		se_li %r6,0
 537 0178 70E0E000 		e_lis %r7,.LANCHOR4@ha
 538 017c 34C70000 		e_stb %r6,.LANCHOR4@l(%r7)
 539              	.LVL48:
 540              		.loc 1 285 0
 541 0180 4B13     		se_li %r3,49
 542              	.LVL49:
 543 0182 78000116 		e_b .L44
 544              	.LVL50:
 545              	.L33:
 546 0186 7160E000 		e_lis %r11,.LANCHOR11@ha
 547 018a 1D6B0000 		e_la %r11,.LANCHOR11@l(%r11)
 548 018e 1BE984FF 		e_addi %r31,%r9,-1
 549              	.LVL51:
 550 0192 70C0E000 		e_lis %r6,.LANCHOR13@ha
 551 0196 1CC60000 		e_la %r6,.LANCHOR13@l(%r6)
 552 019a 7FE6FA14 		add %r31,%r6,%r31
 553 019e 18C084FF 		e_addi %r6,%r0,-1
 554 01a2 00C6     		se_extzb %r6
 555 01a4 2006     		se_addi %r6,1
 556 01a6 00B6     		se_mtctr %r6
 557              	.LVL52:
 558              	.L35:
 559              		.loc 1 291 0 discriminator 3
 560 01a8 18CB0001 		e_lbzu %r6,1(%r11)
 561              	.LVL53:
 562 01ac 18DF0401 		e_stbu %r6,1(%r31)
 563              	.LVL54:
 564              		.loc 1 289 0 discriminator 3
 565 01b0 7A20FFF8 		e_bdnz .L35
 566              	.LVL55:
 567              	.L34:
 568              		.loc 1 294 0
 569 01b4 7D204A14 		add %r9,%r0,%r9
 570 01b8 70C0E000 		e_lis %r6,.LANCHOR4@ha
GAS LISTING C:\Users\duchu\AppData\Local\Temp\ccZakpba.s 			page 11


 571 01bc 35260000 		e_stb %r9,.LANCHOR4@l(%r6)
 572              		.loc 1 295 0
 573 01c0 0607     		se_sub %r7, %r0
 574 01c2 00C7     		se_extzb %r7
 575 01c4 70C0E000 		e_lis %r6,.LANCHOR6@ha
 576 01c8 34E60000 		e_stb %r7,.LANCHOR6@l(%r6)
 577              		.loc 1 297 0
 578 01cc 2A07     		se_cmpi %r7,0
 579 01ce 7A020022 		e_bne %cr0,.L36
 580              		.loc 1 299 0
 581 01d2 4817     		se_li %r7,1
 582 01d4 9073     		se_stb %r7,0(%r3)
 583              		.loc 1 300 0
 584 01d6 70E0E000 		e_lis %r7,.LANCHOR7@ha
 585 01da 30E70000 		e_lbz %r7,.LANCHOR7@l(%r7)
 586 01de 9074     		se_stb %r7,0(%r4)
 587              		.loc 1 301 0
 588 01e0 4806     		se_li %r6,0
 589 01e2 70E0E000 		e_lis %r7,.LANCHOR4@ha
 590 01e6 34C70000 		e_stb %r6,.LANCHOR4@l(%r7)
 591              		.loc 1 217 0
 592 01ea 4803     		se_li %r3,0
 593              	.LVL56:
 594 01ec 780000AC 		e_b .L44
 595              	.LVL57:
 596              	.L36:
 597              		.loc 1 305 0
 598 01f0 2E75     		se_andi %r5,7
 599              	.LVL58:
 600              		.loc 1 217 0
 601 01f2 4803     		se_li %r3,0
 602              	.LVL59:
 603              		.loc 1 305 0
 604 01f4 2A05     		se_cmpi %r5,0
 605 01f6 7A0200A2 		e_bne %cr0,.L44
 606              		.loc 1 308 0
 607 01fa 78000001 		e_bl TpFlowControlFrame
 608              	.LVL60:
 609              		.loc 1 217 0
 610 01fe 4803     		se_li %r3,0
 611 0200 78000098 		e_b .L44
 612              	.LVL61:
 613              	.L37:
 614              		.loc 1 315 0
 615 0204 70E0E000 		e_lis %r7,.LANCHOR11+2@ha
 616 0208 30E70000 		e_lbz %r7,.LANCHOR11+2@l(%r7)
 617              	.LVL62:
 618              		.loc 1 317 0
 619 020c 2A07     		se_cmpi %r7,0
 620 020e 7A020012 		e_bne %cr0,.L38
 621              		.loc 1 317 0 is_stmt 0 discriminator 1
 622 0212 4816     		se_li %r6,1
 623 0214 70E0E000 		e_lis %r7,.LANCHOR8@ha
 624 0218 5CC70000 		e_sth %r6,.LANCHOR8@l(%r7)
 625 021c 78000020 		e_b .L39
 626              	.L38:
 627              		.loc 1 318 0 is_stmt 1
GAS LISTING C:\Users\duchu\AppData\Local\Temp\ccZakpba.s 			page 12


 628 0220 6787     		se_btsti %r7,24
 629 0222 7A120012 		e_beq %cr0,.L40
 630              		.loc 1 318 0 is_stmt 0 discriminator 1
 631 0226 4FF6     		se_li %r6,127
 632 0228 70E0E000 		e_lis %r7,.LANCHOR8@ha
 633 022c 5CC70000 		e_sth %r6,.LANCHOR8@l(%r7)
 634 0230 7800000C 		e_b .L39
 635              	.L40:
 636              		.loc 1 319 0 is_stmt 1
 637 0234 70C0E000 		e_lis %r6,.LANCHOR8@ha
 638 0238 5CE60000 		e_sth %r7,.LANCHOR8@l(%r6)
 639              	.L39:
 640              		.loc 1 321 0
 641 023c 4806     		se_li %r6,0
 642 023e 70E0E000 		e_lis %r7,.LANCHOR9@ha
 643 0242 5CC70000 		e_sth %r6,.LANCHOR9@l(%r7)
 644              		.loc 1 322 0
 645 0246 4826     		se_li %r6,2
 646 0248 70E0E000 		e_lis %r7,.LANCHOR3@ha
 647 024c 34C70000 		e_stb %r6,.LANCHOR3@l(%r7)
 648              		.loc 1 217 0
 649 0250 4803     		se_li %r3,0
 650              	.LVL63:
 651              		.loc 1 323 0
 652 0252 78000046 		e_b .L44
 653              	.LVL64:
 654              	.L43:
 655              		.loc 1 325 0
 656 0256 4893     		se_li %r3,9
 657              	.LVL65:
 658 0258 78000040 		e_b .L44
 659              	.LVL66:
 660              	.L19:
 661              		.loc 1 234 0
 662 025c 70E0E000 		e_lis %r7,.LANCHOR11@ha
 663 0260 30A70000 		e_lbz %r5,.LANCHOR11@l(%r7)
 664              	.LVL67:
 665 0264 7CA72470 		e_srwi %r7,%r5,4
 666 0268 70C0E000 		e_lis %r6,.LANCHOR14@ha
 667 026c 34E60000 		e_stb %r7,.LANCHOR14@l(%r6)
 668              		.loc 1 235 0
 669 0270 18A0C00F 		e_andi %r0,%r5,15
 670              	.LVL68:
 671              		.loc 1 237 0
 672 0274 70C0E000 		e_lis %r6,.LANCHOR15@ha
 673 0278 34E60000 		e_stb %r7,.LANCHOR15@l(%r6)
 674              		.loc 1 239 0
 675 027c 2227     		se_cmpli %r7,3
 676 027e 7A11FFD8 		e_bgt %cr0,.L43
 677 0282 70C0E000 		e_lis %r6,.L41@ha
 678 0286 1CC60000 		e_la %r6,.L41@l(%r6)
 679 028a 6C27     		se_slwi %r7, 2
 680 028c 7CE6382E 		lwzx %r7,%r6,%r7
 681 0290 7CC73214 		add %r6,%r7,%r6
 682 0294 00B6     		se_mtctr %r6
 683 0296 0006     		se_bctr
 684              		.section	.rodata.TpRecvProc,"a",@progbits
GAS LISTING C:\Users\duchu\AppData\Local\Temp\ccZakpba.s 			page 13


 685              		.align 2
 686              		.align 2
 687              	.L41:
 688 0000 00000000 		.long .L22-.L41
 689 0004 00000000 		.long .L25-.L41
 690 0008 00000000 		.long .L27-.L41
 691 000c 00000000 		.long .L37-.L41
 692              		.section	.text.TpRecvProc
 693              	.LVL69:
 694              	.L44:
 695              		.loc 1 335 0
 696 0298 C501     		se_lwz %r0,20(%r1)
 697 029a 0090     		se_mtlr %r0
 698              		.cfi_restore 65
 699 029c C3F1     		se_lwz %r31,12(%r1)
 700 029e 20F1     		se_addi %r1,16
 701              	.LCFI7:
 702              		.cfi_restore 31
 703              		.cfi_def_cfa_offset 0
 704 02a0 0004     		se_blr
 705              		.cfi_endproc
 706              	.LFE6:
 707              		.size	TpRecvProc, .-TpRecvProc
 708              		.section	.text.TpSingleFrame,"axv",@progbits
 709              		.align 1
 710              		.p2align 4,,15
 711              		.globl TpSingleFrame
 712              		.type	TpSingleFrame, @function
 713              	TpSingleFrame:
 714              	.LFB7:
 715              		.loc 1 345 0
 716              		.cfi_startproc
 717              	.LVL70:
 718 0000 182106E8 		e_stwu %r1,-24(%r1)
 719              	.LCFI8:
 720              		.cfi_def_cfa_offset 24
 721 0004 0080     		se_mflr %r0
 722 0006 D701     		se_stw %r0,28(%r1)
 723              		.cfi_offset 65, 4
 724              		.loc 1 352 0
 725 0008 1867C00F 		e_andi %r7,%r3,15
 726 000c 9871     		se_stb %r7,8(%r1)
 727              	.LVL71:
 728              		.loc 1 354 0
 729 000e 2A03     		se_cmpi %r3,0
 730 0010 7A12002A 		e_beq %cr0,.L50
 731 0014 70C0E000 		e_lis %r6,.LANCHOR10@ha
 732 0018 1CC60000 		e_la %r6,.LANCHOR10@l(%r6)
 733 001c 18C684FF 		e_addi %r6,%r6,-1
 734 0020 18A18008 		e_addi %r5,%r1,8
 735 0024 18E384FF 		e_addi %r7,%r3,-1
 736 0028 00C7     		se_extzb %r7
 737 002a 2007     		se_addi %r7,1
 738 002c 00B7     		se_mtctr %r7
 739              	.LVL72:
 740              	.L51:
 741              		.loc 1 356 0 discriminator 3
GAS LISTING C:\Users\duchu\AppData\Local\Temp\ccZakpba.s 			page 14


 742 002e 18E60001 		e_lbzu %r7,1(%r6)
 743              	.LVL73:
 744 0032 18E50401 		e_stbu %r7,1(%r5)
 745              	.LVL74:
 746              		.loc 1 354 0 discriminator 3
 747 0036 7A20FFF8 		e_bdnz .L51
 748              	.LVL75:
 749              	.L50:
 750              		.loc 1 359 0
 751 003a 18838001 		e_addi %r4,%r3,1
 752 003e 18618008 		e_addi %r3,%r1,8
 753              	.LVL76:
 754 0042 00C4     		se_extzb %r4
 755 0044 78000001 		e_bl TpSendFrame
 756              	.LVL77:
 757              		.loc 1 374 0
 758 0048 4806     		se_li %r6,0
 759 004a 70E0E000 		e_lis %r7,.LANCHOR3@ha
 760 004e 34C70000 		e_stb %r6,.LANCHOR3@l(%r7)
 761              		.loc 1 377 0
 762 0052 C701     		se_lwz %r0,28(%r1)
 763 0054 0090     		se_mtlr %r0
 764              		.cfi_restore 65
 765 0056 2171     		se_addi %r1,24
 766              	.LCFI9:
 767              		.cfi_def_cfa_offset 0
 768 0058 0004     		se_blr
 769              		.cfi_endproc
 770              	.LFE7:
 771              		.size	TpSingleFrame, .-TpSingleFrame
 772              		.section	.text.TpFirstFrame,"axv",@progbits
 773              		.align 1
 774              		.p2align 4,,15
 775              		.globl TpFirstFrame
 776              		.type	TpFirstFrame, @function
 777              	TpFirstFrame:
 778              	.LFB8:
 779              		.loc 1 387 0
 780              		.cfi_startproc
 781              	.LVL78:
 782 0000 182106E0 		e_stwu %r1,-32(%r1)
 783              	.LCFI10:
 784              		.cfi_def_cfa_offset 32
 785 0004 0080     		se_mflr %r0
 786 0006 D901     		se_stw %r0,36(%r1)
 787 0008 D7F1     		se_stw %r31,28(%r1)
 788              		.cfi_offset 65, 4
 789              		.cfi_offset 31, -4
 790 000a 013F     		se_mr %r31,%r3
 791              		.loc 1 393 0
 792 000c 4907     		se_li %r7,16
 793 000e 9871     		se_stb %r7,8(%r1)
 794              		.loc 1 394 0
 795 0010 0116     		se_mr %r6,%r1
 796 0012 18660409 		e_stbu %r3,9(%r6)
 797              	.LVL79:
 798 0016 70E0E000 		e_lis %r7,.LANCHOR10@ha
GAS LISTING C:\Users\duchu\AppData\Local\Temp\ccZakpba.s 			page 15


 799 001a 1CE70000 		e_la %r7,.LANCHOR10@l(%r7)
 800 001e 18E784FF 		e_addi %r7,%r7,-1
 801 0022 4865     		se_li %r5,6
 802 0024 00B5     		se_mtctr %r5
 803              	.LVL80:
 804              	.L54:
 805              		.loc 1 398 0 discriminator 3
 806 0026 18A70001 		e_lbzu %r5,1(%r7)
 807              	.LVL81:
 808 002a 18A60401 		e_stbu %r5,1(%r6)
 809              	.LVL82:
 810              		.loc 1 396 0 discriminator 3
 811 002e 7A20FFF8 		e_bdnz .L54
 812              		.loc 1 401 0
 813 0032 18618008 		e_addi %r3,%r1,8
 814              	.LVL83:
 815 0036 4884     		se_li %r4,8
 816 0038 78000001 		e_bl TpSendFrame
 817              	.LVL84:
 818              		.loc 1 417 0
 819 003c 1BFF84FA 		e_addi %r31,%r31,-6
 820 0040 70E0E000 		e_lis %r7,.LANCHOR2@ha
 821 0044 37E70000 		e_stb %r31,.LANCHOR2@l(%r7)
 822              		.loc 1 418 0
 823 0048 4866     		se_li %r6,6
 824 004a 70E0E000 		e_lis %r7,.LANCHOR0@ha
 825 004e 34C70000 		e_stb %r6,.LANCHOR0@l(%r7)
 826              		.loc 1 419 0
 827 0052 4806     		se_li %r6,0
 828 0054 70E0E000 		e_lis %r7,.LANCHOR1@ha
 829 0058 34C70000 		e_stb %r6,.LANCHOR1@l(%r7)
 830              		.loc 1 421 0
 831 005c 4816     		se_li %r6,1
 832 005e 70E0E000 		e_lis %r7,.LANCHOR3@ha
 833 0062 34C70000 		e_stb %r6,.LANCHOR3@l(%r7)
 834              		.loc 1 424 0
 835 0066 C901     		se_lwz %r0,36(%r1)
 836 0068 0090     		se_mtlr %r0
 837              		.cfi_restore 65
 838 006a C7F1     		se_lwz %r31,28(%r1)
 839 006c 21F1     		se_addi %r1,32
 840              	.LCFI11:
 841              		.cfi_restore 31
 842              		.cfi_def_cfa_offset 0
 843 006e 0004     		se_blr
 844              		.cfi_endproc
 845              	.LFE8:
 846              		.size	TpFirstFrame, .-TpFirstFrame
 847              		.globl u8g_RxFrameType
 848              		.globl u8g_SingleRxBuf
 849              		.globl u8g_TpRxBuf
 850              		.globl u8g_TpTxBuf
 851              		.section	.bss.u8g_SingleRxBuf,"aw",@nobits
 852              		.align 2
 853              		.set	.LANCHOR12,. + 0
 854              		.type	u8g_SingleRxBuf, @object
 855              		.size	u8g_SingleRxBuf, 8
GAS LISTING C:\Users\duchu\AppData\Local\Temp\ccZakpba.s 			page 16


 856              	u8g_SingleRxBuf:
 857 0000 00000000 		.zero	8
 857      00000000 
 858              		.section	.bss.u8s_TpTxDataCnt,"aw",@nobits
 859              		.set	.LANCHOR2,. + 0
 860              		.type	u8s_TpTxDataCnt, @object
 861              		.size	u8s_TpTxDataCnt, 1
 862              	u8s_TpTxDataCnt:
 863 0000 00       		.zero	1
 864              		.section	.bss.u8g_RxFrameType,"aw",@nobits
 865              		.set	.LANCHOR15,. + 0
 866              		.type	u8g_RxFrameType, @object
 867              		.size	u8g_RxFrameType, 1
 868              	u8g_RxFrameType:
 869 0000 00       		.zero	1
 870              		.section	.bss.u8s_TpRxDataCnt,"aw",@nobits
 871              		.set	.LANCHOR6,. + 0
 872              		.type	u8s_TpRxDataCnt, @object
 873              		.size	u8s_TpRxDataCnt, 1
 874              	u8s_TpRxDataCnt:
 875 0000 00       		.zero	1
 876              		.section	.bss.u8s_TpRxDataSize,"aw",@nobits
 877              		.set	.LANCHOR7,. + 0
 878              		.type	u8s_TpRxDataSize, @object
 879              		.size	u8s_TpRxDataSize, 1
 880              	u8s_TpRxDataSize:
 881 0000 00       		.zero	1
 882              		.section	.bss.u8_FrameType.11114,"aw",@nobits
 883              		.set	.LANCHOR14,. + 0
 884              		.type	u8_FrameType.11114, @object
 885              		.size	u8_FrameType.11114, 1
 886              	u8_FrameType.11114:
 887 0000 00       		.zero	1
 888              		.section	.bss.u16s_STminTickCnt,"aw",@nobits
 889              		.align 1
 890              		.set	.LANCHOR8,. + 0
 891              		.type	u16s_STminTickCnt, @object
 892              		.size	u16s_STminTickCnt, 2
 893              	u16s_STminTickCnt:
 894 0000 0000     		.zero	2
 895              		.section	.bss.u8g_TpTxBuf,"aw",@nobits
 896              		.align 2
 897              		.set	.LANCHOR10,. + 0
 898              		.type	u8g_TpTxBuf, @object
 899              		.size	u8g_TpTxBuf, 150
 900              	u8g_TpTxBuf:
 901 0000 00000000 		.zero	150
 901      00000000 
 901      00000000 
 901      00000000 
 901      00000000 
 902              		.section	.bss.u8s_TpRxBufIdx,"aw",@nobits
 903              		.set	.LANCHOR4,. + 0
 904              		.type	u8s_TpRxBufIdx, @object
 905              		.size	u8s_TpRxBufIdx, 1
 906              	u8s_TpRxBufIdx:
 907 0000 00       		.zero	1
GAS LISTING C:\Users\duchu\AppData\Local\Temp\ccZakpba.s 			page 17


 908              		.section	.bss.u8_CANFrameData.11119,"aw",@nobits
 909              		.align 2
 910              		.set	.LANCHOR11,. + 0
 911              		.type	u8_CANFrameData.11119, @object
 912              		.size	u8_CANFrameData.11119, 8
 913              	u8_CANFrameData.11119:
 914 0000 00000000 		.zero	8
 914      00000000 
 915              		.section	.bss.u8s_TpTxBufIdx,"aw",@nobits
 916              		.set	.LANCHOR0,. + 0
 917              		.type	u8s_TpTxBufIdx, @object
 918              		.size	u8s_TpTxBufIdx, 1
 919              	u8s_TpTxBufIdx:
 920 0000 00       		.zero	1
 921              		.section	.bss.u8s_TpTxState,"aw",@nobits
 922              		.set	.LANCHOR3,. + 0
 923              		.type	u8s_TpTxState, @object
 924              		.size	u8s_TpTxState, 1
 925              	u8s_TpTxState:
 926 0000 00       		.zero	1
 927              		.section	.bss.u8s_TpRxSeqNum,"aw",@nobits
 928              		.set	.LANCHOR5,. + 0
 929              		.type	u8s_TpRxSeqNum, @object
 930              		.size	u8s_TpRxSeqNum, 1
 931              	u8s_TpRxSeqNum:
 932 0000 00       		.zero	1
 933              		.section	.bss.u16s_STMin_tm,"aw",@nobits
 934              		.align 1
 935              		.set	.LANCHOR9,. + 0
 936              		.type	u16s_STMin_tm, @object
 937              		.size	u16s_STMin_tm, 2
 938              	u16s_STMin_tm:
 939 0000 0000     		.zero	2
 940              		.section	.bss.u8g_TpRxBuf,"aw",@nobits
 941              		.align 2
 942              		.set	.LANCHOR13,. + 0
 943              		.type	u8g_TpRxBuf, @object
 944              		.size	u8g_TpRxBuf, 150
 945              	u8g_TpRxBuf:
 946 0000 00000000 		.zero	150
 946      00000000 
 946      00000000 
 946      00000000 
 946      00000000 
 947              		.section	.bss.u8s_TpTxSeqNum,"aw",@nobits
 948              		.set	.LANCHOR1,. + 0
 949              		.type	u8s_TpTxSeqNum, @object
 950              		.size	u8s_TpTxSeqNum, 1
 951              	u8s_TpTxSeqNum:
 952 0000 00       		.zero	1
 953              		.section	".text","axv"
 954              	.Letext0:
 955              		.file 2 "c:\\spc5studio\\eclipse\\plugins\\com.st.tools.spc5.tools.gnu.gcc.ppcvle.win32_4.9.4.2019
 956              		.file 3 "c:\\spc5studio\\eclipse\\plugins\\com.st.tools.spc5.tools.gnu.gcc.ppcvle.win32_4.9.4.2019
 957              		.file 4 "./source/HAL/Hal_Can.h"