GAS LISTING C:\Users\duchu\AppData\Local\Temp\ccJgIM3F.s 			page 1


   1              		.file	"Uds_Func.c"
   2              		.section	".text","axv"
   3              	.Ltext0:
   4              		.cfi_sections	.debug_frame
   5              		.section	.text.UdsSendResponse,"axv",@progbits
   6              		.align 1
   7              		.p2align 4,,15
   8              		.type	UdsSendResponse, @function
   9              	UdsSendResponse:
  10              	.LFB6:
  11              		.file 1 "./source/UDS/Uds_Func.c"
  12              		.loc 1 265 0
  13              		.cfi_startproc
  14              	.LVL0:
  15 0000 182106F8 		e_stwu %r1,-8(%r1)
  16              	.LCFI0:
  17              		.cfi_def_cfa_offset 8
  18 0004 0080     		se_mflr %r0
  19 0006 D301     		se_stw %r0,12(%r1)
  20              		.cfi_offset 65, 4
  21              		.loc 1 269 0
  22 0008 70E0E000 		e_lis %r7,u8g_RxFrameType@ha
  23 000c 30E70000 		e_lbz %r7,u8g_RxFrameType@l(%r7)
  24 0010 2A07     		se_cmpi %r7,0
  25 0012 7A020010 		e_bne %cr0,.L2
  26              		.loc 1 269 0 is_stmt 0 discriminator 1
  27 0016 70E0E000 		e_lis %r7,u8g_SingleRxBuf@ha
  28 001a 30E70000 		e_lbz %r7,u8g_SingleRxBuf@l(%r7)
  29              	.LVL1:
  30 001e 7800000C 		e_b .L3
  31              	.LVL2:
  32              	.L2:
  33              		.loc 1 270 0 is_stmt 1
  34 0022 70E0E000 		e_lis %r7,u8g_TpRxBuf@ha
  35 0026 30E70000 		e_lbz %r7,u8g_TpRxBuf@l(%r7)
  36              	.LVL3:
  37              	.L3:
  38              		.loc 1 272 0
  39 002a 70C0E000 		e_lis %r6,.LANCHOR0@ha
  40 002e 30C60000 		e_lbz %r6,.LANCHOR0@l(%r6)
  41 0032 2A06     		se_cmpi %r6,0
  42 0034 7A020020 		e_bne %cr0,.L4
  43              		.loc 1 274 0
  44 0038 18E78040 		e_addi %r7,%r7,64
  45              	.LVL4:
  46 003c 70C0E000 		e_lis %r6,u8g_TpTxBuf@ha
  47 0040 34E60000 		e_stb %r7,u8g_TpTxBuf@l(%r6)
  48              		.loc 1 275 0
  49 0044 8D33     		se_lbz %r3,13(%r3)
  50              	.LVL5:
  51 0046 2003     		se_addi %r3,1
  52 0048 00C3     		se_extzb %r3
  53              	.LVL6:
  54              		.loc 1 285 0
  55 004a 2263     		se_cmpli %r3,7
  56 004c 7A110024 		e_bgt %cr0,.L8
  57 0050 78000018 		e_b .L5
GAS LISTING C:\Users\duchu\AppData\Local\Temp\ccJgIM3F.s 			page 2


  58              	.LVL7:
  59              	.L4:
  60              		.loc 1 279 0
  61 0054 7080E000 		e_lis %r4,u8g_TpTxBuf@ha
  62 0058 1CA40000 		e_la %r5,u8g_TpTxBuf@l(%r4)
  63 005c 4FF3     		se_li %r3,127
  64              	.LVL8:
  65 005e 34640000 		e_stb %r3,u8g_TpTxBuf@l(%r4)
  66              		.loc 1 280 0
  67 0062 9175     		se_stb %r7,1(%r5)
  68              		.loc 1 281 0
  69 0064 9265     		se_stb %r6,2(%r5)
  70              	.LVL9:
  71              		.loc 1 282 0
  72 0066 4833     		se_li %r3,3
  73              	.LVL10:
  74              	.L5:
  75              		.loc 1 287 0
  76 0068 78000001 		e_bl TpSingleFrame
  77              	.LVL11:
  78 006c 78000008 		e_b .L1
  79              	.LVL12:
  80              	.L8:
  81              		.loc 1 291 0
  82 0070 78000001 		e_bl TpFirstFrame
  83              	.LVL13:
  84              	.L1:
  85              		.loc 1 295 0
  86 0074 C301     		se_lwz %r0,12(%r1)
  87 0076 0090     		se_mtlr %r0
  88              		.cfi_restore 65
  89 0078 2071     		se_addi %r1,8
  90              	.LCFI1:
  91              		.cfi_def_cfa_offset 0
  92 007a 0004     		se_blr
  93              		.cfi_endproc
  94              	.LFE6:
  95              		.size	UdsSendResponse, .-UdsSendResponse
  96              		.section	.text.ApplDescProcessDiagnosticSessionControl,"axv",@progbits
  97              		.align 1
  98              		.p2align 4,,15
  99              		.type	ApplDescProcessDiagnosticSessionControl, @function
 100              	ApplDescProcessDiagnosticSessionControl:
 101              	.LFB9:
 102              		.loc 1 344 0
 103              		.cfi_startproc
 104              	.LVL14:
 105 0000 182106F0 		e_stwu %r1,-16(%r1)
 106              	.LCFI2:
 107              		.cfi_def_cfa_offset 16
 108 0004 0080     		se_mflr %r0
 109 0006 D501     		se_stw %r0,20(%r1)
 110 0008 D3F1     		se_stw %r31,12(%r1)
 111              		.cfi_offset 65, 4
 112              		.cfi_offset 31, -4
 113              	.LVL15:
 114              		.loc 1 347 0
GAS LISTING C:\Users\duchu\AppData\Local\Temp\ccJgIM3F.s 			page 3


 115 000a C073     		se_lwz %r7,0(%r3)
 116 000c 8077     		se_lbz %r7,0(%r7)
 117              		.loc 1 349 0
 118 000e 18E7C07F 		e_andi %r7,%r7,127
 119 0012 2A27     		se_cmpi %r7,2
 120 0014 7A12007C 		e_beq %cr0,.L11
 121 0018 2A37     		se_cmpi %r7,3
 122 001a 7A1200D8 		e_beq %cr0,.L12
 123 001e 2A17     		se_cmpi %r7,1
 124 0020 7A02011E 		e_bne %cr0,.L18
 125              		.loc 1 352 0
 126 0024 A273     		se_lhz %r7,4(%r3)
 127 0026 2217     		se_cmpli %r7,2
 128 0028 7A11005A 		e_bgt %cr0,.L14
 129              		.loc 1 354 0
 130 002c C273     		se_lwz %r7,8(%r3)
 131 002e 4816     		se_li %r6,1
 132 0030 9067     		se_stb %r6,0(%r7)
 133              	.LVL16:
 134              		.loc 1 355 0
 135 0032 C253     		se_lwz %r5,8(%r3)
 136 0034 4807     		se_li %r7,0
 137 0036 9175     		se_stb %r7,1(%r5)
 138              		.loc 1 356 0
 139 0038 C253     		se_lwz %r5,8(%r3)
 140 003a 4B24     		se_li %r4,50
 141 003c 9245     		se_stb %r4,2(%r5)
 142              		.loc 1 357 0
 143 003e C253     		se_lwz %r5,8(%r3)
 144 0040 9375     		se_stb %r7,3(%r5)
 145              		.loc 1 358 0
 146 0042 C253     		se_lwz %r5,8(%r3)
 147 0044 709F7FC8 		e_li %r4,-56
 148 0048 9445     		se_stb %r4,4(%r5)
 149              		.loc 1 359 0
 150 004a 4855     		se_li %r5,5
 151 004c B653     		se_sth %r5,12(%r3)
 152              		.loc 1 360 0
 153 004e 70A0E000 		e_lis %r5,.LANCHOR1@ha
 154 0052 34C50000 		e_stb %r6,.LANCHOR1@l(%r5)
 155              		.loc 1 361 0
 156 0056 70C0E000 		e_lis %r6,.LANCHOR2@ha
 157 005a 34E60000 		e_stb %r7,.LANCHOR2@l(%r6)
 158              		.loc 1 362 0
 159 005e 70C0E000 		e_lis %r6,.LANCHOR3@ha
 160 0062 34E60000 		e_stb %r7,.LANCHOR3@l(%r6)
 161              		.loc 1 363 0
 162 0066 70C0E000 		e_lis %r6,.LANCHOR4@ha
 163 006a 34E60000 		e_stb %r7,.LANCHOR4@l(%r6)
 164              		.loc 1 364 0
 165 006e 70C0E000 		e_lis %r6,.LANCHOR5@ha
 166 0072 34E60000 		e_stb %r7,.LANCHOR5@l(%r6)
 167              		.loc 1 365 0
 168 0076 70C0E000 		e_lis %r6,.LANCHOR6@ha
 169 007a 34E60000 		e_stb %r7,.LANCHOR6@l(%r6)
 170 007e 780000CA 		e_b .L9
 171              	.LVL17:
GAS LISTING C:\Users\duchu\AppData\Local\Temp\ccJgIM3F.s 			page 4


 172              	.L14:
 173              	.LBB10:
 174              	.LBB11:
 175              		.loc 1 307 0
 176 0082 4936     		se_li %r6,19
 177 0084 70E0E000 		e_lis %r7,.LANCHOR0@ha
 178 0088 34C70000 		e_stb %r6,.LANCHOR0@l(%r7)
 179 008c 780000BC 		e_b .L9
 180              	.LVL18:
 181              	.L11:
 182              	.LBE11:
 183              	.LBE10:
 184              		.loc 1 373 0
 185 0090 A273     		se_lhz %r7,4(%r3)
 186 0092 2217     		se_cmpli %r7,2
 187 0094 7A110050 		e_bgt %cr0,.L16
 188              		.loc 1 375 0
 189 0098 C263     		se_lwz %r6,8(%r3)
 190 009a 4827     		se_li %r7,2
 191 009c 9076     		se_stb %r7,0(%r6)
 192              	.LVL19:
 193              		.loc 1 376 0
 194 009e C263     		se_lwz %r6,8(%r3)
 195 00a0 480F     		se_li %r31,0
 196 00a2 91F6     		se_stb %r31,1(%r6)
 197              		.loc 1 377 0
 198 00a4 C263     		se_lwz %r6,8(%r3)
 199 00a6 4B25     		se_li %r5,50
 200 00a8 9256     		se_stb %r5,2(%r6)
 201              		.loc 1 378 0
 202 00aa C263     		se_lwz %r6,8(%r3)
 203 00ac 93F6     		se_stb %r31,3(%r6)
 204              		.loc 1 379 0
 205 00ae C263     		se_lwz %r6,8(%r3)
 206 00b0 70BF7FC8 		e_li %r5,-56
 207 00b4 9456     		se_stb %r5,4(%r6)
 208              		.loc 1 380 0
 209 00b6 4856     		se_li %r6,5
 210 00b8 B663     		se_sth %r6,12(%r3)
 211              		.loc 1 381 0
 212 00ba 70C0E000 		e_lis %r6,.LANCHOR1@ha
 213 00be 34E60000 		e_stb %r7,.LANCHOR1@l(%r6)
 214              		.loc 1 382 0
 215 00c2 7076E0B0 		e_lis %r3,0xb0b0
 216              	.LVL20:
 217 00c6 7076C0B0 		e_or2i %r3,45232
 218 00ca 78000001 		e_bl SetBootMode
 219              	.LVL21:
 220              		.loc 1 383 0
 221 00ce 4816     		se_li %r6,1
 222 00d0 70E0E000 		e_lis %r7,.LANCHOR7@ha
 223 00d4 34C70000 		e_stb %r6,.LANCHOR7@l(%r7)
 224              		.loc 1 384 0
 225 00d8 70E0E000 		e_lis %r7,.LANCHOR3@ha
 226 00dc 37E70000 		e_stb %r31,.LANCHOR3@l(%r7)
 227 00e0 78000068 		e_b .L9
 228              	.LVL22:
GAS LISTING C:\Users\duchu\AppData\Local\Temp\ccJgIM3F.s 			page 5


 229              	.L16:
 230              	.LBB12:
 231              	.LBB13:
 232              		.loc 1 307 0
 233 00e4 4936     		se_li %r6,19
 234 00e6 70E0E000 		e_lis %r7,.LANCHOR0@ha
 235 00ea 34C70000 		e_stb %r6,.LANCHOR0@l(%r7)
 236 00ee 7800005A 		e_b .L9
 237              	.LVL23:
 238              	.L12:
 239              	.LBE13:
 240              	.LBE12:
 241              		.loc 1 392 0
 242 00f2 A273     		se_lhz %r7,4(%r3)
 243 00f4 2217     		se_cmpli %r7,2
 244 00f6 7A11003A 		e_bgt %cr0,.L17
 245              		.loc 1 394 0
 246 00fa C273     		se_lwz %r7,8(%r3)
 247 00fc 4836     		se_li %r6,3
 248 00fe 9067     		se_stb %r6,0(%r7)
 249              	.LVL24:
 250              		.loc 1 395 0
 251 0100 C253     		se_lwz %r5,8(%r3)
 252 0102 4807     		se_li %r7,0
 253 0104 9175     		se_stb %r7,1(%r5)
 254              		.loc 1 396 0
 255 0106 C253     		se_lwz %r5,8(%r3)
 256 0108 4B24     		se_li %r4,50
 257 010a 9245     		se_stb %r4,2(%r5)
 258              		.loc 1 397 0
 259 010c C253     		se_lwz %r5,8(%r3)
 260 010e 9375     		se_stb %r7,3(%r5)
 261              		.loc 1 398 0
 262 0110 C253     		se_lwz %r5,8(%r3)
 263 0112 709F7FC8 		e_li %r4,-56
 264 0116 9445     		se_stb %r4,4(%r5)
 265              		.loc 1 399 0
 266 0118 4855     		se_li %r5,5
 267 011a B653     		se_sth %r5,12(%r3)
 268              		.loc 1 400 0
 269 011c 70A0E000 		e_lis %r5,.LANCHOR1@ha
 270 0120 34C50000 		e_stb %r6,.LANCHOR1@l(%r5)
 271              		.loc 1 401 0
 272 0124 70C0E000 		e_lis %r6,.LANCHOR3@ha
 273 0128 34E60000 		e_stb %r7,.LANCHOR3@l(%r6)
 274 012c 7800001C 		e_b .L9
 275              	.LVL25:
 276              	.L17:
 277              	.LBB14:
 278              	.LBB15:
 279              		.loc 1 307 0
 280 0130 4936     		se_li %r6,19
 281 0132 70E0E000 		e_lis %r7,.LANCHOR0@ha
 282 0136 34C70000 		e_stb %r6,.LANCHOR0@l(%r7)
 283 013a 7800000E 		e_b .L9
 284              	.LVL26:
 285              	.L18:
GAS LISTING C:\Users\duchu\AppData\Local\Temp\ccJgIM3F.s 			page 6


 286              	.LBE15:
 287              	.LBE14:
 288              	.LBB16:
 289              	.LBB17:
 290 013e 4926     		se_li %r6,18
 291 0140 70E0E000 		e_lis %r7,.LANCHOR0@ha
 292 0144 34C70000 		e_stb %r6,.LANCHOR0@l(%r7)
 293              	.LVL27:
 294              	.L9:
 295              	.LBE17:
 296              	.LBE16:
 297              		.loc 1 414 0
 298 0148 C501     		se_lwz %r0,20(%r1)
 299 014a 0090     		se_mtlr %r0
 300              		.cfi_restore 65
 301 014c C3F1     		se_lwz %r31,12(%r1)
 302 014e 20F1     		se_addi %r1,16
 303              	.LCFI3:
 304              		.cfi_restore 31
 305              		.cfi_def_cfa_offset 0
 306 0150 0004     		se_blr
 307              		.cfi_endproc
 308              	.LFE9:
 309              		.size	ApplDescProcessDiagnosticSessionControl, .-ApplDescProcessDiagnosticSessionControl
 310              		.section	.text.ApplDescProcessSecurityAccess,"axv",@progbits
 311              		.align 1
 312              		.p2align 4,,15
 313              		.type	ApplDescProcessSecurityAccess, @function
 314              	ApplDescProcessSecurityAccess:
 315              	.LFB11:
 316              		.loc 1 459 0
 317              		.cfi_startproc
 318              	.LVL28:
 319 0000 182106E8 		e_stwu %r1,-24(%r1)
 320              	.LCFI4:
 321              		.cfi_def_cfa_offset 24
 322 0004 0080     		se_mflr %r0
 323 0006 D701     		se_stw %r0,28(%r1)
 324 0008 1BA1090C 		e_stmw %r29,12(%r1)
 325              		.cfi_offset 65, 4
 326              		.cfi_offset 29, -12
 327              		.cfi_offset 30, -8
 328              		.cfi_offset 31, -4
 329              		.loc 1 463 0
 330 000c C053     		se_lwz %r5,0(%r3)
 331 000e 8065     		se_lbz %r6,0(%r5)
 332              	.LVL29:
 333              		.loc 1 465 0
 334 0010 70E0E000 		e_lis %r7,.LANCHOR1@ha
 335 0014 30E70000 		e_lbz %r7,.LANCHOR1@l(%r7)
 336 0018 2A37     		se_cmpi %r7,3
 337 001a 7A0201E0 		e_bne %cr0,.L20
 338              		.loc 1 467 0
 339 001e 18C6C07F 		e_andi %r6,%r6,127
 340              	.LVL30:
 341 0022 2A16     		se_cmpi %r6,1
 342 0024 7A12000E 		e_beq %cr0,.L22
GAS LISTING C:\Users\duchu\AppData\Local\Temp\ccJgIM3F.s 			page 7


 343 0028 2A26     		se_cmpi %r6,2
 344 002a 7A120112 		e_beq %cr0,.L23
 345 002e 780001BE 		e_b .L31
 346              	.L22:
 347              		.loc 1 470 0
 348 0032 A273     		se_lhz %r7,4(%r3)
 349 0034 2207     		se_cmpli %r7,1
 350 0036 7A1100F8 		e_bgt %cr0,.L24
 351              		.loc 1 472 0
 352 003a 70E0E000 		e_lis %r7,.LANCHOR3@ha
 353 003e 30E70000 		e_lbz %r7,.LANCHOR3@l(%r7)
 354 0042 2A07     		se_cmpi %r7,0
 355 0044 7A0200DC 		e_bne %cr0,.L25
 356 0048 013F     		se_mr %r31,%r3
 357              		.loc 1 474 0
 358 004a 4816     		se_li %r6,1
 359 004c 70E0E000 		e_lis %r7,.LANCHOR3@ha
 360 0050 34C70000 		e_stb %r6,.LANCHOR3@l(%r7)
 361              		.loc 1 476 0
 362 0054 70A0E000 		e_lis %r5,.LANCHOR8@ha
 363              	.LVL31:
 364 0058 1CC50000 		e_la %r6,.LANCHOR8@l(%r5)
 365 005c 4807     		se_li %r7,0
 366 005e 34E50000 		e_stb %r7,.LANCHOR8@l(%r5)
 367              		.loc 1 477 0
 368 0062 9176     		se_stb %r7,1(%r6)
 369              		.loc 1 478 0
 370 0064 9276     		se_stb %r7,2(%r6)
 371              		.loc 1 479 0
 372 0066 9376     		se_stb %r7,3(%r6)
 373              		.loc 1 481 0
 374 0068 70E0E000 		e_lis %r7,.LANCHOR2@ha
 375 006c 30E70000 		e_lbz %r7,.LANCHOR2@l(%r7)
 376 0070 2A07     		se_cmpi %r7,0
 377 0072 7A02007E 		e_bne %cr0,.L26
 378              		.loc 1 483 0
 379 0076 78000001 		e_bl Get_PIT_CH3_CVAL
 380              	.LVL32:
 381 007a 78000001 		e_bl srand
 382              	.LVL33:
 383              		.loc 1 485 0
 384 007e 78000001 		e_bl rand
 385              	.LVL34:
 386 0082 70A0E000 		e_lis %r5,.LANCHOR8@ha
 387 0086 1FA50000 		e_la %r29,.LANCHOR8@l(%r5)
 388 008a 00C3     		se_extzb %r3
 389 008c 73D0E080 		e_lis %r30,0x8080
 390 0090 73D0C081 		e_or2i %r30,32897
 391 0094 7CE3F016 		mulhwu %r7,%r3,%r30
 392 0098 6877     		se_srwi %r7,7
 393 009a 7CE64070 		e_slwi %r6,%r7,8
 394 009e 0767     		se_subf %r7, %r6
 395 00a0 0673     		se_sub %r3, %r7
 396 00a2 2003     		se_addi %r3,1
 397 00a4 34650000 		e_stb %r3,.LANCHOR8@l(%r5)
 398              		.loc 1 486 0
 399 00a8 78000001 		e_bl rand
GAS LISTING C:\Users\duchu\AppData\Local\Temp\ccJgIM3F.s 			page 8


 400              	.LVL35:
 401 00ac 00C3     		se_extzb %r3
 402 00ae 7CE3F016 		mulhwu %r7,%r3,%r30
 403 00b2 6877     		se_srwi %r7,7
 404 00b4 7CE64070 		e_slwi %r6,%r7,8
 405 00b8 0767     		se_subf %r7, %r6
 406 00ba 0673     		se_sub %r3, %r7
 407 00bc 2003     		se_addi %r3,1
 408 00be 913D     		se_stb %r3,1(%r29)
 409              		.loc 1 487 0
 410 00c0 78000001 		e_bl rand
 411              	.LVL36:
 412 00c4 00C3     		se_extzb %r3
 413 00c6 7CE3F016 		mulhwu %r7,%r3,%r30
 414 00ca 6877     		se_srwi %r7,7
 415 00cc 7CE64070 		e_slwi %r6,%r7,8
 416 00d0 0767     		se_subf %r7, %r6
 417 00d2 0673     		se_sub %r3, %r7
 418 00d4 2003     		se_addi %r3,1
 419 00d6 923D     		se_stb %r3,2(%r29)
 420              		.loc 1 488 0
 421 00d8 78000001 		e_bl rand
 422              	.LVL37:
 423 00dc 00C3     		se_extzb %r3
 424 00de 7FC3F016 		mulhwu %r30,%r3,%r30
 425 00e2 687E     		se_srwi %r30,7
 426 00e4 7FC74070 		e_slwi %r7,%r30,8
 427 00e8 077E     		se_subf %r30, %r7
 428 00ea 06E3     		se_sub %r3, %r30
 429 00ec 2003     		se_addi %r3,1
 430 00ee 933D     		se_stb %r3,3(%r29)
 431              	.L26:
 432              		.loc 1 491 0
 433 00f0 C27F     		se_lwz %r7,8(%r31)
 434 00f2 4816     		se_li %r6,1
 435 00f4 9067     		se_stb %r6,0(%r7)
 436              		.loc 1 492 0
 437 00f6 C25F     		se_lwz %r5,8(%r31)
 438 00f8 70C0E000 		e_lis %r6,.LANCHOR8@ha
 439 00fc 1CE60000 		e_la %r7,.LANCHOR8@l(%r6)
 440 0100 30C60000 		e_lbz %r6,.LANCHOR8@l(%r6)
 441 0104 9165     		se_stb %r6,1(%r5)
 442              		.loc 1 493 0
 443 0106 C26F     		se_lwz %r6,8(%r31)
 444 0108 8157     		se_lbz %r5,1(%r7)
 445 010a 9256     		se_stb %r5,2(%r6)
 446              		.loc 1 494 0
 447 010c C26F     		se_lwz %r6,8(%r31)
 448 010e 8257     		se_lbz %r5,2(%r7)
 449 0110 9356     		se_stb %r5,3(%r6)
 450              		.loc 1 495 0
 451 0112 C26F     		se_lwz %r6,8(%r31)
 452 0114 8377     		se_lbz %r7,3(%r7)
 453 0116 9476     		se_stb %r7,4(%r6)
 454              		.loc 1 497 0
 455 0118 4857     		se_li %r7,5
 456 011a B67F     		se_sth %r7,12(%r31)
GAS LISTING C:\Users\duchu\AppData\Local\Temp\ccJgIM3F.s 			page 9


 457 011c 780000E8 		e_b .L19
 458              	.LVL38:
 459              	.L25:
 460              	.LBB32:
 461              	.LBB33:
 462              		.loc 1 307 0
 463 0120 4A46     		se_li %r6,36
 464 0122 70E0E000 		e_lis %r7,.LANCHOR0@ha
 465 0126 34C70000 		e_stb %r6,.LANCHOR0@l(%r7)
 466 012a 780000DA 		e_b .L19
 467              	.LVL39:
 468              	.L24:
 469              	.LBE33:
 470              	.LBE32:
 471              	.LBB34:
 472              	.LBB35:
 473 012e 4936     		se_li %r6,19
 474 0130 70E0E000 		e_lis %r7,.LANCHOR0@ha
 475 0134 34C70000 		e_stb %r6,.LANCHOR0@l(%r7)
 476 0138 780000CC 		e_b .L19
 477              	.LVL40:
 478              	.L23:
 479              	.LBE35:
 480              	.LBE34:
 481              		.loc 1 510 0
 482 013c A273     		se_lhz %r7,4(%r3)
 483 013e 2247     		se_cmpli %r7,5
 484 0140 7A11009E 		e_bgt %cr0,.L28
 485              		.loc 1 512 0
 486 0144 70E0E000 		e_lis %r7,.LANCHOR3@ha
 487 0148 30E70000 		e_lbz %r7,.LANCHOR3@l(%r7)
 488 014c 2A17     		se_cmpi %r7,1
 489 014e 7A020082 		e_bne %cr0,.L29
 490              		.loc 1 514 0
 491 0152 4806     		se_li %r6,0
 492 0154 70E0E000 		e_lis %r7,.LANCHOR3@ha
 493 0158 34C70000 		e_stb %r6,.LANCHOR3@l(%r7)
 494              		.loc 1 516 0
 495 015c 70E0E000 		e_lis %r7,.LANCHOR8@ha
 496 0160 30C70000 		e_lbz %r6,.LANCHOR8@l(%r7)
 497 0164 8175     		se_lbz %r7,1(%r5)
 498 0166 18C6E055 		e_xori %r6,%r6,85
 499 016a 0C67     		se_cmp %r7,%r6
 500 016c 7A020056 		e_bne %cr0,.L30
 501              		.loc 1 517 0
 502 0170 70E0E000 		e_lis %r7,.LANCHOR8+1@ha
 503 0174 30C70000 		e_lbz %r6,.LANCHOR8+1@l(%r7)
 504 0178 8275     		se_lbz %r7,2(%r5)
 505 017a 18C6E0AA 		e_xori %r6,%r6,170
 506 017e 0C67     		se_cmp %r7,%r6
 507 0180 7A020042 		e_bne %cr0,.L30
 508              		.loc 1 518 0
 509 0184 70E0E000 		e_lis %r7,.LANCHOR8+2@ha
 510 0188 30C70000 		e_lbz %r6,.LANCHOR8+2@l(%r7)
 511 018c 8375     		se_lbz %r7,3(%r5)
 512 018e 18C6E055 		e_xori %r6,%r6,85
 513 0192 0C67     		se_cmp %r7,%r6
GAS LISTING C:\Users\duchu\AppData\Local\Temp\ccJgIM3F.s 			page 10


 514 0194 7A02002E 		e_bne %cr0,.L30
 515              		.loc 1 519 0
 516 0198 70E0E000 		e_lis %r7,.LANCHOR8+3@ha
 517 019c 30C70000 		e_lbz %r6,.LANCHOR8+3@l(%r7)
 518 01a0 8475     		se_lbz %r7,4(%r5)
 519 01a2 18C6E0AA 		e_xori %r6,%r6,170
 520 01a6 0C67     		se_cmp %r7,%r6
 521 01a8 7A02001A 		e_bne %cr0,.L30
 522              		.loc 1 521 0
 523 01ac C273     		se_lwz %r7,8(%r3)
 524 01ae 4826     		se_li %r6,2
 525 01b0 9067     		se_stb %r6,0(%r7)
 526              	.LVL41:
 527              		.loc 1 522 0
 528 01b2 4817     		se_li %r7,1
 529 01b4 B673     		se_sth %r7,12(%r3)
 530              		.loc 1 523 0
 531 01b6 70C0E000 		e_lis %r6,.LANCHOR2@ha
 532 01ba 34E60000 		e_stb %r7,.LANCHOR2@l(%r6)
 533 01be 78000046 		e_b .L19
 534              	.LVL42:
 535              	.L30:
 536              	.LBB36:
 537              	.LBB37:
 538              		.loc 1 307 0
 539 01c2 4B56     		se_li %r6,53
 540 01c4 70E0E000 		e_lis %r7,.LANCHOR0@ha
 541 01c8 34C70000 		e_stb %r6,.LANCHOR0@l(%r7)
 542 01cc 78000038 		e_b .L19
 543              	.LVL43:
 544              	.L29:
 545              	.LBE37:
 546              	.LBE36:
 547              	.LBB38:
 548              	.LBB39:
 549 01d0 4A46     		se_li %r6,36
 550 01d2 70E0E000 		e_lis %r7,.LANCHOR0@ha
 551 01d6 34C70000 		e_stb %r6,.LANCHOR0@l(%r7)
 552 01da 7800002A 		e_b .L19
 553              	.LVL44:
 554              	.L28:
 555              	.LBE39:
 556              	.LBE38:
 557              	.LBB40:
 558              	.LBB41:
 559 01de 4936     		se_li %r6,19
 560 01e0 70E0E000 		e_lis %r7,.LANCHOR0@ha
 561 01e4 34C70000 		e_stb %r6,.LANCHOR0@l(%r7)
 562 01e8 7800001C 		e_b .L19
 563              	.LVL45:
 564              	.L31:
 565              	.LBE41:
 566              	.LBE40:
 567              	.LBB42:
 568              	.LBB43:
 569 01ec 4926     		se_li %r6,18
 570 01ee 70E0E000 		e_lis %r7,.LANCHOR0@ha
GAS LISTING C:\Users\duchu\AppData\Local\Temp\ccJgIM3F.s 			page 11


 571 01f2 34C70000 		e_stb %r6,.LANCHOR0@l(%r7)
 572 01f6 7800000E 		e_b .L19
 573              	.LVL46:
 574              	.L20:
 575              	.LBE43:
 576              	.LBE42:
 577              	.LBB44:
 578              	.LBB45:
 579 01fa 4A26     		se_li %r6,34
 580              	.LVL47:
 581 01fc 70E0E000 		e_lis %r7,.LANCHOR0@ha
 582 0200 34C70000 		e_stb %r6,.LANCHOR0@l(%r7)
 583              	.LVL48:
 584              	.L19:
 585              	.LBE45:
 586              	.LBE44:
 587              		.loc 1 551 0
 588 0204 C701     		se_lwz %r0,28(%r1)
 589 0206 0090     		se_mtlr %r0
 590              		.cfi_restore 65
 591 0208 1BA1080C 		e_lmw %r29,12(%r1)
 592 020c 2171     		se_addi %r1,24
 593              	.LCFI5:
 594              		.cfi_restore 31
 595              		.cfi_restore 30
 596              		.cfi_restore 29
 597              		.cfi_def_cfa_offset 0
 598 020e 0004     		se_blr
 599              		.cfi_endproc
 600              	.LFE11:
 601              		.size	ApplDescProcessSecurityAccess, .-ApplDescProcessSecurityAccess
 602              		.section	.text.ApplDescProcessWriteDataByIdentifier,"axv",@progbits
 603              		.align 1
 604              		.p2align 4,,15
 605              		.type	ApplDescProcessWriteDataByIdentifier, @function
 606              	ApplDescProcessWriteDataByIdentifier:
 607              	.LFB18:
 608              		.loc 1 972 0
 609              		.cfi_startproc
 610              	.LVL49:
 611 0000 182106F8 		e_stwu %r1,-8(%r1)
 612              	.LCFI6:
 613              		.cfi_def_cfa_offset 8
 614 0004 0080     		se_mflr %r0
 615 0006 D301     		se_stw %r0,12(%r1)
 616              		.cfi_offset 65, 4
 617              	.LVL50:
 618              		.loc 1 975 0
 619 0008 70E0E000 		e_lis %r7,.LANCHOR1@ha
 620 000c 30E70000 		e_lbz %r7,.LANCHOR1@l(%r7)
 621 0010 2A37     		se_cmpi %r7,3
 622 0012 7A02016C 		e_bne %cr0,.L33
 623              		.loc 1 977 0
 624 0016 70E0E000 		e_lis %r7,.LANCHOR2@ha
 625 001a 30E70000 		e_lbz %r7,.LANCHOR2@l(%r7)
 626 001e 2A17     		se_cmpi %r7,1
 627 0020 7A020150 		e_bne %cr0,.L34
GAS LISTING C:\Users\duchu\AppData\Local\Temp\ccJgIM3F.s 			page 12


 628              		.loc 1 979 0
 629 0024 C053     		se_lwz %r5,0(%r3)
 630 0026 8075     		se_lbz %r7,0(%r5)
 631 0028 7CE64070 		e_slwi %r6,%r7,8
 632              	.LVL51:
 633              		.loc 1 980 0
 634 002c 8175     		se_lbz %r7,1(%r5)
 635              		.loc 1 982 0
 636 002e 4467     		se_or %r7,%r6
 637 0030 70DE018B 		e_li %r6,61835
 638              	.LVL52:
 639 0034 0C67     		se_cmp %r7,%r6
 640 0036 7A12008C 		e_beq %cr0,.L36
 641 003a 70DE0193 		e_li %r6,61843
 642 003e 0C67     		se_cmp %r7,%r6
 643 0040 7A1200D0 		e_beq %cr0,.L37
 644 0044 70DE0187 		e_li %r6,61831
 645 0048 0C67     		se_cmp %r7,%r6
 646 004a 7A020114 		e_bne %cr0,.L44
 647              		.loc 1 985 0
 648 004e A273     		se_lhz %r7,4(%r3)
 649 0050 22B7     		se_cmpli %r7,12
 650 0052 7A110062 		e_bgt %cr0,.L39
 651              		.loc 1 987 0
 652 0056 C273     		se_lwz %r7,8(%r3)
 653 0058 70DF7FF1 		e_li %r6,-15
 654 005c 9067     		se_stb %r6,0(%r7)
 655              	.LVL53:
 656              		.loc 1 988 0
 657 005e C273     		se_lwz %r7,8(%r3)
 658 0060 70DF7F87 		e_li %r6,-121
 659 0064 9167     		se_stb %r6,1(%r7)
 660              		.loc 1 990 0
 661 0066 4827     		se_li %r7,2
 662 0068 B673     		se_sth %r7,12(%r3)
 663              		.loc 1 992 0
 664 006a 70C0E000 		e_lis %r6,.LANCHOR9@ha
 665 006e 1CE60000 		e_la %r7,.LANCHOR9@l(%r6)
 666 0072 C053     		se_lwz %r5,0(%r3)
 667 0074 8255     		se_lbz %r5,2(%r5)
 668 0076 34A60000 		e_stb %r5,.LANCHOR9@l(%r6)
 669              		.loc 1 993 0
 670 007a C063     		se_lwz %r6,0(%r3)
 671 007c 8366     		se_lbz %r6,3(%r6)
 672 007e 9167     		se_stb %r6,1(%r7)
 673              		.loc 1 994 0
 674 0080 C063     		se_lwz %r6,0(%r3)
 675 0082 8466     		se_lbz %r6,4(%r6)
 676 0084 9267     		se_stb %r6,2(%r7)
 677              		.loc 1 995 0
 678 0086 C063     		se_lwz %r6,0(%r3)
 679 0088 8566     		se_lbz %r6,5(%r6)
 680 008a 9367     		se_stb %r6,3(%r7)
 681              		.loc 1 996 0
 682 008c C063     		se_lwz %r6,0(%r3)
 683 008e 8666     		se_lbz %r6,6(%r6)
 684 0090 9467     		se_stb %r6,4(%r7)
GAS LISTING C:\Users\duchu\AppData\Local\Temp\ccJgIM3F.s 			page 13


 685              		.loc 1 997 0
 686 0092 C063     		se_lwz %r6,0(%r3)
 687 0094 8766     		se_lbz %r6,7(%r6)
 688 0096 9567     		se_stb %r6,5(%r7)
 689              		.loc 1 998 0
 690 0098 C063     		se_lwz %r6,0(%r3)
 691 009a 8866     		se_lbz %r6,8(%r6)
 692 009c 9667     		se_stb %r6,6(%r7)
 693              		.loc 1 999 0
 694 009e C063     		se_lwz %r6,0(%r3)
 695 00a0 8966     		se_lbz %r6,9(%r6)
 696 00a2 9767     		se_stb %r6,7(%r7)
 697              		.loc 1 1000 0
 698 00a4 C063     		se_lwz %r6,0(%r3)
 699 00a6 8A66     		se_lbz %r6,10(%r6)
 700 00a8 9867     		se_stb %r6,8(%r7)
 701              		.loc 1 1001 0
 702 00aa C063     		se_lwz %r6,0(%r3)
 703 00ac 8B66     		se_lbz %r6,11(%r6)
 704 00ae 9967     		se_stb %r6,9(%r7)
 705 00b0 780000B8 		e_b .L40
 706              	.LVL54:
 707              	.L39:
 708              	.LBB58:
 709              	.LBB59:
 710              		.loc 1 307 0
 711 00b4 4936     		se_li %r6,19
 712 00b6 70E0E000 		e_lis %r7,.LANCHOR0@ha
 713 00ba 34C70000 		e_stb %r6,.LANCHOR0@l(%r7)
 714 00be 780000AA 		e_b .L40
 715              	.LVL55:
 716              	.L36:
 717              	.LBE59:
 718              	.LBE58:
 719              		.loc 1 1009 0
 720 00c2 A273     		se_lhz %r7,4(%r3)
 721 00c4 2257     		se_cmpli %r7,6
 722 00c6 7A11003C 		e_bgt %cr0,.L41
 723              		.loc 1 1011 0
 724 00ca C273     		se_lwz %r7,8(%r3)
 725 00cc 70DF7FF1 		e_li %r6,-15
 726 00d0 9067     		se_stb %r6,0(%r7)
 727              	.LVL56:
 728              		.loc 1 1012 0
 729 00d2 C273     		se_lwz %r7,8(%r3)
 730 00d4 70DF7F8B 		e_li %r6,-117
 731 00d8 9167     		se_stb %r6,1(%r7)
 732              		.loc 1 1014 0
 733 00da 4827     		se_li %r7,2
 734 00dc B673     		se_sth %r7,12(%r3)
 735              		.loc 1 1016 0
 736 00de C073     		se_lwz %r7,0(%r3)
 737 00e0 8267     		se_lbz %r6,2(%r7)
 738 00e2 70E0E000 		e_lis %r7,.LANCHOR9@ha
 739 00e6 1CE70000 		e_la %r7,.LANCHOR9@l(%r7)
 740 00ea 9C67     		se_stb %r6,12(%r7)
 741              		.loc 1 1017 0
GAS LISTING C:\Users\duchu\AppData\Local\Temp\ccJgIM3F.s 			page 14


 742 00ec C063     		se_lwz %r6,0(%r3)
 743 00ee 8366     		se_lbz %r6,3(%r6)
 744 00f0 9D67     		se_stb %r6,13(%r7)
 745              		.loc 1 1018 0
 746 00f2 C063     		se_lwz %r6,0(%r3)
 747 00f4 8466     		se_lbz %r6,4(%r6)
 748 00f6 9E67     		se_stb %r6,14(%r7)
 749              		.loc 1 1019 0
 750 00f8 C063     		se_lwz %r6,0(%r3)
 751 00fa 8566     		se_lbz %r6,5(%r6)
 752 00fc 9F67     		se_stb %r6,15(%r7)
 753 00fe 7800006A 		e_b .L40
 754              	.LVL57:
 755              	.L41:
 756              	.LBB60:
 757              	.LBB61:
 758              		.loc 1 307 0
 759 0102 4936     		se_li %r6,19
 760 0104 70E0E000 		e_lis %r7,.LANCHOR0@ha
 761 0108 34C70000 		e_stb %r6,.LANCHOR0@l(%r7)
 762 010c 7800005C 		e_b .L40
 763              	.LVL58:
 764              	.L37:
 765              	.LBE61:
 766              	.LBE60:
 767              		.loc 1 1027 0
 768 0110 A273     		se_lhz %r7,4(%r3)
 769 0112 2247     		se_cmpli %r7,5
 770 0114 7A11003C 		e_bgt %cr0,.L42
 771              		.loc 1 1029 0
 772 0118 C273     		se_lwz %r7,8(%r3)
 773 011a 70DF7FF1 		e_li %r6,-15
 774 011e 9067     		se_stb %r6,0(%r7)
 775              	.LVL59:
 776              		.loc 1 1030 0
 777 0120 C273     		se_lwz %r7,8(%r3)
 778 0122 70DF7F93 		e_li %r6,-109
 779 0126 9167     		se_stb %r6,1(%r7)
 780              		.loc 1 1032 0
 781 0128 4827     		se_li %r7,2
 782 012a B673     		se_sth %r7,12(%r3)
 783              		.loc 1 1034 0
 784 012c C073     		se_lwz %r7,0(%r3)
 785 012e 8267     		se_lbz %r6,2(%r7)
 786 0130 70E0E000 		e_lis %r7,.LANCHOR9@ha
 787 0134 1CE70000 		e_la %r7,.LANCHOR9@l(%r7)
 788 0138 34C70010 		e_stb %r6,16(%r7)
 789              		.loc 1 1035 0
 790 013c C063     		se_lwz %r6,0(%r3)
 791 013e 8366     		se_lbz %r6,3(%r6)
 792 0140 34C70011 		e_stb %r6,17(%r7)
 793              		.loc 1 1036 0
 794 0144 C063     		se_lwz %r6,0(%r3)
 795 0146 8466     		se_lbz %r6,4(%r6)
 796 0148 34C70012 		e_stb %r6,18(%r7)
 797 014c 7800001C 		e_b .L40
 798              	.LVL60:
GAS LISTING C:\Users\duchu\AppData\Local\Temp\ccJgIM3F.s 			page 15


 799              	.L42:
 800              	.LBB62:
 801              	.LBB63:
 802              		.loc 1 307 0
 803 0150 4936     		se_li %r6,19
 804 0152 70E0E000 		e_lis %r7,.LANCHOR0@ha
 805 0156 34C70000 		e_stb %r6,.LANCHOR0@l(%r7)
 806 015a 7800000E 		e_b .L40
 807              	.LVL61:
 808              	.L44:
 809              	.LBE63:
 810              	.LBE62:
 811              	.LBB64:
 812              	.LBB65:
 813 015e 4B16     		se_li %r6,49
 814 0160 70E0E000 		e_lis %r7,.LANCHOR0@ha
 815 0164 34C70000 		e_stb %r6,.LANCHOR0@l(%r7)
 816              	.LVL62:
 817              	.L40:
 818              	.LBE65:
 819              	.LBE64:
 820              		.loc 1 1048 0
 821 0168 78000001 		e_bl Asw_DID_Eeprom_Write
 822              	.LVL63:
 823 016c 7800001C 		e_b .L32
 824              	.LVL64:
 825              	.L34:
 826              	.LBB66:
 827              	.LBB67:
 828              		.loc 1 307 0
 829 0170 4B36     		se_li %r6,51
 830 0172 70E0E000 		e_lis %r7,.LANCHOR0@ha
 831 0176 34C70000 		e_stb %r6,.LANCHOR0@l(%r7)
 832 017a 7800000E 		e_b .L32
 833              	.LVL65:
 834              	.L33:
 835              	.LBE67:
 836              	.LBE66:
 837              	.LBB68:
 838              	.LBB69:
 839 017e 4A26     		se_li %r6,34
 840 0180 70E0E000 		e_lis %r7,.LANCHOR0@ha
 841 0184 34C70000 		e_stb %r6,.LANCHOR0@l(%r7)
 842              	.LVL66:
 843              	.L32:
 844              	.LBE69:
 845              	.LBE68:
 846              		.loc 1 1061 0
 847 0188 C301     		se_lwz %r0,12(%r1)
 848 018a 0090     		se_mtlr %r0
 849              		.cfi_restore 65
 850 018c 2071     		se_addi %r1,8
 851              	.LCFI7:
 852              		.cfi_def_cfa_offset 0
 853 018e 0004     		se_blr
 854              		.cfi_endproc
 855              	.LFE18:
GAS LISTING C:\Users\duchu\AppData\Local\Temp\ccJgIM3F.s 			page 16


 856              		.size	ApplDescProcessWriteDataByIdentifier, .-ApplDescProcessWriteDataByIdentifier
 857              		.section	.text.ApplDescProcessReadDataByIdentifier,"axv",@progbits
 858              		.align 1
 859              		.p2align 4,,15
 860              		.type	ApplDescProcessReadDataByIdentifier, @function
 861              	ApplDescProcessReadDataByIdentifier:
 862              	.LFB17:
 863              		.loc 1 863 0
 864              		.cfi_startproc
 865              	.LVL67:
 866 0000 182106D0 		e_stwu %r1,-48(%r1)
 867              	.LCFI8:
 868              		.cfi_def_cfa_offset 48
 869 0004 0080     		se_mflr %r0
 870 0006 DD01     		se_stw %r0,52(%r1)
 871 0008 1BC10928 		e_stmw %r30,40(%r1)
 872              		.cfi_offset 65, 4
 873              		.cfi_offset 30, -8
 874              		.cfi_offset 31, -4
 875 000c 013E     		se_mr %r30,%r3
 876              	.LVL68:
 877              		.loc 1 868 0
 878 000e C073     		se_lwz %r7,0(%r3)
 879 0010 80F7     		se_lbz %r31,0(%r7)
 880 0012 6C8F     		se_slwi %r31, 8
 881              	.LVL69:
 882              		.loc 1 869 0
 883 0014 8177     		se_lbz %r7,1(%r7)
 884 0016 447F     		se_or %r31,%r7
 885              	.LVL70:
 886              		.loc 1 872 0
 887 0018 70E0E000 		e_lis %r7,u32g_Asw_present_addr@ha
 888 001c 50670000 		e_lwz %r3,u32g_Asw_present_addr@l(%r7)
 889              	.LVL71:
 890 0020 78000001 		e_bl Asw_DID_Eeprom_Read
 891              	.LVL72:
 892 0024 70A0E000 		e_lis %r5,u32g_Asw_EEPROM_LAST_BUFFER_DID-4@ha
 893 0028 1CA50000 		e_la %r5,u32g_Asw_EEPROM_LAST_BUFFER_DID-4@l(%r5)
 894 002c 18C18008 		e_addi %r6,%r1,8
 895 0030 4887     		se_li %r7,8
 896 0032 00B7     		se_mtctr %r7
 897              	.LVL73:
 898              	.L46:
 899              		.loc 1 876 0 discriminator 3
 900 0034 18E50204 		e_lwzu %r7,4(%r5)
 901 0038 9076     		se_stb %r7,0(%r6)
 902              		.loc 1 877 0 discriminator 3
 903 003a 74E4C63F 		e_rlwinm %r4,%r7,24,24,31
 904 003e 9146     		se_stb %r4,1(%r6)
 905              		.loc 1 878 0 discriminator 3
 906 0040 74E4863F 		e_rlwinm %r4,%r7,16,24,31
 907 0044 9246     		se_stb %r4,2(%r6)
 908              		.loc 1 879 0 discriminator 3
 909 0046 6987     		se_srwi %r7,24
 910 0048 9376     		se_stb %r7,3(%r6)
 911 004a 2036     		se_addi %r6,4
 912              		.loc 1 874 0 discriminator 3
GAS LISTING C:\Users\duchu\AppData\Local\Temp\ccJgIM3F.s 			page 17


 913 004c 7A20FFE8 		e_bdnz .L46
 914              		.loc 1 882 0
 915 0050 1CFF0E79 		e_add16i %r7,%r31,3705
 916 0054 74E6043F 		e_rlwinm %r6,%r7,0,0xffff
 917 0058 22D6     		se_cmpli %r6,14
 918 005a 7A11015E 		e_bgt %cr0,.L47
 919 005e 70C0E000 		e_lis %r6,.L49@ha
 920 0062 1CC60000 		e_la %r6,.L49@l(%r6)
 921 0066 74E713BB 		e_rlwinm %r7,%r7,2,14,29
 922 006a 7CE6382E 		lwzx %r7,%r6,%r7
 923 006e 7CC73214 		add %r6,%r7,%r6
 924 0072 00B6     		se_mtctr %r6
 925 0074 0006     		se_bctr
 926              		.section	.rodata.ApplDescProcessReadDataByIdentifier,"a",@progbits
 927              		.align 2
 928              		.align 2
 929              	.L49:
 930 0000 00000000 		.long .L48-.L49
 931 0004 00000000 		.long .L47-.L49
 932 0008 00000000 		.long .L47-.L49
 933 000c 00000000 		.long .L47-.L49
 934 0010 00000000 		.long .L50-.L49
 935 0014 00000000 		.long .L47-.L49
 936 0018 00000000 		.long .L47-.L49
 937 001c 00000000 		.long .L47-.L49
 938 0020 00000000 		.long .L47-.L49
 939 0024 00000000 		.long .L47-.L49
 940 0028 00000000 		.long .L47-.L49
 941 002c 00000000 		.long .L47-.L49
 942 0030 00000000 		.long .L51-.L49
 943 0034 00000000 		.long .L47-.L49
 944 0038 00000000 		.long .L52-.L49
 945              		.section	.text.ApplDescProcessReadDataByIdentifier
 946              	.L48:
 947              		.loc 1 885 0
 948 0076 A27E     		se_lhz %r7,4(%r30)
 949 0078 2217     		se_cmpli %r7,2
 950 007a 7A11005C 		e_bgt %cr0,.L53
 951              		.loc 1 887 0
 952 007e C27E     		se_lwz %r7,8(%r30)
 953 0080 70DF7FF1 		e_li %r6,-15
 954 0084 9067     		se_stb %r6,0(%r7)
 955              		.loc 1 888 0
 956 0086 C27E     		se_lwz %r7,8(%r30)
 957 0088 70DF7F87 		e_li %r6,-121
 958 008c 9167     		se_stb %r6,1(%r7)
 959              		.loc 1 889 0
 960 008e C27E     		se_lwz %r7,8(%r30)
 961 0090 8861     		se_lbz %r6,8(%r1)
 962 0092 9267     		se_stb %r6,2(%r7)
 963              		.loc 1 890 0
 964 0094 C27E     		se_lwz %r7,8(%r30)
 965 0096 8961     		se_lbz %r6,9(%r1)
 966 0098 9367     		se_stb %r6,3(%r7)
 967              		.loc 1 891 0
 968 009a C27E     		se_lwz %r7,8(%r30)
 969 009c 8A61     		se_lbz %r6,10(%r1)
GAS LISTING C:\Users\duchu\AppData\Local\Temp\ccJgIM3F.s 			page 18


 970 009e 9467     		se_stb %r6,4(%r7)
 971              		.loc 1 892 0
 972 00a0 C27E     		se_lwz %r7,8(%r30)
 973 00a2 8B61     		se_lbz %r6,11(%r1)
 974 00a4 9567     		se_stb %r6,5(%r7)
 975              		.loc 1 893 0
 976 00a6 C27E     		se_lwz %r7,8(%r30)
 977 00a8 8C61     		se_lbz %r6,12(%r1)
 978 00aa 9667     		se_stb %r6,6(%r7)
 979              		.loc 1 894 0
 980 00ac C27E     		se_lwz %r7,8(%r30)
 981 00ae 8D61     		se_lbz %r6,13(%r1)
 982 00b0 9767     		se_stb %r6,7(%r7)
 983              		.loc 1 895 0
 984 00b2 C27E     		se_lwz %r7,8(%r30)
 985 00b4 8E61     		se_lbz %r6,14(%r1)
 986 00b6 9867     		se_stb %r6,8(%r7)
 987              		.loc 1 896 0
 988 00b8 C27E     		se_lwz %r7,8(%r30)
 989 00ba 8F61     		se_lbz %r6,15(%r1)
 990 00bc 9967     		se_stb %r6,9(%r7)
 991              		.loc 1 897 0
 992 00be C27E     		se_lwz %r7,8(%r30)
 993 00c0 30C10010 		e_lbz %r6,16(%r1)
 994 00c4 9A67     		se_stb %r6,10(%r7)
 995              		.loc 1 898 0
 996 00c6 C27E     		se_lwz %r7,8(%r30)
 997 00c8 30C10011 		e_lbz %r6,17(%r1)
 998 00cc 9B67     		se_stb %r6,11(%r7)
 999              		.loc 1 900 0
 1000 00ce 48C7     		se_li %r7,12
 1001 00d0 B67E     		se_sth %r7,12(%r30)
 1002 00d2 780000F0 		e_b .L45
 1003              	.L53:
 1004              	.LVL74:
 1005              	.LBB80:
 1006              	.LBB81:
 1007              		.loc 1 307 0
 1008 00d6 4936     		se_li %r6,19
 1009 00d8 70E0E000 		e_lis %r7,.LANCHOR0@ha
 1010 00dc 34C70000 		e_stb %r6,.LANCHOR0@l(%r7)
 1011 00e0 780000E2 		e_b .L45
 1012              	.LVL75:
 1013              	.L50:
 1014              	.LBE81:
 1015              	.LBE80:
 1016              		.loc 1 908 0
 1017 00e4 A27E     		se_lhz %r7,4(%r30)
 1018 00e6 2217     		se_cmpli %r7,2
 1019 00e8 7A11003C 		e_bgt %cr0,.L55
 1020              		.loc 1 910 0
 1021 00ec C27E     		se_lwz %r7,8(%r30)
 1022 00ee 70DF7FF1 		e_li %r6,-15
 1023 00f2 9067     		se_stb %r6,0(%r7)
 1024              		.loc 1 911 0
 1025 00f4 C27E     		se_lwz %r7,8(%r30)
 1026 00f6 70DF7F8B 		e_li %r6,-117
GAS LISTING C:\Users\duchu\AppData\Local\Temp\ccJgIM3F.s 			page 19


 1027 00fa 9167     		se_stb %r6,1(%r7)
 1028              		.loc 1 912 0
 1029 00fc C27E     		se_lwz %r7,8(%r30)
 1030 00fe 30C10014 		e_lbz %r6,20(%r1)
 1031 0102 9267     		se_stb %r6,2(%r7)
 1032              		.loc 1 913 0
 1033 0104 C27E     		se_lwz %r7,8(%r30)
 1034 0106 30C10015 		e_lbz %r6,21(%r1)
 1035 010a 9367     		se_stb %r6,3(%r7)
 1036              		.loc 1 914 0
 1037 010c C27E     		se_lwz %r7,8(%r30)
 1038 010e 30C10016 		e_lbz %r6,22(%r1)
 1039 0112 9467     		se_stb %r6,4(%r7)
 1040              		.loc 1 915 0
 1041 0114 C27E     		se_lwz %r7,8(%r30)
 1042 0116 30C10017 		e_lbz %r6,23(%r1)
 1043 011a 9567     		se_stb %r6,5(%r7)
 1044              		.loc 1 917 0
 1045 011c 4867     		se_li %r7,6
 1046 011e B67E     		se_sth %r7,12(%r30)
 1047 0120 780000A2 		e_b .L45
 1048              	.L55:
 1049              	.LVL76:
 1050              	.LBB82:
 1051              	.LBB83:
 1052              		.loc 1 307 0
 1053 0124 4936     		se_li %r6,19
 1054 0126 70E0E000 		e_lis %r7,.LANCHOR0@ha
 1055 012a 34C70000 		e_stb %r6,.LANCHOR0@l(%r7)
 1056 012e 78000094 		e_b .L45
 1057              	.LVL77:
 1058              	.L52:
 1059              	.LBE83:
 1060              	.LBE82:
 1061              		.loc 1 925 0
 1062 0132 A27E     		se_lhz %r7,4(%r30)
 1063 0134 2217     		se_cmpli %r7,2
 1064 0136 7A11002E 		e_bgt %cr0,.L56
 1065              		.loc 1 927 0
 1066 013a C27E     		se_lwz %r7,8(%r30)
 1067 013c 70DF7FF1 		e_li %r6,-15
 1068 0140 9067     		se_stb %r6,0(%r7)
 1069              		.loc 1 928 0
 1070 0142 C27E     		se_lwz %r7,8(%r30)
 1071 0144 70DF7F95 		e_li %r6,-107
 1072 0148 9167     		se_stb %r6,1(%r7)
 1073              		.loc 1 929 0
 1074 014a C27E     		se_lwz %r7,8(%r30)
 1075 014c 4C16     		se_li %r6,65
 1076 014e 9267     		se_stb %r6,2(%r7)
 1077              		.loc 1 930 0
 1078 0150 C27E     		se_lwz %r7,8(%r30)
 1079 0152 4B16     		se_li %r6,49
 1080 0154 9367     		se_stb %r6,3(%r7)
 1081              		.loc 1 931 0
 1082 0156 C27E     		se_lwz %r7,8(%r30)
 1083 0158 4B06     		se_li %r6,48
GAS LISTING C:\Users\duchu\AppData\Local\Temp\ccJgIM3F.s 			page 20


 1084 015a 9467     		se_stb %r6,4(%r7)
 1085              		.loc 1 933 0
 1086 015c 4857     		se_li %r7,5
 1087 015e B67E     		se_sth %r7,12(%r30)
 1088 0160 78000062 		e_b .L45
 1089              	.L56:
 1090              	.LVL78:
 1091              	.LBB84:
 1092              	.LBB85:
 1093              		.loc 1 307 0
 1094 0164 4936     		se_li %r6,19
 1095 0166 70E0E000 		e_lis %r7,.LANCHOR0@ha
 1096 016a 34C70000 		e_stb %r6,.LANCHOR0@l(%r7)
 1097 016e 78000054 		e_b .L45
 1098              	.LVL79:
 1099              	.L51:
 1100              	.LBE85:
 1101              	.LBE84:
 1102              		.loc 1 941 0
 1103 0172 A27E     		se_lhz %r7,4(%r30)
 1104 0174 2217     		se_cmpli %r7,2
 1105 0176 7A110034 		e_bgt %cr0,.L57
 1106              		.loc 1 943 0
 1107 017a C27E     		se_lwz %r7,8(%r30)
 1108 017c 70DF7FF1 		e_li %r6,-15
 1109 0180 9067     		se_stb %r6,0(%r7)
 1110              		.loc 1 944 0
 1111 0182 C27E     		se_lwz %r7,8(%r30)
 1112 0184 70DF7F93 		e_li %r6,-109
 1113 0188 9167     		se_stb %r6,1(%r7)
 1114              		.loc 1 945 0
 1115 018a C27E     		se_lwz %r7,8(%r30)
 1116 018c 30C10018 		e_lbz %r6,24(%r1)
 1117 0190 9267     		se_stb %r6,2(%r7)
 1118              		.loc 1 946 0
 1119 0192 C27E     		se_lwz %r7,8(%r30)
 1120 0194 30C10019 		e_lbz %r6,25(%r1)
 1121 0198 9367     		se_stb %r6,3(%r7)
 1122              		.loc 1 947 0
 1123 019a C27E     		se_lwz %r7,8(%r30)
 1124 019c 30C1001A 		e_lbz %r6,26(%r1)
 1125 01a0 9467     		se_stb %r6,4(%r7)
 1126              		.loc 1 949 0
 1127 01a2 4857     		se_li %r7,5
 1128 01a4 B67E     		se_sth %r7,12(%r30)
 1129 01a6 7800001C 		e_b .L45
 1130              	.L57:
 1131              	.LVL80:
 1132              	.LBB86:
 1133              	.LBB87:
 1134              		.loc 1 307 0
 1135 01aa 4936     		se_li %r6,19
 1136 01ac 70E0E000 		e_lis %r7,.LANCHOR0@ha
 1137 01b0 34C70000 		e_stb %r6,.LANCHOR0@l(%r7)
 1138 01b4 7800000E 		e_b .L45
 1139              	.LVL81:
 1140              	.L47:
GAS LISTING C:\Users\duchu\AppData\Local\Temp\ccJgIM3F.s 			page 21


 1141              	.LBE87:
 1142              	.LBE86:
 1143              	.LBB88:
 1144              	.LBB89:
 1145 01b8 4B16     		se_li %r6,49
 1146 01ba 70E0E000 		e_lis %r7,.LANCHOR0@ha
 1147 01be 34C70000 		e_stb %r6,.LANCHOR0@l(%r7)
 1148              	.LVL82:
 1149              	.L45:
 1150              	.LBE89:
 1151              	.LBE88:
 1152              		.loc 1 962 0
 1153 01c2 CD01     		se_lwz %r0,52(%r1)
 1154 01c4 0090     		se_mtlr %r0
 1155              		.cfi_restore 65
 1156 01c6 1BC10828 		e_lmw %r30,40(%r1)
 1157              	.LVL83:
 1158 01ca 18218030 		e_addi %r1,%r1,48
 1159              	.LCFI9:
 1160              		.cfi_restore 31
 1161              		.cfi_restore 30
 1162              		.cfi_def_cfa_offset 0
 1163 01ce 0004     		se_blr
 1164              		.cfi_endproc
 1165              	.LFE17:
 1166              		.size	ApplDescProcessReadDataByIdentifier, .-ApplDescProcessReadDataByIdentifier
 1167              		.section	.text.ApplDescProcessClearDiagnosticInformation,"axv",@progbits
 1168              		.align 1
 1169              		.p2align 4,,15
 1170              		.type	ApplDescProcessClearDiagnosticInformation, @function
 1171              	ApplDescProcessClearDiagnosticInformation:
 1172              	.LFB16:
 1173              		.loc 1 823 0
 1174              		.cfi_startproc
 1175              	.LVL84:
 1176              		.loc 1 826 0
 1177 0000 A273     		se_lhz %r7,4(%r3)
 1178 0002 2227     		se_cmpli %r7,3
 1179 0004 7A110066 		e_bgt %cr0,.L60
 1180              		.loc 1 828 0
 1181 0008 C063     		se_lwz %r6,0(%r3)
 1182 000a 8076     		se_lbz %r7,0(%r6)
 1183 000c 700798FF 		e_cmp16i %r7,255
 1184 0010 7A02004E 		e_bne %cr0,.L61
 1185              		.loc 1 829 0
 1186 0014 8176     		se_lbz %r7,1(%r6)
 1187 0016 700798FF 		e_cmp16i %r7,255
 1188 001a 7A020044 		e_bne %cr0,.L61
 1189              		.loc 1 830 0
 1190 001e 8276     		se_lbz %r7,2(%r6)
 1191 0020 700798FF 		e_cmp16i %r7,255
 1192 0024 7A02003A 		e_bne %cr0,.L61
 1193 0028 4807     		se_li %r7,0
 1194              		.loc 1 835 0
 1195 002a 7080E000 		e_lis %r4,u32g_Asw_EEPROM_BUFFER_DTC@ha
 1196 002e 1C840000 		e_la %r4,u32g_Asw_EEPROM_BUFFER_DTC@l(%r4)
 1197 0032 4806     		se_li %r6,0
GAS LISTING C:\Users\duchu\AppData\Local\Temp\ccJgIM3F.s 			page 22


 1198              		.loc 1 836 0
 1199 0034 70A0E000 		e_lis %r5,u32g_Asw_EEPROM_LAST_BUFFER_DTC@ha
 1200 0038 1CA50000 		e_la %r5,u32g_Asw_EEPROM_LAST_BUFFER_DTC@l(%r5)
 1201 003c 4880     		se_li %r0,8
 1202 003e 00B0     		se_mtctr %r0
 1203              	.L62:
 1204              		.loc 1 835 0 discriminator 3
 1205 0040 7CC4392E 		stwx %r6,%r4,%r7
 1206              		.loc 1 836 0 discriminator 3
 1207 0044 7CC5392E 		stwx %r6,%r5,%r7
 1208              	.LVL85:
 1209 0048 2037     		se_addi %r7,4
 1210              		.loc 1 833 0 discriminator 3
 1211 004a 7A20FFF6 		e_bdnz .L62
 1212              		.loc 1 839 0
 1213 004e 4816     		se_li %r6,1
 1214 0050 70E0E000 		e_lis %r7,u8g_Asw_WriteEEPROM_Flag@ha
 1215 0054 34C70000 		e_stb %r6,u8g_Asw_WriteEEPROM_Flag@l(%r7)
 1216              		.loc 1 840 0
 1217 0058 4807     		se_li %r7,0
 1218 005a B673     		se_sth %r7,12(%r3)
 1219 005c 0004     		se_blr
 1220              	.L61:
 1221              	.LVL86:
 1222              	.LBB94:
 1223              	.LBB95:
 1224              		.loc 1 307 0
 1225 005e 4B16     		se_li %r6,49
 1226 0060 70E0E000 		e_lis %r7,.LANCHOR0@ha
 1227 0064 34C70000 		e_stb %r6,.LANCHOR0@l(%r7)
 1228 0068 0004     		se_blr
 1229              	.LVL87:
 1230              	.L60:
 1231              	.LBE95:
 1232              	.LBE94:
 1233              	.LBB96:
 1234              	.LBB97:
 1235 006a 4936     		se_li %r6,19
 1236 006c 70E0E000 		e_lis %r7,.LANCHOR0@ha
 1237 0070 34C70000 		e_stb %r6,.LANCHOR0@l(%r7)
 1238 0074 0004     		se_blr
 1239              	.LBE97:
 1240              	.LBE96:
 1241              		.cfi_endproc
 1242              	.LFE16:
 1243              		.size	ApplDescProcessClearDiagnosticInformation, .-ApplDescProcessClearDiagnosticInformation
 1244              		.section	.text.ApplDescProcessReadDTCInformation,"axv",@progbits
 1245              		.align 1
 1246              		.p2align 4,,15
 1247              		.type	ApplDescProcessReadDTCInformation, @function
 1248              	ApplDescProcessReadDTCInformation:
 1249              	.LFB15:
 1250              		.loc 1 737 0
 1251              		.cfi_startproc
 1252              	.LVL88:
 1253 0000 182106D8 		e_stwu %r1,-40(%r1)
 1254              	.LCFI10:
GAS LISTING C:\Users\duchu\AppData\Local\Temp\ccJgIM3F.s 			page 23


 1255              		.cfi_def_cfa_offset 40
 1256              	.LVL89:
 1257              		.loc 1 744 0
 1258 0004 C073     		se_lwz %r7,0(%r3)
 1259 0006 31670000 		e_lbz %r11,0(%r7)
 1260 000a 196BC07F 		e_andi %r11,%r11,127
 1261              	.LVL90:
 1262              		.loc 1 745 0
 1263 000e 8107     		se_lbz %r0,1(%r7)
 1264              	.LVL91:
 1265 0010 70A0E000 		e_lis %r5,u32g_Asw_EEPROM_LAST_BUFFER_DTC-4@ha
 1266 0014 1CA50000 		e_la %r5,u32g_Asw_EEPROM_LAST_BUFFER_DTC-4@l(%r5)
 1267 0018 18C18008 		e_addi %r6,%r1,8
 1268 001c 4884     		se_li %r4,8
 1269 001e 00B4     		se_mtctr %r4
 1270              	.LVL92:
 1271              	.L66:
 1272              		.loc 1 749 0 discriminator 3
 1273 0020 18E50204 		e_lwzu %r7,4(%r5)
 1274 0024 9076     		se_stb %r7,0(%r6)
 1275              		.loc 1 750 0 discriminator 3
 1276 0026 74E4C63F 		e_rlwinm %r4,%r7,24,24,31
 1277 002a 9146     		se_stb %r4,1(%r6)
 1278              		.loc 1 751 0 discriminator 3
 1279 002c 74E4863F 		e_rlwinm %r4,%r7,16,24,31
 1280 0030 9246     		se_stb %r4,2(%r6)
 1281              		.loc 1 752 0 discriminator 3
 1282 0032 6987     		se_srwi %r7,24
 1283 0034 9376     		se_stb %r7,3(%r6)
 1284 0036 2036     		se_addi %r6,4
 1285              		.loc 1 747 0 discriminator 3
 1286 0038 7A20FFE8 		e_bdnz .L66
 1287              		.loc 1 755 0
 1288 003c 700BA801 		e_cmpl16i %r11,1
 1289 0040 7A120010 		e_beq %cr0,.L68
 1290 0044 700BA802 		e_cmpl16i %r11,2
 1291 0048 7A120062 		e_beq %cr0,.L69
 1292 004c 780000F2 		e_b .L80
 1293              	.L68:
 1294              		.loc 1 758 0
 1295 0050 A273     		se_lhz %r7,4(%r3)
 1296 0052 2217     		se_cmpli %r7,2
 1297 0054 7A110048 		e_bgt %cr0,.L70
 1298 0058 18A18007 		e_addi %r5,%r1,7
 1299 005c 4806     		se_li %r6,0
 1300 005e 4947     		se_li %r7,20
 1301 0060 00B7     		se_mtctr %r7
 1302              	.LVL93:
 1303              	.L72:
 1304              		.loc 1 762 0
 1305 0062 18E50001 		e_lbzu %r7,1(%r5)
 1306              	.LVL94:
 1307 0066 7C043839 		and. %r4,%r0,%r7
 1308 006a 7A120008 		e_beq %cr0,.L71
 1309              		.loc 1 764 0
 1310 006e 2006     		se_addi %r6,1
 1311              	.LVL95:
GAS LISTING C:\Users\duchu\AppData\Local\Temp\ccJgIM3F.s 			page 24


 1312 0070 00E6     		se_extzh %r6
 1313              	.LVL96:
 1314              	.L71:
 1315              		.loc 1 760 0 discriminator 2
 1316 0072 7A20FFF0 		e_bdnz .L72
 1317              		.loc 1 768 0
 1318 0076 C273     		se_lwz %r7,8(%r3)
 1319 0078 4815     		se_li %r5,1
 1320              	.LVL97:
 1321 007a 9057     		se_stb %r5,0(%r7)
 1322              	.LVL98:
 1323              		.loc 1 769 0
 1324 007c C273     		se_lwz %r7,8(%r3)
 1325 007e 4895     		se_li %r5,9
 1326 0080 9157     		se_stb %r5,1(%r7)
 1327              		.loc 1 770 0
 1328 0082 C273     		se_lwz %r7,8(%r3)
 1329 0084 4805     		se_li %r5,0
 1330 0086 9257     		se_stb %r5,2(%r7)
 1331              		.loc 1 771 0
 1332 0088 C273     		se_lwz %r7,8(%r3)
 1333 008a 7CC54470 		e_srwi %r5,%r6,8
 1334 008e 9357     		se_stb %r5,3(%r7)
 1335              		.loc 1 772 0
 1336 0090 C273     		se_lwz %r7,8(%r3)
 1337 0092 9467     		se_stb %r6,4(%r7)
 1338              		.loc 1 774 0
 1339 0094 4857     		se_li %r7,5
 1340 0096 B673     		se_sth %r7,12(%r3)
 1341 0098 780000B0 		e_b .L65
 1342              	.LVL99:
 1343              	.L70:
 1344              	.LBB104:
 1345              	.LBB105:
 1346              		.loc 1 307 0
 1347 009c 4936     		se_li %r6,19
 1348 009e 70E0E000 		e_lis %r7,.LANCHOR0@ha
 1349 00a2 34C70000 		e_stb %r6,.LANCHOR0@l(%r7)
 1350 00a6 780000A2 		e_b .L65
 1351              	.LVL100:
 1352              	.L69:
 1353              	.LBE105:
 1354              	.LBE104:
 1355              		.loc 1 782 0
 1356 00aa A273     		se_lhz %r7,4(%r3)
 1357 00ac 2217     		se_cmpli %r7,2
 1358 00ae 7A110082 		e_bgt %cr0,.L74
 1359              		.loc 1 784 0
 1360 00b2 C273     		se_lwz %r7,8(%r3)
 1361 00b4 4826     		se_li %r6,2
 1362 00b6 9067     		se_stb %r6,0(%r7)
 1363              	.LVL101:
 1364              		.loc 1 785 0
 1365 00b8 C273     		se_lwz %r7,8(%r3)
 1366 00ba 4896     		se_li %r6,9
 1367 00bc 9167     		se_stb %r6,1(%r7)
 1368              	.LVL102:
GAS LISTING C:\Users\duchu\AppData\Local\Temp\ccJgIM3F.s 			page 25


 1369 00be 4807     		se_li %r7,0
 1370              		.loc 1 742 0
 1371 00c0 4806     		se_li %r6,0
 1372              		.loc 1 791 0
 1373 00c2 71800059 		e_li %r12,89
 1374              		.loc 1 792 0
 1375 00c6 71000012 		e_li %r8,18
 1376              		.loc 1 793 0
 1377 00ca 7140E000 		e_lis %r10,u8g_Asw_DTC_CODE_Array@ha
 1378 00ce 1D4A0000 		e_la %r10,u8g_Asw_DTC_CODE_Array@l(%r10)
 1379 00d2 4945     		se_li %r5,20
 1380 00d4 00B5     		se_mtctr %r5
 1381              	.LVL103:
 1382              	.L76:
 1383              		.loc 1 789 0
 1384 00d6 18A18008 		e_addi %r5,%r1,8
 1385 00da 7CA538AE 		lbzx %r5,%r5,%r7
 1386 00de 7CA40039 		and. %r4,%r5,%r0
 1387 00e2 7A12003E 		e_beq %cr0,.L75
 1388              		.loc 1 791 0
 1389 00e6 7CC41070 		e_slwi %r4,%r6,2
 1390 00ea 51630008 		e_lwz %r11,8(%r3)
 1391 00ee 7D6B2214 		add %r11,%r11,%r4
 1392 00f2 358B0002 		e_stb %r12,2(%r11)
 1393              		.loc 1 792 0
 1394 00f6 51630008 		e_lwz %r11,8(%r3)
 1395 00fa 7D6B2214 		add %r11,%r11,%r4
 1396 00fe 350B0003 		e_stb %r8,3(%r11)
 1397              		.loc 1 793 0
 1398 0102 51630008 		e_lwz %r11,8(%r3)
 1399 0106 7D6B2214 		add %r11,%r11,%r4
 1400 010a 7D2A38AE 		lbzx %r9,%r10,%r7
 1401 010e 352B0004 		e_stb %r9,4(%r11)
 1402              		.loc 1 794 0
 1403 0112 51630008 		e_lwz %r11,8(%r3)
 1404 0116 7C8B2214 		add %r4,%r11,%r4
 1405 011a 9554     		se_stb %r5,5(%r4)
 1406              		.loc 1 796 0
 1407 011c 2006     		se_addi %r6,1
 1408              	.LVL104:
 1409 011e 00E6     		se_extzh %r6
 1410              	.LVL105:
 1411              	.L75:
 1412 0120 2007     		se_addi %r7,1
 1413              	.LVL106:
 1414              		.loc 1 787 0 discriminator 2
 1415 0122 7A20FFB4 		e_bdnz .L76
 1416              		.loc 1 800 0
 1417 0126 6C26     		se_slwi %r6, 2
 1418              	.LVL107:
 1419 0128 2016     		se_addi %r6,2
 1420 012a B663     		se_sth %r6,12(%r3)
 1421 012c 7800001C 		e_b .L65
 1422              	.LVL108:
 1423              	.L74:
 1424              	.LBB106:
 1425              	.LBB107:
GAS LISTING C:\Users\duchu\AppData\Local\Temp\ccJgIM3F.s 			page 26


 1426              		.loc 1 307 0
 1427 0130 4936     		se_li %r6,19
 1428 0132 70E0E000 		e_lis %r7,.LANCHOR0@ha
 1429 0136 34C70000 		e_stb %r6,.LANCHOR0@l(%r7)
 1430 013a 7800000E 		e_b .L65
 1431              	.LVL109:
 1432              	.L80:
 1433              	.LBE107:
 1434              	.LBE106:
 1435              	.LBB108:
 1436              	.LBB109:
 1437 013e 4926     		se_li %r6,18
 1438 0140 70E0E000 		e_lis %r7,.LANCHOR0@ha
 1439 0144 34C70000 		e_stb %r6,.LANCHOR0@l(%r7)
 1440              	.LVL110:
 1441              	.L65:
 1442              	.LBE109:
 1443              	.LBE108:
 1444              		.loc 1 813 0
 1445 0148 18218028 		e_addi %r1,%r1,40
 1446              	.LCFI11:
 1447              		.cfi_def_cfa_offset 0
 1448 014c 0004     		se_blr
 1449              		.cfi_endproc
 1450              	.LFE15:
 1451              		.size	ApplDescProcessReadDTCInformation, .-ApplDescProcessReadDTCInformation
 1452              		.section	.text.ApplDescProcessControlDTCSetting,"axv",@progbits
 1453              		.align 1
 1454              		.p2align 4,,15
 1455              		.type	ApplDescProcessControlDTCSetting, @function
 1456              	ApplDescProcessControlDTCSetting:
 1457              	.LFB14:
 1458              		.loc 1 681 0
 1459              		.cfi_startproc
 1460              	.LVL111:
 1461              		.loc 1 684 0
 1462 0000 70E0E000 		e_lis %r7,.LANCHOR1@ha
 1463 0004 30E70000 		e_lbz %r7,.LANCHOR1@l(%r7)
 1464 0008 2A37     		se_cmpi %r7,3
 1465 000a 7A02007A 		e_bne %cr0,.L82
 1466              	.LVL112:
 1467              		.loc 1 686 0
 1468 000e C073     		se_lwz %r7,0(%r3)
 1469 0010 8077     		se_lbz %r7,0(%r7)
 1470              		.loc 1 688 0
 1471 0012 18E7C07F 		e_andi %r7,%r7,127
 1472 0016 2A17     		se_cmpi %r7,1
 1473 0018 7A12000E 		e_beq %cr0,.L84
 1474 001c 2A27     		se_cmpi %r7,2
 1475 001e 7A120032 		e_beq %cr0,.L85
 1476 0022 78000056 		e_b .L89
 1477              	.L84:
 1478              		.loc 1 691 0
 1479 0026 A273     		se_lhz %r7,4(%r3)
 1480 0028 2207     		se_cmpli %r7,1
 1481 002a 7A11001A 		e_bgt %cr0,.L86
 1482              		.loc 1 693 0
GAS LISTING C:\Users\duchu\AppData\Local\Temp\ccJgIM3F.s 			page 27


 1483 002e C273     		se_lwz %r7,8(%r3)
 1484 0030 4816     		se_li %r6,1
 1485 0032 9067     		se_stb %r6,0(%r7)
 1486              	.LVL113:
 1487              		.loc 1 694 0
 1488 0034 4817     		se_li %r7,1
 1489 0036 B673     		se_sth %r7,12(%r3)
 1490              		.loc 1 696 0
 1491 0038 4806     		se_li %r6,0
 1492 003a 70E0E000 		e_lis %r7,.LANCHOR6@ha
 1493 003e 34C70000 		e_stb %r6,.LANCHOR6@l(%r7)
 1494 0042 0004     		se_blr
 1495              	.LVL114:
 1496              	.L86:
 1497              	.LBB118:
 1498              	.LBB119:
 1499              		.loc 1 307 0
 1500 0044 4936     		se_li %r6,19
 1501 0046 70E0E000 		e_lis %r7,.LANCHOR0@ha
 1502 004a 34C70000 		e_stb %r6,.LANCHOR0@l(%r7)
 1503 004e 0004     		se_blr
 1504              	.LVL115:
 1505              	.L85:
 1506              	.LBE119:
 1507              	.LBE118:
 1508              		.loc 1 704 0
 1509 0050 A273     		se_lhz %r7,4(%r3)
 1510 0052 2207     		se_cmpli %r7,1
 1511 0054 7A110018 		e_bgt %cr0,.L88
 1512              		.loc 1 706 0
 1513 0058 C273     		se_lwz %r7,8(%r3)
 1514 005a 4826     		se_li %r6,2
 1515 005c 9067     		se_stb %r6,0(%r7)
 1516              	.LVL116:
 1517              		.loc 1 707 0
 1518 005e 4817     		se_li %r7,1
 1519 0060 B673     		se_sth %r7,12(%r3)
 1520              		.loc 1 709 0
 1521 0062 70C0E000 		e_lis %r6,.LANCHOR6@ha
 1522 0066 34E60000 		e_stb %r7,.LANCHOR6@l(%r6)
 1523 006a 0004     		se_blr
 1524              	.LVL117:
 1525              	.L88:
 1526              	.LBB120:
 1527              	.LBB121:
 1528              		.loc 1 307 0
 1529 006c 4936     		se_li %r6,19
 1530 006e 70E0E000 		e_lis %r7,.LANCHOR0@ha
 1531 0072 34C70000 		e_stb %r6,.LANCHOR0@l(%r7)
 1532 0076 0004     		se_blr
 1533              	.LVL118:
 1534              	.L89:
 1535              	.LBE121:
 1536              	.LBE120:
 1537              	.LBB122:
 1538              	.LBB123:
 1539 0078 4926     		se_li %r6,18
GAS LISTING C:\Users\duchu\AppData\Local\Temp\ccJgIM3F.s 			page 28


 1540 007a 70E0E000 		e_lis %r7,.LANCHOR0@ha
 1541 007e 34C70000 		e_stb %r6,.LANCHOR0@l(%r7)
 1542 0082 0004     		se_blr
 1543              	.LVL119:
 1544              	.L82:
 1545              	.LBE123:
 1546              	.LBE122:
 1547              	.LBB124:
 1548              	.LBB125:
 1549 0084 4A26     		se_li %r6,34
 1550 0086 70E0E000 		e_lis %r7,.LANCHOR0@ha
 1551 008a 34C70000 		e_stb %r6,.LANCHOR0@l(%r7)
 1552 008e 0004     		se_blr
 1553              	.LBE125:
 1554              	.LBE124:
 1555              		.cfi_endproc
 1556              	.LFE14:
 1557              		.size	ApplDescProcessControlDTCSetting, .-ApplDescProcessControlDTCSetting
 1558              		.section	.text.ApplDescProcessTesterPresent,"axv",@progbits
 1559              		.align 1
 1560              		.p2align 4,,15
 1561              		.type	ApplDescProcessTesterPresent, @function
 1562              	ApplDescProcessTesterPresent:
 1563              	.LFB13:
 1564              		.loc 1 647 0
 1565              		.cfi_startproc
 1566              	.LVL120:
 1567              		.loc 1 650 0
 1568 0000 C073     		se_lwz %r7,0(%r3)
 1569 0002 8077     		se_lbz %r7,0(%r7)
 1570              		.loc 1 652 0
 1571 0004 18E7C07F 		e_andi %r7,%r7,127
 1572 0008 2A07     		se_cmpi %r7,0
 1573 000a 7A020024 		e_bne %cr0,.L95
 1574              		.loc 1 655 0
 1575 000e A273     		se_lhz %r7,4(%r3)
 1576 0010 2207     		se_cmpli %r7,1
 1577 0012 7A110010 		e_bgt %cr0,.L93
 1578              		.loc 1 657 0
 1579 0016 C273     		se_lwz %r7,8(%r3)
 1580 0018 4806     		se_li %r6,0
 1581 001a 9067     		se_stb %r6,0(%r7)
 1582              	.LVL121:
 1583              		.loc 1 658 0
 1584 001c 4817     		se_li %r7,1
 1585 001e B673     		se_sth %r7,12(%r3)
 1586 0020 0004     		se_blr
 1587              	.LVL122:
 1588              	.L93:
 1589              	.LBB130:
 1590              	.LBB131:
 1591              		.loc 1 307 0
 1592 0022 4936     		se_li %r6,19
 1593 0024 70E0E000 		e_lis %r7,.LANCHOR0@ha
 1594 0028 34C70000 		e_stb %r6,.LANCHOR0@l(%r7)
 1595 002c 0004     		se_blr
 1596              	.LVL123:
GAS LISTING C:\Users\duchu\AppData\Local\Temp\ccJgIM3F.s 			page 29


 1597              	.L95:
 1598              	.LBE131:
 1599              	.LBE130:
 1600              	.LBB132:
 1601              	.LBB133:
 1602 002e 4926     		se_li %r6,18
 1603 0030 70E0E000 		e_lis %r7,.LANCHOR0@ha
 1604 0034 34C70000 		e_stb %r6,.LANCHOR0@l(%r7)
 1605 0038 0004     		se_blr
 1606              	.LBE133:
 1607              	.LBE132:
 1608              		.cfi_endproc
 1609              	.LFE13:
 1610              		.size	ApplDescProcessTesterPresent, .-ApplDescProcessTesterPresent
 1611              		.section	.text.ApplDescProcessCommunicatonControl,"axv",@progbits
 1612              		.align 1
 1613              		.p2align 4,,15
 1614              		.type	ApplDescProcessCommunicatonControl, @function
 1615              	ApplDescProcessCommunicatonControl:
 1616              	.LFB12:
 1617              		.loc 1 561 0
 1618              		.cfi_startproc
 1619              	.LVL124:
 1620              		.loc 1 564 0
 1621 0000 70E0E000 		e_lis %r7,.LANCHOR1@ha
 1622 0004 30E70000 		e_lbz %r7,.LANCHOR1@l(%r7)
 1623 0008 2A37     		se_cmpi %r7,3
 1624 000a 7A0200FA 		e_bne %cr0,.L97
 1625              	.LVL125:
 1626              		.loc 1 566 0
 1627 000e C073     		se_lwz %r7,0(%r3)
 1628 0010 8077     		se_lbz %r7,0(%r7)
 1629 0012 18E7C07F 		e_andi %r7,%r7,127
 1630              		.loc 1 568 0
 1631 0016 74E6063F 		e_rlwinm %r6,%r7,0,0xff
 1632 001a 2226     		se_cmpli %r6,3
 1633 001c 7A1100DC 		e_bgt %cr0,.L98
 1634 0020 70C0E000 		e_lis %r6,.L100@ha
 1635 0024 1CC60000 		e_la %r6,.L100@l(%r6)
 1636 0028 6C27     		se_slwi %r7, 2
 1637 002a 7CE6382E 		lwzx %r7,%r6,%r7
 1638 002e 7CC73214 		add %r6,%r7,%r6
 1639 0032 00B6     		se_mtctr %r6
 1640 0034 0006     		se_bctr
 1641              		.section	.rodata.ApplDescProcessCommunicatonControl,"a",@progbits
 1642              		.align 2
 1643              		.align 2
 1644              	.L100:
 1645 0000 00000000 		.long .L99-.L100
 1646 0004 00000000 		.long .L101-.L100
 1647 0008 00000000 		.long .L102-.L100
 1648 000c 00000000 		.long .L103-.L100
 1649              		.section	.text.ApplDescProcessCommunicatonControl
 1650              	.L99:
 1651              		.loc 1 571 0
 1652 0036 A273     		se_lhz %r7,4(%r3)
 1653 0038 2217     		se_cmpli %r7,2
GAS LISTING C:\Users\duchu\AppData\Local\Temp\ccJgIM3F.s 			page 30


 1654 003a 7A110020 		e_bgt %cr0,.L104
 1655              		.loc 1 573 0
 1656 003e C263     		se_lwz %r6,8(%r3)
 1657 0040 4807     		se_li %r7,0
 1658 0042 9076     		se_stb %r7,0(%r6)
 1659              	.LVL126:
 1660              		.loc 1 574 0
 1661 0044 4816     		se_li %r6,1
 1662 0046 B663     		se_sth %r6,12(%r3)
 1663              		.loc 1 576 0
 1664 0048 70C0E000 		e_lis %r6,.LANCHOR4@ha
 1665 004c 34E60000 		e_stb %r7,.LANCHOR4@l(%r6)
 1666              		.loc 1 577 0
 1667 0050 70C0E000 		e_lis %r6,.LANCHOR5@ha
 1668 0054 34E60000 		e_stb %r7,.LANCHOR5@l(%r6)
 1669 0058 0004     		se_blr
 1670              	.LVL127:
 1671              	.L104:
 1672              	.LBB146:
 1673              	.LBB147:
 1674              		.loc 1 307 0
 1675 005a 4936     		se_li %r6,19
 1676 005c 70E0E000 		e_lis %r7,.LANCHOR0@ha
 1677 0060 34C70000 		e_stb %r6,.LANCHOR0@l(%r7)
 1678 0064 0004     		se_blr
 1679              	.LVL128:
 1680              	.L101:
 1681              	.LBE147:
 1682              	.LBE146:
 1683              		.loc 1 585 0
 1684 0066 A273     		se_lhz %r7,4(%r3)
 1685 0068 2217     		se_cmpli %r7,2
 1686 006a 7A110020 		e_bgt %cr0,.L106
 1687              		.loc 1 587 0
 1688 006e C263     		se_lwz %r6,8(%r3)
 1689 0070 4807     		se_li %r7,0
 1690 0072 9076     		se_stb %r7,0(%r6)
 1691              	.LVL129:
 1692              		.loc 1 588 0
 1693 0074 4816     		se_li %r6,1
 1694 0076 B663     		se_sth %r6,12(%r3)
 1695              		.loc 1 590 0
 1696 0078 70A0E000 		e_lis %r5,.LANCHOR4@ha
 1697 007c 34C50000 		e_stb %r6,.LANCHOR4@l(%r5)
 1698              		.loc 1 591 0
 1699 0080 70C0E000 		e_lis %r6,.LANCHOR5@ha
 1700 0084 34E60000 		e_stb %r7,.LANCHOR5@l(%r6)
 1701 0088 0004     		se_blr
 1702              	.LVL130:
 1703              	.L106:
 1704              	.LBB148:
 1705              	.LBB149:
 1706              		.loc 1 307 0
 1707 008a 4936     		se_li %r6,19
 1708 008c 70E0E000 		e_lis %r7,.LANCHOR0@ha
 1709 0090 34C70000 		e_stb %r6,.LANCHOR0@l(%r7)
 1710 0094 0004     		se_blr
GAS LISTING C:\Users\duchu\AppData\Local\Temp\ccJgIM3F.s 			page 31


 1711              	.LVL131:
 1712              	.L102:
 1713              	.LBE149:
 1714              	.LBE148:
 1715              		.loc 1 599 0
 1716 0096 A273     		se_lhz %r7,4(%r3)
 1717 0098 2217     		se_cmpli %r7,2
 1718 009a 7A110020 		e_bgt %cr0,.L107
 1719              		.loc 1 601 0
 1720 009e C273     		se_lwz %r7,8(%r3)
 1721 00a0 4806     		se_li %r6,0
 1722 00a2 9067     		se_stb %r6,0(%r7)
 1723              	.LVL132:
 1724              		.loc 1 602 0
 1725 00a4 4817     		se_li %r7,1
 1726 00a6 B673     		se_sth %r7,12(%r3)
 1727              		.loc 1 604 0
 1728 00a8 70A0E000 		e_lis %r5,.LANCHOR4@ha
 1729 00ac 34C50000 		e_stb %r6,.LANCHOR4@l(%r5)
 1730              		.loc 1 605 0
 1731 00b0 70C0E000 		e_lis %r6,.LANCHOR5@ha
 1732 00b4 34E60000 		e_stb %r7,.LANCHOR5@l(%r6)
 1733 00b8 0004     		se_blr
 1734              	.LVL133:
 1735              	.L107:
 1736              	.LBB150:
 1737              	.LBB151:
 1738              		.loc 1 307 0
 1739 00ba 4936     		se_li %r6,19
 1740 00bc 70E0E000 		e_lis %r7,.LANCHOR0@ha
 1741 00c0 34C70000 		e_stb %r6,.LANCHOR0@l(%r7)
 1742 00c4 0004     		se_blr
 1743              	.LVL134:
 1744              	.L103:
 1745              	.LBE151:
 1746              	.LBE150:
 1747              		.loc 1 613 0
 1748 00c6 A273     		se_lhz %r7,4(%r3)
 1749 00c8 2217     		se_cmpli %r7,2
 1750 00ca 7A110022 		e_bgt %cr0,.L108
 1751              		.loc 1 615 0
 1752 00ce C273     		se_lwz %r7,8(%r3)
 1753 00d0 4836     		se_li %r6,3
 1754 00d2 9067     		se_stb %r6,0(%r7)
 1755              	.LVL135:
 1756              		.loc 1 616 0
 1757 00d4 4817     		se_li %r7,1
 1758 00d6 B673     		se_sth %r7,12(%r3)
 1759              		.loc 1 618 0
 1760 00d8 70C0E000 		e_lis %r6,.LANCHOR4@ha
 1761 00dc 34E60000 		e_stb %r7,.LANCHOR4@l(%r6)
 1762              		.loc 1 619 0
 1763 00e0 70E0E000 		e_lis %r7,.LANCHOR5@ha
 1764 00e4 4816     		se_li %r6,1
 1765 00e6 34C70000 		e_stb %r6,.LANCHOR5@l(%r7)
 1766 00ea 0004     		se_blr
 1767              	.LVL136:
GAS LISTING C:\Users\duchu\AppData\Local\Temp\ccJgIM3F.s 			page 32


 1768              	.L108:
 1769              	.LBB152:
 1770              	.LBB153:
 1771              		.loc 1 307 0
 1772 00ec 4936     		se_li %r6,19
 1773 00ee 70E0E000 		e_lis %r7,.LANCHOR0@ha
 1774 00f2 34C70000 		e_stb %r6,.LANCHOR0@l(%r7)
 1775 00f6 0004     		se_blr
 1776              	.LVL137:
 1777              	.L98:
 1778              	.LBE153:
 1779              	.LBE152:
 1780              	.LBB154:
 1781              	.LBB155:
 1782 00f8 4926     		se_li %r6,18
 1783 00fa 70E0E000 		e_lis %r7,.LANCHOR0@ha
 1784 00fe 34C70000 		e_stb %r6,.LANCHOR0@l(%r7)
 1785 0102 0004     		se_blr
 1786              	.LVL138:
 1787              	.L97:
 1788              	.LBE155:
 1789              	.LBE154:
 1790              	.LBB156:
 1791              	.LBB157:
 1792 0104 4A26     		se_li %r6,34
 1793 0106 70E0E000 		e_lis %r7,.LANCHOR0@ha
 1794 010a 34C70000 		e_stb %r6,.LANCHOR0@l(%r7)
 1795 010e 0004     		se_blr
 1796              	.LBE157:
 1797              	.LBE156:
 1798              		.cfi_endproc
 1799              	.LFE12:
 1800              		.size	ApplDescProcessCommunicatonControl, .-ApplDescProcessCommunicatonControl
 1801              		.section	.text.ApplDescProcessEcuReset,"axv",@progbits
 1802              		.align 1
 1803              		.p2align 4,,15
 1804              		.type	ApplDescProcessEcuReset, @function
 1805              	ApplDescProcessEcuReset:
 1806              	.LFB10:
 1807              		.loc 1 424 0
 1808              		.cfi_startproc
 1809              	.LVL139:
 1810              		.loc 1 427 0
 1811 0000 C073     		se_lwz %r7,0(%r3)
 1812 0002 8077     		se_lbz %r7,0(%r7)
 1813              		.loc 1 429 0
 1814 0004 18E7C07F 		e_andi %r7,%r7,127
 1815 0008 2A17     		se_cmpi %r7,1
 1816 000a 7A02002C 		e_bne %cr0,.L114
 1817              		.loc 1 432 0
 1818 000e A273     		se_lhz %r7,4(%r3)
 1819 0010 2207     		se_cmpli %r7,1
 1820 0012 7A110018 		e_bgt %cr0,.L112
 1821              		.loc 1 434 0
 1822 0016 C273     		se_lwz %r7,8(%r3)
 1823 0018 4816     		se_li %r6,1
 1824 001a 9067     		se_stb %r6,0(%r7)
GAS LISTING C:\Users\duchu\AppData\Local\Temp\ccJgIM3F.s 			page 33


 1825              	.LVL140:
 1826              		.loc 1 435 0
 1827 001c 4817     		se_li %r7,1
 1828 001e B673     		se_sth %r7,12(%r3)
 1829              		.loc 1 436 0
 1830 0020 70C0E000 		e_lis %r6,.LANCHOR7@ha
 1831 0024 34E60000 		e_stb %r7,.LANCHOR7@l(%r6)
 1832 0028 0004     		se_blr
 1833              	.LVL141:
 1834              	.L112:
 1835              	.LBB162:
 1836              	.LBB163:
 1837              		.loc 1 307 0
 1838 002a 4936     		se_li %r6,19
 1839 002c 70E0E000 		e_lis %r7,.LANCHOR0@ha
 1840 0030 34C70000 		e_stb %r6,.LANCHOR0@l(%r7)
 1841 0034 0004     		se_blr
 1842              	.LVL142:
 1843              	.L114:
 1844              	.LBE163:
 1845              	.LBE162:
 1846              	.LBB164:
 1847              	.LBB165:
 1848 0036 4926     		se_li %r6,18
 1849 0038 70E0E000 		e_lis %r7,.LANCHOR0@ha
 1850 003c 34C70000 		e_stb %r6,.LANCHOR0@l(%r7)
 1851 0040 0004     		se_blr
 1852              	.LBE165:
 1853              	.LBE164:
 1854              		.cfi_endproc
 1855              	.LFE10:
 1856              		.size	ApplDescProcessEcuReset, .-ApplDescProcessEcuReset
 1857              		.section	.text.Uds_Func_Init,"axv",@progbits
 1858              		.align 1
 1859              		.p2align 4,,15
 1860              		.globl Uds_Func_Init
 1861              		.type	Uds_Func_Init, @function
 1862              	Uds_Func_Init:
 1863              	.LFB4:
 1864              		.loc 1 109 0
 1865              		.cfi_startproc
 1866              		.loc 1 110 0
 1867 0000 4807     		se_li %r7,0
 1868 0002 70C0E000 		e_lis %r6,.LANCHOR4@ha
 1869 0006 34E60000 		e_stb %r7,.LANCHOR4@l(%r6)
 1870              		.loc 1 111 0
 1871 000a 70C0E000 		e_lis %r6,.LANCHOR5@ha
 1872 000e 34E60000 		e_stb %r7,.LANCHOR5@l(%r6)
 1873              		.loc 1 112 0
 1874 0012 70C0E000 		e_lis %r6,.LANCHOR6@ha
 1875 0016 34E60000 		e_stb %r7,.LANCHOR6@l(%r6)
 1876              		.loc 1 113 0
 1877 001a 70C0E000 		e_lis %r6,.LANCHOR0@ha
 1878 001e 34E60000 		e_stb %r7,.LANCHOR0@l(%r6)
 1879              		.loc 1 114 0
 1880 0022 4815     		se_li %r5,1
 1881 0024 70C0E000 		e_lis %r6,.LANCHOR1@ha
GAS LISTING C:\Users\duchu\AppData\Local\Temp\ccJgIM3F.s 			page 34


 1882 0028 34A60000 		e_stb %r5,.LANCHOR1@l(%r6)
 1883              		.loc 1 115 0
 1884 002c 70C0E000 		e_lis %r6,.LANCHOR2@ha
 1885 0030 34E60000 		e_stb %r7,.LANCHOR2@l(%r6)
 1886              		.loc 1 116 0
 1887 0034 70C0E000 		e_lis %r6,.LANCHOR3@ha
 1888 0038 34E60000 		e_stb %r7,.LANCHOR3@l(%r6)
 1889              		.loc 1 117 0
 1890 003c 4806     		se_li %r6,0
 1891 003e 70E0E000 		e_lis %r7,.LANCHOR10@ha
 1892 0042 5CC70000 		e_sth %r6,.LANCHOR10@l(%r7)
 1893 0046 0004     		se_blr
 1894              		.cfi_endproc
 1895              	.LFE4:
 1896              		.size	Uds_Func_Init, .-Uds_Func_Init
 1897              		.section	.text.Uds_Func,"axv",@progbits
 1898              		.align 1
 1899              		.p2align 4,,15
 1900              		.globl Uds_Func
 1901              		.type	Uds_Func, @function
 1902              	Uds_Func:
 1903              	.LFB5:
 1904              		.loc 1 130 0
 1905              		.cfi_startproc
 1906 0000 182106E0 		e_stwu %r1,-32(%r1)
 1907              	.LCFI12:
 1908              		.cfi_def_cfa_offset 32
 1909 0004 0080     		se_mflr %r0
 1910 0006 D901     		se_stw %r0,36(%r1)
 1911 0008 1BC10918 		e_stmw %r30,24(%r1)
 1912              		.cfi_offset 65, 4
 1913              		.cfi_offset 30, -8
 1914              		.cfi_offset 31, -4
 1915              		.loc 1 150 0
 1916 000c 4807     		se_li %r7,0
 1917 000e 9871     		se_stb %r7,8(%r1)
 1918              		.loc 1 152 0
 1919 0010 9971     		se_stb %r7,9(%r1)
 1920              		.loc 1 153 0
 1921 0012 9A71     		se_stb %r7,10(%r1)
 1922              		.loc 1 155 0
 1923 0014 70E0E000 		e_lis %r7,.LANCHOR1@ha
 1924 0018 30E70000 		e_lbz %r7,.LANCHOR1@l(%r7)
 1925 001c 2A17     		se_cmpi %r7,1
 1926 001e 7A120042 		e_beq %cr0,.L117
 1927              		.loc 1 157 0
 1928 0022 70E0E000 		e_lis %r7,.LANCHOR10@ha
 1929 0026 58E70000 		e_lhz %r7,.LANCHOR10@l(%r7)
 1930 002a 7047AB87 		e_cmpl16i %r7,4999
 1931 002e 7A010028 		e_ble %cr0,.L118
 1932              		.loc 1 159 0
 1933 0032 70E0E000 		e_lis %r7,g_can_RxData_REQUEST@ha
 1934 0036 1CE70000 		e_la %r7,g_can_RxData_REQUEST@l(%r7)
 1935 003a 4826     		se_li %r6,2
 1936 003c 9867     		se_stb %r6,8(%r7)
 1937              		.loc 1 160 0
 1938 003e 4906     		se_li %r6,16
GAS LISTING C:\Users\duchu\AppData\Local\Temp\ccJgIM3F.s 			page 35


 1939 0040 9967     		se_stb %r6,9(%r7)
 1940              		.loc 1 161 0
 1941 0042 4816     		se_li %r6,1
 1942 0044 9A67     		se_stb %r6,10(%r7)
 1943              		.loc 1 162 0
 1944 0046 4D56     		se_li %r6,85
 1945 0048 9B67     		se_stb %r6,11(%r7)
 1946              		.loc 1 163 0
 1947 004a 9C67     		se_stb %r6,12(%r7)
 1948              		.loc 1 164 0
 1949 004c 9D67     		se_stb %r6,13(%r7)
 1950              		.loc 1 165 0
 1951 004e 9E67     		se_stb %r6,14(%r7)
 1952              		.loc 1 166 0
 1953 0050 9F67     		se_stb %r6,15(%r7)
 1954 0052 7800001C 		e_b .L119
 1955              	.L118:
 1956              		.loc 1 171 0
 1957 0056 2007     		se_addi %r7,1
 1958 0058 70C0E000 		e_lis %r6,.LANCHOR10@ha
 1959 005c 5CE60000 		e_sth %r7,.LANCHOR10@l(%r6)
 1960              	.L117:
 1961              		.loc 1 175 0
 1962 0060 70E0E000 		e_lis %r7,u8g_Hal_RecvNewDataforDiag@ha
 1963 0064 30E70000 		e_lbz %r7,u8g_Hal_RecvNewDataforDiag@l(%r7)
 1964 0068 2A17     		se_cmpi %r7,1
 1965 006a 7A020204 		e_bne %cr0,.L116
 1966              	.L119:
 1967              		.loc 1 177 0
 1968 006e 4806     		se_li %r6,0
 1969 0070 70E0E000 		e_lis %r7,u8g_Hal_RecvNewDataforDiag@ha
 1970 0074 34C70000 		e_stb %r6,u8g_Hal_RecvNewDataforDiag@l(%r7)
 1971              		.loc 1 178 0
 1972 0078 4806     		se_li %r6,0
 1973 007a 70E0E000 		e_lis %r7,.LANCHOR10@ha
 1974 007e 5CC70000 		e_sth %r6,.LANCHOR10@l(%r7)
 1975              		.loc 1 180 0
 1976 0082 18618008 		e_addi %r3,%r1,8
 1977 0086 18818009 		e_addi %r4,%r1,9
 1978 008a 18A1800A 		e_addi %r5,%r1,10
 1979 008e 78000001 		e_bl TpRecvProc
 1980              	.LVL143:
 1981 0092 2A03     		se_cmpi %r3,0
 1982 0094 7A120024 		e_beq %cr0,.L121
 1983              		.loc 1 182 0
 1984 0098 4936     		se_li %r6,19
 1985 009a 70E0E000 		e_lis %r7,.LANCHOR0@ha
 1986 009e 34C70000 		e_stb %r6,.LANCHOR0@l(%r7)
 1987              		.loc 1 183 0
 1988 00a2 7060E000 		e_lis %r3,.LANCHOR11@ha
 1989 00a6 1C630000 		e_la %r3,.LANCHOR11@l(%r3)
 1990 00aa 4807     		se_li %r7,0
 1991 00ac 34E30014 		e_stb %r7,20(%r3)
 1992              		.loc 1 184 0
 1993 00b0 78000001 		e_bl UdsSendResponse
 1994              	.LVL144:
 1995 00b4 780001BA 		e_b .L116
GAS LISTING C:\Users\duchu\AppData\Local\Temp\ccJgIM3F.s 			page 36


 1996              	.L121:
 1997              		.loc 1 188 0
 1998 00b8 8871     		se_lbz %r7,8(%r1)
 1999 00ba 2A17     		se_cmpi %r7,1
 2000 00bc 7A0201B2 		e_bne %cr0,.L116
 2001              		.loc 1 188 0 is_stmt 0 discriminator 1
 2002 00c0 8971     		se_lbz %r7,9(%r1)
 2003 00c2 2A07     		se_cmpi %r7,0
 2004 00c4 7A1201AA 		e_beq %cr0,.L116
 2005              		.loc 1 190 0 is_stmt 1
 2006 00c8 18A784FF 		e_addi %r5,%r7,-1
 2007 00cc 70C0E000 		e_lis %r6,.LANCHOR11+4@ha
 2008 00d0 5CA60000 		e_sth %r5,.LANCHOR11+4@l(%r6)
 2009              		.loc 1 192 0
 2010 00d4 2267     		se_cmpli %r7,7
 2011 00d6 7A11001E 		e_bgt %cr0,.L122
 2012              		.loc 1 194 0
 2013 00da 70C0E000 		e_lis %r6,u8g_SingleRxBuf@ha
 2014 00de 1CE60000 		e_la %r7,u8g_SingleRxBuf@l(%r6)
 2015 00e2 30660000 		e_lbz %r3,u8g_SingleRxBuf@l(%r6)
 2016              	.LVL145:
 2017              		.loc 1 195 0
 2018 00e6 2007     		se_addi %r7,1
 2019              	.LVL146:
 2020 00e8 70C0E000 		e_lis %r6,.LANCHOR11@ha
 2021 00ec 54E60000 		e_stw %r7,.LANCHOR11@l(%r6)
 2022 00f0 7800001A 		e_b .L123
 2023              	.LVL147:
 2024              	.L122:
 2025              		.loc 1 199 0
 2026 00f4 70C0E000 		e_lis %r6,u8g_TpRxBuf@ha
 2027 00f8 1CE60000 		e_la %r7,u8g_TpRxBuf@l(%r6)
 2028 00fc 30660000 		e_lbz %r3,u8g_TpRxBuf@l(%r6)
 2029              	.LVL148:
 2030              		.loc 1 200 0
 2031 0100 2007     		se_addi %r7,1
 2032              	.LVL149:
 2033 0102 70C0E000 		e_lis %r6,.LANCHOR11@ha
 2034 0106 54E60000 		e_stw %r7,.LANCHOR11@l(%r6)
 2035              	.LVL150:
 2036              	.L123:
 2037              		.loc 1 202 0
 2038 010a 70E0E000 		e_lis %r7,.LANCHOR11@ha
 2039 010e 1CE70000 		e_la %r7,.LANCHOR11@l(%r7)
 2040 0112 70C0E000 		e_lis %r6,u8g_TpTxBuf+1@ha
 2041 0116 1CC60000 		e_la %r6,u8g_TpTxBuf+1@l(%r6)
 2042 011a D267     		se_stw %r6,8(%r7)
 2043              		.loc 1 203 0
 2044 011c 8A01     		se_lbz %r0,10(%r1)
 2045 011e 7C063070 		e_slwi %r6,%r0,6
 2046 0122 30A70010 		e_lbz %r5,16(%r7)
 2047 0126 2FF5     		se_andi %r5,31
 2048              		.loc 1 204 0
 2049 0128 4456     		se_or %r6,%r5
 2050 012a 34C70010 		e_stb %r6,16(%r7)
 2051              		.loc 1 206 0
 2052 012e 4806     		se_li %r6,0
GAS LISTING C:\Users\duchu\AppData\Local\Temp\ccJgIM3F.s 			page 37


 2053 0130 70E0E000 		e_lis %r7,.LANCHOR0@ha
 2054 0134 34C70000 		e_stb %r6,.LANCHOR0@l(%r7)
 2055              	.LVL151:
 2056 0138 481E     		se_li %r30,1
 2057 013a 480F     		se_li %r31,0
 2058 013c 4807     		se_li %r7,0
 2059              		.loc 1 210 0
 2060 013e 7080E000 		e_lis %r4,.LANCHOR12@ha
 2061 0142 1C840000 		e_la %r4,.LANCHOR12@l(%r4)
 2062              	.LVL152:
 2063              	.L127:
 2064 0146 7FE51870 		e_slwi %r5,%r31,3
 2065 014a 7CA42A14 		add %r5,%r4,%r5
 2066 014e 8155     		se_lbz %r5,1(%r5)
 2067 0150 0C35     		se_cmp %r5,%r3
 2068 0152 7A020040 		e_bne %cr0,.L124
 2069              		.loc 1 211 0
 2070 0156 7FE61870 		e_slwi %r6,%r31,3
 2071 015a 7CA4302E 		lwzx %r5,%r4,%r6
 2072 015e 74A527BF 		e_rlwinm %r5,%r5,4,30,31
 2073 0162 7C062839 		and. %r6,%r0,%r5
 2074 0166 7A12002C 		e_beq %cr0,.L124
 2075              		.loc 1 213 0
 2076 016a 7FE71870 		e_slwi %r7,%r31,3
 2077              	.LVL153:
 2078 016e 70C0E000 		e_lis %r6,.LANCHOR12@ha
 2079 0172 1CC60000 		e_la %r6,.LANCHOR12@l(%r6)
 2080 0176 7CE63A14 		add %r7,%r6,%r7
 2081 017a C177     		se_lwz %r7,4(%r7)
 2082 017c 7060E000 		e_lis %r3,.LANCHOR11@ha
 2083              	.LVL154:
 2084 0180 1C630000 		e_la %r3,.LANCHOR11@l(%r3)
 2085 0184 00B7     		se_mtctr %r7
 2086 0186 0007     		se_bctrl
 2087              	.LVL155:
 2088              		.loc 1 218 0
 2089 0188 2A0E     		se_cmpi %r30,0
 2090 018a 7A020040 		e_bne %cr0,.L132
 2091 018e 7800001A 		e_b .L125
 2092              	.LVL156:
 2093              	.L124:
 2094              		.loc 1 208 0 discriminator 2
 2095 0192 2007     		se_addi %r7,1
 2096              	.LVL157:
 2097 0194 00C7     		se_extzb %r7
 2098              	.LVL158:
 2099 0196 017F     		se_mr %r31,%r7
 2100 0198 7CE61870 		e_slwi %r6,%r7,3
 2101 019c 7CC4302E 		lwzx %r6,%r4,%r6
 2102 01a0 7CDEF471 		e_srwi. %r30,%r6,30
 2103 01a4 7A02FFA2 		e_bne %cr0,.L127
 2104              	.LVL159:
 2105              	.L125:
 2106              		.loc 1 220 0
 2107 01a8 4916     		se_li %r6,17
 2108 01aa 70E0E000 		e_lis %r7,.LANCHOR0@ha
 2109 01ae 34C70000 		e_stb %r6,.LANCHOR0@l(%r7)
GAS LISTING C:\Users\duchu\AppData\Local\Temp\ccJgIM3F.s 			page 38


 2110              		.loc 1 222 0
 2111 01b2 70E0E000 		e_lis %r7,.LANCHOR11+16@ha
 2112 01b6 50E70000 		e_lwz %r7,.LANCHOR11+16@l(%r7)
 2113 01ba 18E7C3C0 		e_andi %r7,%r7,-1073741824
 2114 01be 1807AB80 		e_cmpi %cr0,%r7,-2147483648
 2115 01c2 7A02004E 		e_bne %cr0,.L129
 2116 01c6 78000034 		e_b .L128
 2117              	.L132:
 2118 01ca 70E0E000 		e_lis %r7,.LANCHOR11+16@ha
 2119 01ce 50E70000 		e_lwz %r7,.LANCHOR11+16@l(%r7)
 2120 01d2 18E7C3C0 		e_andi %r7,%r7,-1073741824
 2121 01d6 1807AB80 		e_cmpi %cr0,%r7,-2147483648
 2122 01da 7A020036 		e_bne %cr0,.L129
 2123              		.loc 1 224 0
 2124 01de 70E0E000 		e_lis %r7,.LANCHOR0@ha
 2125 01e2 30C70000 		e_lbz %r6,.LANCHOR0@l(%r7)
 2126 01e6 18E684EF 		e_addi %r7,%r6,-17
 2127              		.loc 1 223 0
 2128 01ea 00C7     		se_extzb %r7
 2129 01ec 2207     		se_cmpli %r7,1
 2130 01ee 7A01000C 		e_ble %cr0,.L128
 2131              		.loc 1 225 0
 2132 01f2 7006A831 		e_cmpl16i %r6,49
 2133 01f6 7A02001A 		e_bne %cr0,.L129
 2134              	.L128:
 2135              		.loc 1 227 0
 2136 01fa 70E0E000 		e_lis %r7,.LANCHOR11@ha
 2137 01fe 1CE70000 		e_la %r7,.LANCHOR11@l(%r7)
 2138 0202 30C70010 		e_lbz %r6,16(%r7)
 2139 0206 65A6     		se_bseti %r6,26
 2140 0208 34C70010 		e_stb %r6,16(%r7)
 2141 020c 78000048 		e_b .L130
 2142              	.L129:
 2143              		.loc 1 231 0
 2144 0210 6C3F     		se_slwi %r31, 3
 2145 0212 70E0E000 		e_lis %r7,.LANCHOR12@ha
 2146 0216 1CE70000 		e_la %r7,.LANCHOR12@l(%r7)
 2147 021a 7CE7F82E 		lwzx %r7,%r7,%r31
 2148 021e 6647     		se_btsti %r7,4
 2149 0220 7A120034 		e_beq %cr0,.L130
 2150              		.loc 1 233 0
 2151 0224 70E0E000 		e_lis %r7,.LANCHOR11@ha
 2152 0228 50E70000 		e_lwz %r7,.LANCHOR11@l(%r7)
 2153 022c 8077     		se_lbz %r7,0(%r7)
 2154 022e 6787     		se_btsti %r7,24
 2155 0230 7A120024 		e_beq %cr0,.L130
 2156              		.loc 1 234 0
 2157 0234 70E0E000 		e_lis %r7,.LANCHOR0@ha
 2158 0238 30E70000 		e_lbz %r7,.LANCHOR0@l(%r7)
 2159 023c 2A07     		se_cmpi %r7,0
 2160 023e 7A020016 		e_bne %cr0,.L130
 2161              		.loc 1 236 0
 2162 0242 70E0E000 		e_lis %r7,.LANCHOR11@ha
 2163 0246 1CE70000 		e_la %r7,.LANCHOR11@l(%r7)
 2164 024a 30C70010 		e_lbz %r6,16(%r7)
 2165 024e 65A6     		se_bseti %r6,26
 2166 0250 34C70010 		e_stb %r6,16(%r7)
GAS LISTING C:\Users\duchu\AppData\Local\Temp\ccJgIM3F.s 			page 39


 2167              	.L130:
 2168              		.loc 1 241 0
 2169 0254 70E0E000 		e_lis %r7,.LANCHOR11+16@ha
 2170 0258 50E70000 		e_lwz %r7,.LANCHOR11+16@l(%r7)
 2171 025c 6627     		se_btsti %r7,2
 2172 025e 7A020010 		e_bne %cr0,.L116
 2173              		.loc 1 243 0
 2174 0262 7060E000 		e_lis %r3,.LANCHOR11@ha
 2175 0266 1C630000 		e_la %r3,.LANCHOR11@l(%r3)
 2176 026a 78000001 		e_bl UdsSendResponse
 2177              	.LVL160:
 2178              	.L116:
 2179              		.loc 1 250 0
 2180 026e C901     		se_lwz %r0,36(%r1)
 2181 0270 0090     		se_mtlr %r0
 2182              		.cfi_restore 65
 2183 0272 1BC10818 		e_lmw %r30,24(%r1)
 2184 0276 21F1     		se_addi %r1,32
 2185              	.LCFI13:
 2186              		.cfi_restore 31
 2187              		.cfi_restore 30
 2188              		.cfi_def_cfa_offset 0
 2189 0278 0004     		se_blr
 2190              		.cfi_endproc
 2191              	.LFE5:
 2192              		.size	Uds_Func, .-Uds_Func
 2193              		.globl u8g_Eeprom_WriteData
 2194              		.globl u8_DtcControl
 2195              		.globl u8g_CAN_RX_Ctrl
 2196              		.globl u8g_CAN_TX_Ctrl
 2197              		.globl u8g_ReqReset
 2198              		.section	.bss.u8g_CAN_TX_Ctrl,"aw",@nobits
 2199              		.set	.LANCHOR4,. + 0
 2200              		.type	u8g_CAN_TX_Ctrl, @object
 2201              		.size	u8g_CAN_TX_Ctrl, 1
 2202              	u8g_CAN_TX_Ctrl:
 2203 0000 00       		.zero	1
 2204              		.section	.bss.u8g_Eeprom_WriteData,"aw",@nobits
 2205              		.align 2
 2206              		.set	.LANCHOR9,. + 0
 2207              		.type	u8g_Eeprom_WriteData, @object
 2208              		.size	u8g_Eeprom_WriteData, 32
 2209              	u8g_Eeprom_WriteData:
 2210 0000 00000000 		.zero	32
 2210      00000000 
 2210      00000000 
 2210      00000000 
 2210      00000000 
 2211              		.section	.bss.u8g_ReqReset,"aw",@nobits
 2212              		.set	.LANCHOR7,. + 0
 2213              		.type	u8g_ReqReset, @object
 2214              		.size	u8g_ReqReset, 1
 2215              	u8g_ReqReset:
 2216 0000 00       		.zero	1
 2217              		.section	.bss.u8g_CAN_RX_Ctrl,"aw",@nobits
 2218              		.set	.LANCHOR5,. + 0
 2219              		.type	u8g_CAN_RX_Ctrl, @object
GAS LISTING C:\Users\duchu\AppData\Local\Temp\ccJgIM3F.s 			page 40


 2220              		.size	u8g_CAN_RX_Ctrl, 1
 2221              	u8g_CAN_RX_Ctrl:
 2222 0000 00       		.zero	1
 2223              		.section	.bss.u8_DtcControl,"aw",@nobits
 2224              		.set	.LANCHOR6,. + 0
 2225              		.type	u8_DtcControl, @object
 2226              		.size	u8_DtcControl, 1
 2227              	u8_DtcControl:
 2228 0000 00       		.zero	1
 2229              		.section	.bss.u16s_TestPresentTimeout_cnt,"aw",@nobits
 2230              		.align 1
 2231              		.set	.LANCHOR10,. + 0
 2232              		.type	u16s_TestPresentTimeout_cnt, @object
 2233              		.size	u16s_TestPresentTimeout_cnt, 2
 2234              	u16s_TestPresentTimeout_cnt:
 2235 0000 0000     		.zero	2
 2236              		.section	.bss.u8s_Seed.11738,"aw",@nobits
 2237              		.align 2
 2238              		.set	.LANCHOR8,. + 0
 2239              		.type	u8s_Seed.11738, @object
 2240              		.size	u8s_Seed.11738, 4
 2241              	u8s_Seed.11738:
 2242 0000 00000000 		.zero	4
 2243              		.section	.bss.st_MsgContext.11696,"aw",@nobits
 2244              		.align 2
 2245              		.set	.LANCHOR11,. + 0
 2246              		.type	st_MsgContext.11696, @object
 2247              		.size	st_MsgContext.11696, 24
 2248              	st_MsgContext.11696:
 2249 0000 00000000 		.zero	24
 2249      00000000 
 2249      00000000 
 2249      00000000 
 2249      00000000 
 2250              		.section	.bss.u8s_Lockstate,"aw",@nobits
 2251              		.set	.LANCHOR2,. + 0
 2252              		.type	u8s_Lockstate, @object
 2253              		.size	u8s_Lockstate, 1
 2254              	u8s_Lockstate:
 2255 0000 00       		.zero	1
 2256              		.section	.bss.u8s_SecuritySequence,"aw",@nobits
 2257              		.set	.LANCHOR3,. + 0
 2258              		.type	u8s_SecuritySequence, @object
 2259              		.size	u8s_SecuritySequence, 1
 2260              	u8s_SecuritySequence:
 2261 0000 00       		.zero	1
 2262              		.section	.bss.u8s_Session,"aw",@nobits
 2263              		.set	.LANCHOR1,. + 0
 2264              		.type	u8s_Session, @object
 2265              		.size	u8s_Session, 1
 2266              	u8s_Session:
 2267 0000 00       		.zero	1
 2268              		.section	.rodata.sts_DescService.11695,"a",@progbits
 2269              		.align 2
 2270              		.set	.LANCHOR12,. + 0
 2271              		.type	sts_DescService.11695, @object
 2272              		.size	sts_DescService.11695, 88
GAS LISTING C:\Users\duchu\AppData\Local\Temp\ccJgIM3F.s 			page 41


 2273              	sts_DescService.11695:
 2274 0000 78       		.byte	120
 2275 0001 10       		.byte	16
 2276 0002 0000     		.zero	2
 2277 0004 00000000 		.long	ApplDescProcessDiagnosticSessionControl
 2278 0008 58       		.byte	88
 2279 0009 11       		.byte	17
 2280 000a 0000     		.zero	2
 2281 000c 00000000 		.long	ApplDescProcessEcuReset
 2282 0010 58       		.byte	88
 2283 0011 27       		.byte	39
 2284 0012 0000     		.zero	2
 2285 0014 00000000 		.long	ApplDescProcessSecurityAccess
 2286 0018 78       		.byte	120
 2287 0019 28       		.byte	40
 2288 001a 0000     		.zero	2
 2289 001c 00000000 		.long	ApplDescProcessCommunicatonControl
 2290 0020 50       		.byte	80
 2291 0021 2E       		.byte	46
 2292 0022 0000     		.zero	2
 2293 0024 00000000 		.long	ApplDescProcessWriteDataByIdentifier
 2294 0028 78       		.byte	120
 2295 0029 3E       		.byte	62
 2296 002a 0000     		.zero	2
 2297 002c 00000000 		.long	ApplDescProcessTesterPresent
 2298 0030 78       		.byte	120
 2299 0031 85       		.byte	-123
 2300 0032 0000     		.zero	2
 2301 0034 00000000 		.long	ApplDescProcessControlDTCSetting
 2302 0038 58       		.byte	88
 2303 0039 19       		.byte	25
 2304 003a 0000     		.zero	2
 2305 003c 00000000 		.long	ApplDescProcessReadDTCInformation
 2306 0040 50       		.byte	80
 2307 0041 14       		.byte	20
 2308 0042 0000     		.zero	2
 2309 0044 00000000 		.long	ApplDescProcessClearDiagnosticInformation
 2310 0048 50       		.byte	80
 2311 0049 22       		.byte	34
 2312 004a 0000     		.zero	2
 2313 004c 00000000 		.long	ApplDescProcessReadDataByIdentifier
 2314 0050 00       		.byte	0
 2315 0051 FF       		.byte	-1
 2316 0052 0000     		.zero	2
 2317 0054 00000000 		.long	0
 2318              		.section	.bss.u8s_DescNegResCode,"aw",@nobits
 2319              		.set	.LANCHOR0,. + 0
 2320              		.type	u8s_DescNegResCode, @object
 2321              		.size	u8s_DescNegResCode, 1
 2322              	u8s_DescNegResCode:
 2323 0000 00       		.zero	1
 2324              		.section	".text","axv"
 2325              	.Letext0:
 2326              		.file 2 "c:\\spc5studio\\eclipse\\plugins\\com.st.tools.spc5.tools.gnu.gcc.ppcvle.win32_4.9.4.2019
 2327              		.file 3 "c:\\spc5studio\\eclipse\\plugins\\com.st.tools.spc5.tools.gnu.gcc.ppcvle.win32_4.9.4.2019
 2328              		.file 4 "./source/HAL/Hal_Can.h"
 2329              		.file 5 "./source/UDS/Uds_Func.h"
GAS LISTING C:\Users\duchu\AppData\Local\Temp\ccJgIM3F.s 			page 42


 2330              		.file 6 "./source/ASW/Asw_Utility.h"
 2331              		.file 7 "./source/UDS/GpFunc.h"
 2332              		.file 8 "./source/UDS/Tp_Func.h"
 2333              		.file 9 "c:\\spc5studio\\eclipse\\plugins\\com.st.tools.spc5.tools.gnu.gcc.ppcvle.win32_4.9.4.2019
 2334              		.file 10 "./source/HAL/Hal_PIT.h"