Archive member included to satisfy reference by file (symbol)

c:/spc5studio/eclipse/plugins/com.st.tools.spc5.tools.gnu.gcc.ppcvle.win32_4.9.4.20190604105544/toolchain/bin/../lib/gcc/powerpc-eabivle/4.9.4/../../../../powerpc-eabivle/lib\libc.a(lib_a-memset.o)
                              build/obj/Bsw_Eeprom.o (memset)
c:/spc5studio/eclipse/plugins/com.st.tools.spc5.tools.gnu.gcc.ppcvle.win32_4.9.4.20190604105544/toolchain/bin/../lib/gcc/powerpc-eabivle/4.9.4/../../../../powerpc-eabivle/lib\libc.a(lib_a-rand.o)
                              build/obj/Uds_Func.o (srand)
c:/spc5studio/eclipse/plugins/com.st.tools.spc5.tools.gnu.gcc.ppcvle.win32_4.9.4.20190604105544/toolchain/bin/../lib/gcc/powerpc-eabivle/4.9.4/../../../../powerpc-eabivle/lib\libc.a(lib_a-impure.o)
                              c:/spc5studio/eclipse/plugins/com.st.tools.spc5.tools.gnu.gcc.ppcvle.win32_4.9.4.20190604105544/toolchain/bin/../lib/gcc/powerpc-eabivle/4.9.4/../../../../powerpc-eabivle/lib\libc.a(lib_a-rand.o) (_impure_ptr)
./components/flash_driver/lib/src/c55_freegcc.a(SetLock.o)
                              build/obj/eeprom_lld.o (SetLock)
./components/flash_driver/lib/src/c55_freegcc.a(FlashProgram.o)
                              build/obj/eeprom_lld.o (FlashProgram)
./components/flash_driver/lib/src/c55_freegcc.a(FlashInit.o)
                              build/obj/eeprom_lld.o (FlashInit)
./components/flash_driver/lib/src/c55_freegcc.a(FlashErase.o)
                              build/obj/eeprom_lld.o (FlashErase)
./components/flash_driver/lib/src/c55_freegcc.a(FlashCheckStatus.o)
                              build/obj/eeprom_lld.o (FlashCheckStatus)
./components/flash_driver/lib/src/c55_freegcc.a(BlankCheck.o)
                              build/obj/eeprom_lld.o (BlankCheck)
c:/spc5studio/eclipse/plugins/com.st.tools.spc5.tools.gnu.gcc.ppcvle.win32_4.9.4.20190604105544/toolchain/bin/../lib/gcc/powerpc-eabivle/4.9.4\libgcc.a(_ucmpdi2.o)
                              build/obj/eeprom.o (__ucmpdi2)

Discarded input sections

 .text          0x00000000        0x0 build/obj/boot.o
 .data          0x00000000        0x0 build/obj/boot.o
 .bss           0x00000000        0x0 build/obj/boot.o
 .text          0x00000000        0x0 build/obj/crt0.o
 .data          0x00000000        0x0 build/obj/crt0.o
 .bss           0x00000000        0x0 build/obj/crt0.o
 .text          0x00000000        0x0 build/obj/vectors.o
 .data          0x00000000        0x0 build/obj/vectors.o
 .bss           0x00000000        0x0 build/obj/vectors.o
 .text          0x00000000        0x0 build/obj/ivor.o
 .data          0x00000000        0x0 build/obj/ivor.o
 .bss           0x00000000        0x0 build/obj/ivor.o
 .text          0x00000000        0x0 build/obj/eeprom.o
 .data          0x00000000        0x0 build/obj/eeprom.o
 .bss           0x00000000        0x0 build/obj/eeprom.o
 .text.eeprom_remove
                0x00000000       0x7a build/obj/eeprom.o
 .text.eeprom_delete
                0x00000000       0x56 build/obj/eeprom.o
 .text          0x00000000        0x0 build/obj/eeprom_lld.o
 .data          0x00000000        0x0 build/obj/eeprom_lld.o
 .bss           0x00000000        0x0 build/obj/eeprom_lld.o
 .text          0x00000000        0x0 build/obj/spc5_lld.o
 .data          0x00000000        0x0 build/obj/spc5_lld.o
 .bss           0x00000000        0x0 build/obj/spc5_lld.o
 .text          0x00000000        0x0 build/obj/spc5_edma.o
 .data          0x00000000        0x0 build/obj/spc5_edma.o
 .bss           0x00000000        0x0 build/obj/spc5_edma.o
 .text.edmaChannelAllocate
                0x00000000       0x70 build/obj/spc5_edma.o
 .text.edmaChannelRelease
                0x00000000       0x46 build/obj/spc5_edma.o
 .text          0x00000000        0x0 build/obj/pal.o
 .data          0x00000000        0x0 build/obj/pal.o
 .bss           0x00000000        0x0 build/obj/pal.o
 .text._pal_readgroup
                0x00000000        0x4 build/obj/pal.o
 .text._pal_writegroup
                0x00000000        0x2 build/obj/pal.o
 .text._pal_setgroupmode
                0x00000000       0x28 build/obj/pal.o
 .text          0x00000000        0x0 build/obj/clock.o
 .data          0x00000000        0x0 build/obj/clock.o
 .bss           0x00000000        0x0 build/obj/clock.o
 .text.SPCGetSystemClock
                0x00000000       0x98 build/obj/clock.o
 .rodata.SPCGetSystemClock
                0x00000000       0x14 build/obj/clock.o
 .text.SPCGetPeripheralClock
                0x00000000       0x12 build/obj/clock.o
 .text          0x00000000        0x0 build/obj/irq.o
 .data          0x00000000        0x0 build/obj/irq.o
 .bss           0x00000000        0x0 build/obj/irq.o
 .text          0x00000000        0x0 build/obj/eirq.o
 .data          0x00000000        0x0 build/obj/eirq.o
 .bss           0x00000000        0x0 build/obj/eirq.o
 .text          0x00000000        0x0 build/obj/osal.o
 .data          0x00000000        0x0 build/obj/osal.o
 .bss           0x00000000        0x0 build/obj/osal.o
 .text.osalEnterCritical
                0x00000000       0x14 build/obj/osal.o
 .text.osalExitCritical
                0x00000000       0x14 build/obj/osal.o
 .text          0x00000000        0x0 build/obj/systimer.o
 .data          0x00000000        0x0 build/obj/systimer.o
 .bss           0x00000000        0x0 build/obj/systimer.o
 .text.sysTimeSetup
                0x00000000       0x54 build/obj/systimer.o
 .text.sysTimeReset
                0x00000000       0x1a build/obj/systimer.o
 .text          0x00000000        0x0 build/obj/eeprom_cfg.o
 .data          0x00000000        0x0 build/obj/eeprom_cfg.o
 .bss           0x00000000        0x0 build/obj/eeprom_cfg.o
 .text          0x00000000        0x0 build/obj/eeprom_lld_cfg.o
 .data          0x00000000        0x0 build/obj/eeprom_lld_cfg.o
 .bss           0x00000000        0x0 build/obj/eeprom_lld_cfg.o
 .text          0x00000000        0x0 build/obj/board.o
 .data          0x00000000        0x0 build/obj/board.o
 .bss           0x00000000        0x0 build/obj/board.o
 .text          0x00000000        0x0 build/obj/irq_cfg.o
 .data          0x00000000        0x0 build/obj/irq_cfg.o
 .bss           0x00000000        0x0 build/obj/irq_cfg.o
 .text          0x00000000        0x0 build/obj/eirq_cfg.o
 .data          0x00000000        0x0 build/obj/eirq_cfg.o
 .bss           0x00000000        0x0 build/obj/eirq_cfg.o
 .text          0x00000000        0x0 build/obj/main.o
 .data          0x00000000        0x0 build/obj/main.o
 .bss           0x00000000        0x0 build/obj/main.o
 .text          0x00000000        0x0 build/obj/Rte.o
 .data          0x00000000        0x0 build/obj/Rte.o
 .bss           0x00000000        0x0 build/obj/Rte.o
 .text          0x00000000        0x0 build/obj/Bsw_Eeprom.o
 .data          0x00000000        0x0 build/obj/Bsw_Eeprom.o
 .bss           0x00000000        0x0 build/obj/Bsw_Eeprom.o
 .text.EEP_EEPROM_WRITE
                0x00000000       0x60 build/obj/Bsw_Eeprom.o
 .text.EEP_DTC_CLEAR
                0x00000000       0x58 build/obj/Bsw_Eeprom.o
 .text.EEP_CMP_BUFFER
                0x00000000       0x2c build/obj/Bsw_Eeprom.o
 .text          0x00000000        0x0 build/obj/Bsw_Can.o
 .data          0x00000000        0x0 build/obj/Bsw_Can.o
 .bss           0x00000000        0x0 build/obj/Bsw_Can.o
 .text          0x00000000        0x0 build/obj/Bsw_Pwm.o
 .data          0x00000000        0x0 build/obj/Bsw_Pwm.o
 .bss           0x00000000        0x0 build/obj/Bsw_Pwm.o
 .text          0x00000000        0x0 build/obj/Bsw_Adc.o
 .data          0x00000000        0x0 build/obj/Bsw_Adc.o
 .bss           0x00000000        0x0 build/obj/Bsw_Adc.o
 .data.u16_AdcIout
                0x00000000       0x26 build/obj/Bsw_Adc.o
 .data.u16_Iout
                0x00000000       0x26 build/obj/Bsw_Adc.o
 .data.u16_AdcVout
                0x00000000       0x26 build/obj/Bsw_Adc.o
 .data.u16_Vout
                0x00000000       0x26 build/obj/Bsw_Adc.o
 .text          0x00000000        0x0 build/obj/Bsw_PIT.o
 .data          0x00000000        0x0 build/obj/Bsw_PIT.o
 .bss           0x00000000        0x0 build/obj/Bsw_PIT.o
 .text          0x00000000        0x0 build/obj/Hal_Pwm.o
 .data          0x00000000        0x0 build/obj/Hal_Pwm.o
 .bss           0x00000000        0x0 build/obj/Hal_Pwm.o
 .text          0x00000000        0x0 build/obj/Hal_Adc.o
 .data          0x00000000        0x0 build/obj/Hal_Adc.o
 .bss           0x00000000        0x0 build/obj/Hal_Adc.o
 .text          0x00000000        0x0 build/obj/Hal_PIT.o
 .data          0x00000000        0x0 build/obj/Hal_PIT.o
 .bss           0x00000000        0x0 build/obj/Hal_PIT.o
 .text          0x00000000        0x0 build/obj/Hal_Can.o
 .data          0x00000000        0x0 build/obj/Hal_Can.o
 .bss           0x00000000        0x0 build/obj/Hal_Can.o
 .text          0x00000000        0x0 build/obj/Uds_Func.o
 .data          0x00000000        0x0 build/obj/Uds_Func.o
 .bss           0x00000000        0x0 build/obj/Uds_Func.o
 .text          0x00000000        0x0 build/obj/Tp_Func.o
 .data          0x00000000        0x0 build/obj/Tp_Func.o
 .bss           0x00000000        0x0 build/obj/Tp_Func.o
 .text          0x00000000        0x0 build/obj/GpFunc.o
 .data          0x00000000        0x0 build/obj/GpFunc.o
 .bss           0x00000000        0x0 build/obj/GpFunc.o
 .text.UDS_EEP_WriteDataByIdentifier
                0x00000000       0x7e build/obj/GpFunc.o
 .text          0x00000000        0x0 build/obj/Asw_Utility.o
 .data          0x00000000        0x0 build/obj/Asw_Utility.o
 .bss           0x00000000        0x0 build/obj/Asw_Utility.o
 .text.Asw_FindCurrentAdd
                0x00000000       0x8e build/obj/Asw_Utility.o
 .text.Asw_DTC_Eeprom_Read
                0x00000000       0x86 build/obj/Asw_Utility.o
 .text.UTILS_REF_INV
                0x00000000      0x13c build/obj/Asw_Utility.o
 .text          0x00000000        0x0 build/obj/Asw_StateMachine.o
 .data          0x00000000        0x0 build/obj/Asw_StateMachine.o
 .bss           0x00000000        0x0 build/obj/Asw_StateMachine.o
 .text          0x00000000        0x0 build/obj/Asw_DtcMng.o
 .data          0x00000000        0x0 build/obj/Asw_DtcMng.o
 .bss           0x00000000        0x0 build/obj/Asw_DtcMng.o
 .text          0x00000000        0x0 build/obj/Asw_FaultDetection.o
 .data          0x00000000        0x0 build/obj/Asw_FaultDetection.o
 .bss           0x00000000        0x0 build/obj/Asw_FaultDetection.o
 .text          0x00000000        0x0 build/obj/Asw_Pid.o
 .data          0x00000000        0x0 build/obj/Asw_Pid.o
 .bss           0x00000000        0x0 build/obj/Asw_Pid.o
 .text          0x00000000        0x0 build/obj/components.o
 .data          0x00000000        0x0 build/obj/components.o
 .bss           0x00000000        0x0 build/obj/components.o
 .text          0x00000000        0x0 c:/spc5studio/eclipse/plugins/com.st.tools.spc5.tools.gnu.gcc.ppcvle.win32_4.9.4.20190604105544/toolchain/bin/../lib/gcc/powerpc-eabivle/4.9.4/../../../../powerpc-eabivle/lib\libc.a(lib_a-memset.o)
 .data          0x00000000        0x0 c:/spc5studio/eclipse/plugins/com.st.tools.spc5.tools.gnu.gcc.ppcvle.win32_4.9.4.20190604105544/toolchain/bin/../lib/gcc/powerpc-eabivle/4.9.4/../../../../powerpc-eabivle/lib\libc.a(lib_a-memset.o)
 .bss           0x00000000        0x0 c:/spc5studio/eclipse/plugins/com.st.tools.spc5.tools.gnu.gcc.ppcvle.win32_4.9.4.20190604105544/toolchain/bin/../lib/gcc/powerpc-eabivle/4.9.4/../../../../powerpc-eabivle/lib\libc.a(lib_a-memset.o)
 .text.memset   0x00000000       0x16 c:/spc5studio/eclipse/plugins/com.st.tools.spc5.tools.gnu.gcc.ppcvle.win32_4.9.4.20190604105544/toolchain/bin/../lib/gcc/powerpc-eabivle/4.9.4/../../../../powerpc-eabivle/lib\libc.a(lib_a-memset.o)
 .text          0x00000000        0x0 c:/spc5studio/eclipse/plugins/com.st.tools.spc5.tools.gnu.gcc.ppcvle.win32_4.9.4.20190604105544/toolchain/bin/../lib/gcc/powerpc-eabivle/4.9.4/../../../../powerpc-eabivle/lib\libc.a(lib_a-rand.o)
 .data          0x00000000        0x0 c:/spc5studio/eclipse/plugins/com.st.tools.spc5.tools.gnu.gcc.ppcvle.win32_4.9.4.20190604105544/toolchain/bin/../lib/gcc/powerpc-eabivle/4.9.4/../../../../powerpc-eabivle/lib\libc.a(lib_a-rand.o)
 .bss           0x00000000        0x0 c:/spc5studio/eclipse/plugins/com.st.tools.spc5.tools.gnu.gcc.ppcvle.win32_4.9.4.20190604105544/toolchain/bin/../lib/gcc/powerpc-eabivle/4.9.4/../../../../powerpc-eabivle/lib\libc.a(lib_a-rand.o)
 .text          0x00000000        0x0 c:/spc5studio/eclipse/plugins/com.st.tools.spc5.tools.gnu.gcc.ppcvle.win32_4.9.4.20190604105544/toolchain/bin/../lib/gcc/powerpc-eabivle/4.9.4/../../../../powerpc-eabivle/lib\libc.a(lib_a-impure.o)
 .data          0x00000000        0x0 c:/spc5studio/eclipse/plugins/com.st.tools.spc5.tools.gnu.gcc.ppcvle.win32_4.9.4.20190604105544/toolchain/bin/../lib/gcc/powerpc-eabivle/4.9.4/../../../../powerpc-eabivle/lib\libc.a(lib_a-impure.o)
 .bss           0x00000000        0x0 c:/spc5studio/eclipse/plugins/com.st.tools.spc5.tools.gnu.gcc.ppcvle.win32_4.9.4.20190604105544/toolchain/bin/../lib/gcc/powerpc-eabivle/4.9.4/../../../../powerpc-eabivle/lib\libc.a(lib_a-impure.o)
 .text          0x00000000        0x0 ./components/flash_driver/lib/src/c55_freegcc.a(SetLock.o)
 .data          0x00000000        0x0 ./components/flash_driver/lib/src/c55_freegcc.a(SetLock.o)
 .bss           0x00000000        0x0 ./components/flash_driver/lib/src/c55_freegcc.a(SetLock.o)
 .text          0x00000000        0x0 ./components/flash_driver/lib/src/c55_freegcc.a(FlashProgram.o)
 .data          0x00000000        0x0 ./components/flash_driver/lib/src/c55_freegcc.a(FlashProgram.o)
 .bss           0x00000000        0x0 ./components/flash_driver/lib/src/c55_freegcc.a(FlashProgram.o)
 .text          0x00000000        0x0 ./components/flash_driver/lib/src/c55_freegcc.a(FlashInit.o)
 .data          0x00000000        0x0 ./components/flash_driver/lib/src/c55_freegcc.a(FlashInit.o)
 .bss           0x00000000        0x0 ./components/flash_driver/lib/src/c55_freegcc.a(FlashInit.o)
 .text          0x00000000        0x0 ./components/flash_driver/lib/src/c55_freegcc.a(FlashErase.o)
 .data          0x00000000        0x0 ./components/flash_driver/lib/src/c55_freegcc.a(FlashErase.o)
 .bss           0x00000000        0x0 ./components/flash_driver/lib/src/c55_freegcc.a(FlashErase.o)
 .text          0x00000000        0x0 ./components/flash_driver/lib/src/c55_freegcc.a(FlashCheckStatus.o)
 .data          0x00000000        0x0 ./components/flash_driver/lib/src/c55_freegcc.a(FlashCheckStatus.o)
 .bss           0x00000000        0x0 ./components/flash_driver/lib/src/c55_freegcc.a(FlashCheckStatus.o)
 .text          0x00000000        0x0 ./components/flash_driver/lib/src/c55_freegcc.a(BlankCheck.o)
 .data          0x00000000        0x0 ./components/flash_driver/lib/src/c55_freegcc.a(BlankCheck.o)
 .bss           0x00000000        0x0 ./components/flash_driver/lib/src/c55_freegcc.a(BlankCheck.o)
 .data          0x00000000        0x0 c:/spc5studio/eclipse/plugins/com.st.tools.spc5.tools.gnu.gcc.ppcvle.win32_4.9.4.20190604105544/toolchain/bin/../lib/gcc/powerpc-eabivle/4.9.4\libgcc.a(_ucmpdi2.o)
 .bss           0x00000000        0x0 c:/spc5studio/eclipse/plugins/com.st.tools.spc5.tools.gnu.gcc.ppcvle.win32_4.9.4.20190604105544/toolchain/bin/../lib/gcc/powerpc-eabivle/4.9.4\libgcc.a(_ucmpdi2.o)

Memory Configuration

Name             Origin             Length             Attributes
flash            0x00fc8000         0x00078000
dataflash        0x00800000         0x00008000
ram              0x40000000         0x0000c000
*default*        0x00000000         0xffffffff

Linker script and memory map

LOAD build/obj/boot.o
LOAD build/obj/crt0.o
LOAD build/obj/vectors.o
LOAD build/obj/ivor.o
LOAD build/obj/eeprom.o
LOAD build/obj/eeprom_lld.o
LOAD build/obj/spc5_lld.o
LOAD build/obj/spc5_edma.o
LOAD build/obj/pal.o
LOAD build/obj/clock.o
LOAD build/obj/irq.o
LOAD build/obj/eirq.o
LOAD build/obj/osal.o
LOAD build/obj/systimer.o
LOAD build/obj/eeprom_cfg.o
LOAD build/obj/eeprom_lld_cfg.o
LOAD build/obj/board.o
LOAD build/obj/irq_cfg.o
LOAD build/obj/eirq_cfg.o
LOAD build/obj/main.o
LOAD build/obj/Rte.o
LOAD build/obj/Bsw_Eeprom.o
LOAD build/obj/Bsw_Can.o
LOAD build/obj/Bsw_Pwm.o
LOAD build/obj/Bsw_Adc.o
LOAD build/obj/Bsw_PIT.o
LOAD build/obj/Hal_Pwm.o
LOAD build/obj/Hal_Adc.o
LOAD build/obj/Hal_PIT.o
LOAD build/obj/Hal_Can.o
LOAD build/obj/Uds_Func.o
LOAD build/obj/Tp_Func.o
LOAD build/obj/GpFunc.o
LOAD build/obj/Asw_Utility.o
LOAD build/obj/Asw_StateMachine.o
LOAD build/obj/Asw_DtcMng.o
LOAD build/obj/Asw_FaultDetection.o
LOAD build/obj/Asw_Pid.o
LOAD build/obj/components.o
LOAD c:/spc5studio/eclipse/plugins/com.st.tools.spc5.tools.gnu.gcc.ppcvle.win32_4.9.4.20190604105544/toolchain/bin/../lib/gcc/powerpc-eabivle/4.9.4/../../../../powerpc-eabivle/lib\libm.a
LOAD c:/spc5studio/eclipse/plugins/com.st.tools.spc5.tools.gnu.gcc.ppcvle.win32_4.9.4.20190604105544/toolchain/bin/../lib/gcc/powerpc-eabivle/4.9.4/../../../../powerpc-eabivle/lib\libc.a
                0x00000000                __irq_stack_size__ = 0x0
                0x00000800                __process_stack_size__ = 0x800
                0x00078000                __flash_size__ = LENGTH (flash)
                0x00fc8000                __flash_start__ = ORIGIN (flash)
                0x01040000                __flash_end__ = (ORIGIN (flash) + LENGTH (flash))
                0x0000c000                __ram_size__ = LENGTH (ram)
                0x40000000                __ram_start__ = ORIGIN (ram)
                0x4000c000                __ram_end__ = (ORIGIN (ram) + LENGTH (ram))
                0x00fc8000                . = ORIGIN (flash)

.boot0          0x00fc8000      0x1d2
 *(.boot)
 .boot          0x00fc8000       0xda build/obj/boot.o
                0x00fc8008                _reset_address
 *(.handlers)
 *fill*         0x00fc80da        0x6 
 .handlers      0x00fc80e0        0x4 build/obj/boot.o
                0x00fc80e0                _IVOR1
                0x00fc80e0                _IVOR11
                0x00fc80e0                _IVOR15
                0x00fc80e0                _IVOR0
                0x00fc80e0                _IVOR14
                0x00fc80e0                _unhandled_exception
                0x00fc80e0                _IVOR9
                0x00fc80e0                _IVOR2
                0x00fc80e0                _IVOR7
                0x00fc80e0                _IVOR12
                0x00fc80e0                _IVOR8
                0x00fc80e0                _IVOR3
                0x00fc80e0                _IVOR6
                0x00fc80e0                _IVOR5
                0x00fc80e0                _IVOR13
                0x00fc80e0                _IVOR10
 *fill*         0x00fc80e4        0xc 
 .handlers      0x00fc80f0       0x52 build/obj/ivor.o
                0x00fc80f0                _IVOR4
 *(.crt0)
 *fill*         0x00fc8142        0xe 
 .crt0          0x00fc8150       0x82 build/obj/crt0.o
                0x00fc8150                _boot_address
                0x00fc81c8                _main_exit_handler
                0x00fc81ce                __late_init
                0x00fc81d0                __eabi

.boot1          0x00fc81e0     0x2f14
                0x00fc9000                . = ALIGN (0x1000)
 *fill*         0x00fc81e0      0xe20 
 *(.vectors)
 .vectors       0x00fc9000     0x1002 build/obj/vectors.o
                0x00fc9000                _vectors
                0x00fca000                vector723
                0x00fca000                vector646
                0x00fca000                vector276
                0x00fca000                vector827
                0x00fca000                vector403
                0x00fca000                vector444
                0x00fca000                vector120
                0x00fca000                vector971
                0x00fca000                vector25
                0x00fca000                vector710
                0x00fca000                vector548
                0x00fca000                vector464
                0x00fca000                vector198
                0x00fca000                vector837
                0x00fca000                vector937
                0x00fca000                vector50
                0x00fca000                vector89
                0x00fca000                vector88
                0x00fca000                vector722
                0x00fca000                vector769
                0x00fca000                vector569
                0x00fca000                vector83
                0x00fca000                vector725
                0x00fca000                vector487
                0x00fca000                vector15
                0x00fca000                vector848
                0x00fca000                vector1017
                0x00fca000                vector501
                0x00fca000                vector151
                0x00fca000                vector689
                0x00fca000                vector234
                0x00fca000                vector604
                0x00fca000                vector933
                0x00fca000                vector602
                0x00fca000                vector232
                0x00fca000                vector635
                0x00fca000                vector265
                0x00fca000                vector387
                0x00fca000                vector878
                0x00fca000                vector407
                0x00fca000                vector757
                0x00fca000                vector772
                0x00fca000                vector729
                0x00fca000                vector342
                0x00fca000                vector149
                0x00fca000                vector880
                0x00fca000                vector106
                0x00fca000                vector163
                0x00fca000                vector1003
                0x00fca000                vector759
                0x00fca000                vector982
                0x00fca000                vector774
                0x00fca000                vector513
                0x00fca000                vector90
                0x00fca000                vector421
                0x00fca000                vector401
                0x00fca000                vector351
                0x00fca000                vector481
                0x00fca000                vector220
                0x00fca000                vector835
                0x00fca000                vector664
                0x00fca000                vector294
                0x00fca000                vector529
                0x00fca000                vector909
                0x00fca000                vector308
                0x00fca000                vector537
                0x00fca000                vector187
                0x00fca000                vector1015
                0x00fca000                vector886
                0x00fca000                vector225
                0x00fca000                vector680
                0x00fca000                vector494
                0x00fca000                vector599
                0x00fca000                vector424
                0x00fca000                vector843
                0x00fca000                vector467
                0x00fca000                vector804
                0x00fca000                vector370
                0x00fca000                vector337
                0x00fca000                vector1009
                0x00fca000                vector814
                0x00fca000                vector542
                0x00fca000                vector192
                0x00fca000                vector516
                0x00fca000                vector551
                0x00fca000                vector127
                0x00fca000                vector883
                0x00fca000                vector739
                0x00fca000                vector302
                0x00fca000                vector30
                0x00fca000                vector841
                0x00fca000                vector382
                0x00fca000                vector556
                0x00fca000                vector386
                0x00fca000                vector46
                0x00fca000                vector988
                0x00fca000                vector743
                0x00fca000                vector437
                0x00fca000                vector1023
                0x00fca000                vector34
                0x00fca000                vector268
                0x00fca000                vector638
                0x00fca000                vector179
                0x00fca000                vector764
                0x00fca000                vector990
                0x00fca000                vector786
                0x00fca000                vector794
                0x00fca000                vector134
                0x00fca000                vector223
                0x00fca000                vector881
                0x00fca000                vector994
                0x00fca000                vector662
                0x00fca000                vector292
                0x00fca000                vector325
                0x00fca000                vector367
                0x00fca000                vector218
                0x00fca000                vector341
                0x00fca000                vector713
                0x00fca000                vector945
                0x00fca000                vector892
                0x00fca000                vector410
                0x00fca000                vector322
                0x00fca000                vector888
                0x00fca000                vector393
                0x00fca000                vector8
                0x00fca000                vector582
                0x00fca000                vector71
                0x00fca000                vector842
                0x00fca000                vector510
                0x00fca000                vector160
                0x00fca000                vector344
                0x00fca000                vector916
                0x00fca000                vector264
                0x00fca000                vector634
                0x00fca000                vector472
                0x00fca000                vector628
                0x00fca000                vector258
                0x00fca000                vector927
                0x00fca000                vector887
                0x00fca000                vector559
                0x00fca000                vector215
                0x00fca000                vector352
                0x00fca000                vector423
                0x00fca000                vector995
                0x00fca000                vector826
                0x00fca000                vector532
                0x00fca000                vector182
                0x00fca000                vector727
                0x00fca000                vector112
                0x00fca000                vector490
                0x00fca000                vector347
                0x00fca000                vector389
                0x00fca000                vector507
                0x00fca000                vector157
                0x00fca000                vector416
                0x00fca000                vector161
                0x00fca000                vector511
                0x00fca000                vector681
                0x00fca000                vector904
                0x00fca000                vector850
                0x00fca000                vector502
                0x00fca000                vector152
                0x00fca000                vector555
                0x00fca000                vector596
                0x00fca000                vector197
                0x00fca000                vector553
                0x00fca000                vector129
                0x00fca000                vector455
                0x00fca000                vector920
                0x00fca000                vector547
                0x00fca000                vector838
                0x00fca000                vector972
                0x00fca000                vector598
                0x00fca000                vector37
                0x00fca000                vector690
                0x00fca000                vector364
                0x00fca000                vector205
                0x00fca000                vector908
                0x00fca000                vector868
                0x00fca000                vector823
                0x00fca000                vector459
                0x00fca000                vector600
                0x00fca000                vector230
                0x00fca000                vector761
                0x00fca000                vector415
                0x00fca000                vector339
                0x00fca000                vector466
                0x00fca000                vector950
                0x00fca000                vector469
                0x00fca000                vector273
                0x00fca000                vector523
                0x00fca000                vector173
                0x00fca000                vector637
                0x00fca000                vector643
                0x00fca000                vector78
                0x00fca000                vector44
                0x00fca000                vector830
                0x00fca000                vector991
                0x00fca000                vector226
                0x00fca000                vector670
                0x00fca000                vector49
                0x00fca000                vector267
                0x00fca000                vector117
                0x00fca000                vector566
                0x00fca000                vector485
                0x00fca000                vector675
                0x00fca000                vector704
                0x00fca000                vector222
                0x00fca000                vector978
                0x00fca000                vector426
                0x00fca000                vector379
                0x00fca000                vector82
                0x00fca000                vector956
                0x00fca000                vector442
                0x00fca000                vector911
                0x00fca000                vector336
                0x00fca000                vector686
                0x00fca000                vector731
                0x00fca000                vector95
                0x00fca000                vector1002
                0x00fca000                vector109
                0x00fca000                vector383
                0x00fca000                vector20
                0x00fca000                vector986
                0x00fca000                vector575
                0x00fca000                vector321
                0x00fca000                vector712
                0x00fca000                vector1000
                0x00fca000                vector12
                0x00fca000                vector1007
                0x00fca000                vector719
                0x00fca000                vector309
                0x00fca000                vector863
                0x00fca000                vector319
                0x00fca000                vector907
                0x00fca000                vector491
                0x00fca000                vector456
                0x00fca000                vector572
                0x00fca000                vector818
                0x00fca000                vector943
                0x00fca000                vector776
                0x00fca000                vector366
                0x00fca000                vector18
                0x00fca000                vector873
                0x00fca000                vector656
                0x00fca000                vector303
                0x00fca000                vector286
                0x00fca000                vector417
                0x00fca000                vector166
                0x00fca000                vector434
                0x00fca000                vector931
                0x00fca000                vector658
                0x00fca000                vector288
                0x00fca000                vector564
                0x00fca000                vector326
                0x00fca000                vector489
                0x00fca000                vector861
                0x00fca000                vector906
                0x00fca000                vector184
                0x00fca000                vector577
                0x00fca000                vector683
                0x00fca000                vector358
                0x00fca000                vector446
                0x00fca000                vector207
                0x00fca000                vector915
                0x00fca000                vector540
                0x00fca000                vector585
                0x00fca000                vector636
                0x00fca000                vector266
                0x00fca000                vector411
                0x00fca000                vector692
                0x00fca000                vector188
                0x00fca000                vector538
                0x00fca000                vector567
                0x00fca000                vector190
                0x00fca000                vector609
                0x00fca000                vector239
                0x00fca000                vector94
                0x00fca000                vector93
                0x00fca000                vector534
                0x00fca000                vector360
                0x00fca000                vector116
                0x00fca000                vector654
                0x00fca000                vector284
                0x00fca000                vector452
                0x00fca000                vector782
                0x00fca000                vector1005
                0x00fca000                vector831
                0x00fca000                vector104
                0x00fca000                vector633
                0x00fca000                vector263
                0x00fca000                vector581
                0x00fca000                vector882
                0x00fca000                vector685
                0x00fca000                vector768
                0x00fca000                vector869
                0x00fca000                vector992
                0x00fca000                vector976
                0x00fca000                vector640
                0x00fca000                vector270
                0x00fca000                vector717
                0x00fca000                vector17
                0x00fca000                vector315
                0x00fca000                vector755
                0x00fca000                vector735
                0x00fca000                vector699
                0x00fca000                vector439
                0x00fca000                vector721
                0x00fca000                vector497
                0x00fca000                vector824
                0x00fca000                vector847
                0x00fca000                vector48
                0x00fca000                vector299
                0x00fca000                vector926
                0x00fca000                vector781
                0x00fca000                vector984
                0x00fca000                vector462
                0x00fca000                vector669
                0x00fca000                vector103
                0x00fca000                vector191
                0x00fca000                vector969
                0x00fca000                vector146
                0x00fca000                vector897
                0x00fca000                vector815
                0x00fca000                vector541
                0x00fca000                vector586
                0x00fca000                vector350
                0x00fca000                vector997
                0x00fca000                vector447
                0x00fca000                vector11
                0x00fca000                vector14
                0x00fca000                vector952
                0x00fca000                vector499
                0x00fca000                vector480
                0x00fca000                vector397
                0x00fca000                vector406
                0x00fca000                vector854
                0x00fca000                vector941
                0x00fca000                vector454
                0x00fca000                vector708
                0x00fca000                vector679
                0x00fca000                vector338
                0x00fca000                vector385
                0x00fca000                vector148
                0x00fca000                vector221
                0x00fca000                vector912
                0x00fca000                vector80
                0x00fca000                vector353
                0x00fca000                vector936
                0x00fca000                vector219
                0x00fca000                vector310
                0x00fca000                vector659
                0x00fca000                vector289
                0x00fca000                vector663
                0x00fca000                vector293
                0x00fca000                vector957
                0x00fca000                vector521
                0x00fca000                vector171
                0x00fca000                vector504
                0x00fca000                vector340
                0x00fca000                vector851
                0x00fca000                vector449
                0x00fca000                vector405
                0x00fca000                vector800
                0x00fca000                vector716
                0x00fca000                vector849
                0x00fca000                vector105
                0x00fca000                vector154
                0x00fca000                vector36
                0x00fca000                vector894
                0x00fca000                vector605
                0x00fca000                vector235
                0x00fca000                vector766
                0x00fca000                vector874
                0x00fca000                vector272
                0x00fca000                vector879
                0x00fca000                vector914
                0x00fca000                vector563
                0x00fca000                vector902
                0x00fca000                vector949
                0x00fca000                vector1012
                0x00fca000                vector973
                0x00fca000                vector164
                0x00fca000                vector987
                0x00fca000                vector139
                0x00fca000                vector503
                0x00fca000                vector153
                0x00fca000                vector514
                0x00fca000                vector121
                0x00fca000                vector867
                0x00fca000                vector754
                0x00fca000                vector619
                0x00fca000                vector249
                0x00fca000                vector938
                0x00fca000                vector836
                0x00fca000                vector318
                0x00fca000                vector822
                0x00fca000                vector155
                0x00fca000                vector505
                0x00fca000                vector5
                0x00fca000                vector320
                0x00fca000                vector517
                0x00fca000                vector167
                0x00fca000                vector944
                0x00fca000                vector684
                0x00fca000                vector959
                0x00fca000                vector150
                0x00fca000                vector304
                0x00fca000                vector618
                0x00fca000                vector248
                0x00fca000                vector479
                0x00fca000                vector500
                0x00fca000                vector587
                0x00fca000                vector195
                0x00fca000                vector594
                0x00fca000                vector590
                0x00fca000                vector76
                0x00fca000                vector75
                0x00fca000                vector545
                0x00fca000                vector343
                0x00fca000                vector123
                0x00fca000                vector865
                0x00fca000                vector939
                0x00fca000                vector31
                0x00fca000                vector388
                0x00fca000                vector799
                0x00fca000                vector203
                0x00fca000                vector820
                0x00fca000                vector271
                0x00fca000                vector641
                0x00fca000                vector96
                0x00fca000                vector665
                0x00fca000                vector295
                0x00fca000                vector427
                0x00fca000                vector891
                0x00fca000                vector365
                0x00fca000                vector620
                0x00fca000                vector910
                0x00fca000                vector785
                0x00fca000                vector471
                0x00fca000                vector28
                0x00fca000                vector703
                0x00fca000                vector126
                0x00fca000                vector934
                0x00fca000                vector72
                0x00fca000                vector202
                0x00fca000                vector323
                0x00fca000                vector744
                0x00fca000                vector955
                0x00fca000                vector368
                0x00fca000                vector550
                0x00fca000                vector519
                0x00fca000                vector169
                0x00fca000                vector866
                0x00fca000                vector821
                0x00fca000                vector457
                0x00fca000                vector147
                0x00fca000                vector642
                0x00fca000                vector413
                0x00fca000                vector780
                0x00fca000                vector593
                0x00fca000                vector809
                0x00fca000                vector392
                0x00fca000                vector474
                0x00fca000                vector603
                0x00fca000                vector233
                0x00fca000                vector373
                0x00fca000                vector1019
                0x00fca000                vector698
                0x00fca000                vector441
                0x00fca000                vector756
                0x00fca000                vector787
                0x00fca000                vector749
                0x00fca000                vector204
                0x00fca000                vector726
                0x00fca000                vector283
                0x00fca000                vector250
                0x00fca000                vector591
                0x00fca000                vector124
                0x00fca000                vector110
                0x00fca000                vector653
                0x00fca000                vector966
                0x00fca000                vector484
                0x00fca000                vector630
                0x00fca000                vector668
                0x00fca000                vector298
                0x00fca000                vector657
                0x00fca000                vector287
                0x00fca000                vector22
                0x00fca000                vector247
                0x00fca000                vector617
                0x00fca000                vector923
                0x00fca000                vector260
                0x00fca000                vector137
                0x00fca000                vector979
                0x00fca000                vector330
                0x00fca000                vector561
                0x00fca000                vector893
                0x00fca000                vector6
                0x00fca000                vector279
                0x00fca000                vector277
                0x00fca000                vector69
                0x00fca000                vector607
                0x00fca000                vector237
                0x00fca000                vector27
                0x00fca000                vector647
                0x00fca000                vector579
                0x00fca000                vector477
                0x00fca000                vector425
                0x00fca000                vector118
                0x00fca000                vector328
                0x00fca000                vector918
                0x00fca000                vector70
                0x00fca000                vector468
                0x00fca000                vector312
                0x00fca000                vector132
                0x00fca000                vector355
                0x00fca000                vector661
                0x00fca000                vector291
                0x00fca000                vector970
                0x00fca000                vector998
                0x00fca000                vector217
                0x00fca000                vector1013
                0x00fca000                vector186
                0x00fca000                vector372
                0x00fca000                vector583
                0x00fca000                vector807
                0x00fca000                vector390
                0x00fca000                vector536
                0x00fca000                vector177
                0x00fca000                vector527
                0x00fca000                vector316
                0x00fca000                vector905
                0x00fca000                vector375
                0x00fca000                vector1022
                0x00fca000                vector335
                0x00fca000                vector671
                0x00fca000                vector210
                0x00fca000                vector983
                0x00fca000                vector269
                0x00fca000                vector332
                0x00fca000                vector227
                0x00fca000                vector834
                0x00fca000                vector363
                0x00fca000                vector307
                0x00fca000                vector1011
                0x00fca000                vector224
                0x00fca000                vector432
                0x00fca000                vector1018
                0x00fca000                vector728
                0x00fca000                vector21
                0x00fca000                vector803
                0x00fca000                vector872
                0x00fca000                vector41
                0x00fca000                vector378
                0x00fca000                vector790
                0x00fca000                vector381
                0x00fca000                vector346
                0x00fca000                vector940
                0x00fca000                vector738
                0x00fca000                vector436
                0x00fca000                vector650
                0x00fca000                vector924
                0x00fca000                vector993
                0x00fca000                vector613
                0x00fca000                vector492
                0x00fca000                vector495
                0x00fca000                vector174
                0x00fca000                vector524
                0x00fca000                vector450
                0x00fca000                vector362
                0x00fca000                vector101
                0x00fca000                vector211
                0x00fca000                vector418
                0x00fca000                vector889
                0x00fca000                vector128
                0x00fca000                vector753
                0x00fca000                vector844
                0x00fca000                vector16
                0x00fca000                vector960
                0x00fca000                vector714
                0x00fca000                vector595
                0x00fca000                vector946
                0x00fca000                vector51
                0x00fca000                vector460
                0x00fca000                vector13
                0x00fca000                vector81
                0x00fca000                vector552
                0x00fca000                vector765
                0x00fca000                vector1008
                0x00fca000                vector677
                0x00fca000                vector798
                0x00fca000                vector300
                0x00fca000                vector282
                0x00fca000                vector608
                0x00fca000                vector238
                0x00fca000                vector557
                0x00fca000                vector697
                0x00fca000                vector652
                0x00fca000                vector953
                0x00fca000                vector695
                0x00fca000                vector280
                0x00fca000                vector980
                0x00fca000                vector1
                0x00fca000                vector178
                0x00fca000                vector38
                0x00fca000                vector311
                0x00fca000                vector133
                0x00fca000                vector73
                0x00fca000                vector354
                0x00fca000                vector624
                0x00fca000                vector254
                0x00fca000                vector763
                0x00fca000                vector1001
                0x00fca000                vector349
                0x00fca000                vector929
                0x00fca000                vector687
                0x00fca000                vector144
                0x00fca000                vector644
                0x00fca000                vector274
                0x00fca000                vector737
                0x00fca000                vector967
                0x00fca000                vector639
                0x00fca000                vector568
                0x00fca000                vector565
                0x00fca000                vector515
                0x00fca000                vector165
                0x00fca000                vector571
                0x00fca000                vector535
                0x00fca000                vector185
                0x00fca000                vector496
                0x00fca000                vector435
                0x00fca000                vector750
                0x00fca000                vector493
                0x00fca000                vector43
                0x00fca000                vector682
                0x00fca000                vector451
                0x00fca000                vector900
                0x00fca000                vector760
                0x00fca000                vector942
                0x00fca000                vector748
                0x00fca000                vector676
                0x00fca000                vector709
                0x00fca000                vector398
                0x00fca000                vector430
                0x00fca000                vector506
                0x00fca000                vector412
                0x00fca000                vector376
                0x00fca000                vector122
                0x00fca000                vector580
                0x00fca000                vector333
                0x00fca000                vector817
                0x00fca000                vector115
                0x00fca000                vector578
                0x00fca000                vector947
                0x00fca000                vector108
                0x00fca000                vector626
                0x00fca000                vector256
                0x00fca000                vector621
                0x00fca000                vector251
                0x00fca000                vector429
                0x00fca000                vector720
                0x00fca000                vector86
                0x00fca000                vector87
                0x00fca000                vector767
                0x00fca000                vector612
                0x00fca000                vector242
                0x00fca000                vector119
                0x00fca000                vector829
                0x00fca000                _unhandled_irq
                0x00fca000                vector584
                0x00fca000                vector345
                0x00fca000                vector666
                0x00fca000                vector296
                0x00fca000                vector715
                0x00fca000                vector213
                0x00fca000                vector985
                0x00fca000                vector419
                0x00fca000                vector162
                0x00fca000                vector512
                0x00fca000                vector718
                0x00fca000                vector762
                0x00fca000                vector795
                0x00fca000                vector91
                0x00fca000                vector33
                0x00fca000                vector156
                0x00fca000                vector975
                0x00fca000                vector404
                0x00fca000                vector348
                0x00fca000                vector141
                0x00fca000                vector812
                0x00fca000                vector859
                0x00fca000                vector954
                0x00fca000                vector770
                0x00fca000                vector99
                0x00fca000                vector999
                0x00fca000                vector819
                0x00fca000                vector783
                0x00fca000                vector214
                0x00fca000                vector870
                0x00fca000                vector961
                0x00fca000                vector740
                0x00fca000                vector919
                0x00fca000                vector253
                0x00fca000                vector3
                0x00fca000                vector2
                0x00fca000                vector359
                0x00fca000                vector833
                0x00fca000                vector623
                0x00fca000                vector876
                0x00fca000                vector241
                0x00fca000                vector522
                0x00fca000                vector172
                0x00fca000                vector877
                0x00fca000                vector461
                0x00fca000                vector611
                0x00fca000                vector257
                0x00fca000                vector627
                0x00fca000                vector802
                0x00fca000                vector431
                0x00fca000                vector380
                0x00fca000                vector862
                0x00fca000                vector24
                0x00fca000                vector7
                0x00fca000                vector189
                0x00fca000                vector475
                0x00fca000                vector615
                0x00fca000                vector816
                0x00fca000                vector306
                0x00fca000                vector1014
                0x00fca000                vector539
                0x00fca000                vector111
                0x00fca000                vector711
                0x00fca000                vector930
                0x00fca000                vector562
                0x00fca000                vector773
                0x00fca000                vector138
                0x00fca000                vector864
                0x00fca000                vector74
                0x00fca000                vector974
                0x00fca000                vector928
                0x00fca000                vector736
                0x00fca000                vector200
                0x00fca000                vector655
                0x00fca000                vector285
                0x00fca000                vector414
                0x00fca000                vector476
                0x00fca000                vector839
                0x00fca000                vector989
                0x00fca000                vector601
                0x00fca000                vector231
                0x00fca000                vector968
                0x00fca000                vector29
                0x00fca000                vector135
                0x00fca000                vector734
                0x00fca000                vector384
                0x00fca000                vector278
                0x00fca000                vector747
                0x00fca000                vector606
                0x00fca000                vector236
                0x00fca000                vector1020
                0x00fca000                vector648
                0x00fca000                vector796
                0x00fca000                vector420
                0x00fca000                vector314
                0x00fca000                vector632
                0x00fca000                vector262
                0x00fca000                vector996
                0x00fca000                vector751
                0x00fca000                vector208
                0x00fca000                vector180
                0x00fca000                vector463
                0x00fca000                vector530
                0x00fca000                vector771
                0x00fca000                vector357
                0x00fca000                vector925
                0x00fca000                vector77
                0x00fca000                vector408
                0x00fca000                vector329
                0x00fca000                vector932
                0x00fca000                vector903
                0x00fca000                vector554
                0x00fca000                vector327
                0x00fca000                vector374
                0x00fca000                vector201
                0x00fca000                vector962
                0x00fca000                vector811
                0x00fca000                vector100
                0x00fca000                vector9
                0x00fca000                vector860
                0x00fca000                vector142
                0x00fca000                vector458
                0x00fca000                vector394
                0x00fca000                vector745
                0x00fca000                vector935
                0x00fca000                vector792
                0x00fca000                vector977
                0x00fca000                vector473
                0x00fca000                vector23
                0x00fca000                vector779
                0x00fca000                vector488
                0x00fca000                vector758
                0x00fca000                vector470
                0x00fca000                vector445
                0x00fca000                vector597
                0x00fca000                vector361
                0x00fca000                vector845
                0x00fca000                vector631
                0x00fca000                vector261
                0x00fca000                vector482
                0x00fca000                vector438
                0x00fca000                vector443
                0x00fca000                vector145
                0x00fca000                vector777
                0x00fca000                vector964
                0x00fca000                vector107
                0x00fca000                vector696
                0x00fca000                vector853
                0x00fca000                vector422
                0x00fca000                vector651
                0x00fca000                vector281
                0x00fca000                vector805
                0x00fca000                vector1021
                0x00fca000                vector570
                0x00fca000                vector40
                0x00fca000                vector732
                0x00fca000                vector486
                0x00fca000                vector724
                0x00fca000                vector746
                0x00fca000                vector855
                0x00fca000                vector963
                0x00fca000                vector649
                0x00fca000                vector1010
                0x00fca000                vector921
                0x00fca000                vector700
                0x00fca000                vector465
                0x00fca000                vector898
                0x00fca000                vector789
                0x00fca000                vector301
                0x00fca000                vector102
                0x00fca000                vector896
                0x00fca000                vector730
                0x00fca000                vector176
                0x00fca000                vector857
                0x00fca000                vector544
                0x00fca000                vector194
                0x00fca000                vector32
                0x00fca000                vector526
                0x00fca000                vector396
                0x00fca000                vector97
                0x00fca000                vector573
                0x00fca000                vector707
                0x00fca000                vector784
                0x00fca000                vector402
                0x00fca000                vector98
                0x00fca000                vector693
                0x00fca000                vector951
                0x00fca000                vector810
                0x00fca000                vector252
                0x00fca000                vector0
                0x00fca000                vector828
                0x00fca000                vector667
                0x00fca000                vector297
                0x00fca000                vector622
                0x00fca000                vector775
                0x00fca000                vector131
                0x00fca000                vector549
                0x00fca000                vector199
                0x00fca000                vector741
                0x00fca000                vector448
                0x00fca000                vector589
                0x00fca000                vector331
                0x00fca000                vector705
                0x00fca000                vector858
                0x00fca000                vector313
                0x00fca000                vector895
                0x00fca000                vector483
                0x00fca000                vector813
                0x00fca000                vector702
                0x00fca000                vector409
                0x00fca000                vector840
                0x00fca000                vector440
                0x00fca000                vector125
                0x00fca000                vector1016
                0x00fca000                vector645
                0x00fca000                vector275
                0x00fca000                vector793
                0x00fca000                vector391
                0x00fca000                vector324
                0x00fca000                vector981
                0x00fca000                vector588
                0x00fca000                vector660
                0x00fca000                vector290
                0x00fca000                vector629
                0x00fca000                vector259
                0x00fca000                vector196
                0x00fca000                vector546
                0x00fca000                vector193
                0x00fca000                vector356
                0x00fca000                vector216
                0x00fca000                vector26
                0x00fca000                vector875
                0x00fca000                vector543
                0x00fca000                vector885
                0x00fca000                vector113
                0x00fca000                vector733
                0x00fca000                vector778
                0x00fca000                vector614
                0x00fca000                vector1006
                0x00fca000                vector140
                0x00fca000                vector92
                0x00fca000                vector305
                0x00fca000                vector846
                0x00fca000                vector610
                0x00fca000                vector240
                0x00fca000                vector791
                0x00fca000                vector19
                0x00fca000                vector453
                0x00fca000                vector498
                0x00fca000                vector806
                0x00fca000                vector797
                0x00fca000                vector518
                0x00fca000                vector168
                0x00fca000                vector592
                0x00fca000                vector871
                0x00fca000                vector35
                0x00fca000                vector39
                0x00fca000                vector428
                0x00fca000                vector673
                0x00fca000                vector45
                0x00fca000                vector79
                0x00fca000                vector508
                0x00fca000                vector158
                0x00fca000                vector752
                0x00fca000                vector209
                0x00fca000                vector369
                0x00fca000                vector856
                0x00fca000                vector672
                0x00fca000                vector576
                0x00fca000                vector899
                0x00fca000                vector47
                0x00fca000                vector212
                0x00fca000                vector159
                0x00fca000                vector509
                0x00fca000                vector558
                0x00fca000                vector574
                0x00fca000                vector825
                0x00fca000                vector533
                0x00fca000                vector183
                0x00fca000                vector948
                0x00fca000                vector228
                0x00fca000                vector42
                0x00fca000                vector958
                0x00fca000                vector377
                0x00fca000                vector130
                0x00fca000                vector788
                0x00fca000                vector616
                0x00fca000                vector913
                0x00fca000                vector143
                0x00fca000                vector175
                0x00fca000                vector334
                0x00fca000                vector114
                0x00fca000                vector901
                0x00fca000                vector674
                0x00fca000                vector525
                0x00fca000                vector84
                0x00fca000                vector85
                0x00fca000                vector1004
                0x00fca000                vector832
                0x00fca000                vector395
                0x00fca000                vector520
                0x00fca000                vector170
                0x00fca000                vector399
                0x00fca000                vector706
                0x00fca000                vector4
                0x00fca000                vector433
                0x00fca000                vector917
                0x00fca000                vector852
                0x00fca000                vector478
                0x00fca000                vector965
                0x00fca000                vector136
                0x00fca000                vector10
                0x00fca000                vector694
                0x00fca000                vector371
                0x00fca000                vector531
                0x00fca000                vector181
                0x00fca000                vector890
                0x00fca000                vector801
                0x00fca000                vector317
                0x00fca000                vector400
                0x00fca000                vector255
                0x00fca000                vector808
                0x00fca000                vector206
                0x00fca000                vector560
                0x00fca000                vector922
                0x00fca000                vector625
                0x00fca000                vector884
                0x00fcb000                . = ALIGN (0x1000)
 *fill*         0x00fca002      0xffe 
                0x00fcb000                __ivpr_base__ = .
 *(.ivors)
 .ivors         0x00fcb000       0xf4 build/obj/boot.o
                0x00fcb000                IVORS

constructors    0x00fcb0f4        0x0
                [!provide]                PROVIDE (__init_array_start, .)
 *(SORT(.init_array.*))
 *(.init_array)
                [!provide]                PROVIDE (__init_array_end, .)

destructors     0x00fcb0f4        0x0
                [!provide]                PROVIDE (__fini_array_start, .)
 *(.fini_array)
 *(SORT(.fini_array.*))
                [!provide]                PROVIDE (__fini_array_end, .)

.text_vle
 *(.text_vle)
 *(.text_vle.*)
 *(.gnu.linkonce.t_vle.*)
 *(.vletext)
 *(.vletext.*)()
 *(.ghs.linkonce.t_vle.*)()

.text           0x00fcb100     0x633a
 *(.text)
 .text          0x00fcb100       0x20 c:/spc5studio/eclipse/plugins/com.st.tools.spc5.tools.gnu.gcc.ppcvle.win32_4.9.4.20190604105544/toolchain/bin/../lib/gcc/powerpc-eabivle/4.9.4\libgcc.a(_ucmpdi2.o)
                0x00fcb100                __ucmpdi2
 *(.text.*)
 .text.eeprom_init
                0x00fcb120       0x18 build/obj/eeprom.o
                0x00fcb120                eeprom_init
 *fill*         0x00fcb138        0x8 
 .text.eeprom_start
                0x00fcb140      0x232 build/obj/eeprom.o
                0x00fcb140                eeprom_start
 *fill*         0x00fcb372        0xe 
 .text.eeprom_searchID
                0x00fcb380       0x9e build/obj/eeprom.o
                0x00fcb380                eeprom_searchID
 *fill*         0x00fcb41e        0x2 
 .text.eeprom_read
                0x00fcb420       0x82 build/obj/eeprom.o
                0x00fcb420                eeprom_read
 *fill*         0x00fcb4a2        0xe 
 .text.eeprom_blockswap
                0x00fcb4b0      0x1be build/obj/eeprom.o
                0x00fcb4b0                eeprom_blockswap
 *fill*         0x00fcb66e        0x2 
 .text.eeprom_write
                0x00fcb670      0x236 build/obj/eeprom.o
                0x00fcb670                eeprom_write
 *fill*         0x00fcb8a6        0xa 
 .text.eeprom_lld_flashinit
                0x00fcb8b0       0x2c build/obj/eeprom_lld.o
                0x00fcb8b0                eeprom_lld_flashinit
 *fill*         0x00fcb8dc        0x4 
 .text.eeprom_lld_unlock
                0x00fcb8e0       0x28 build/obj/eeprom_lld.o
                0x00fcb8e0                eeprom_lld_unlock
 *fill*         0x00fcb908        0x8 
 .text.eeprom_lld_flasherase
                0x00fcb910       0x72 build/obj/eeprom_lld.o
                0x00fcb910                eeprom_lld_flasherase
 *fill*         0x00fcb982        0xe 
 .text.eeprom_lld_flashprogram64
                0x00fcb990       0x72 build/obj/eeprom_lld.o
                0x00fcb990                eeprom_lld_flashprogram64
 *fill*         0x00fcba02        0xe 
 .text.eeprom_lld_blankcheck
                0x00fcba10       0x38 build/obj/eeprom_lld.o
                0x00fcba10                eeprom_lld_blankcheck
 *fill*         0x00fcba48        0x8 
 .text.spc5LLDInit
                0x00fcba50       0x14 build/obj/spc5_lld.o
                0x00fcba50                spc5LLDInit
 *fill*         0x00fcba64        0xc 
 .text.vector52
                0x00fcba70       0x74 build/obj/spc5_edma.o
                0x00fcba70                vector52
 *fill*         0x00fcbae4        0xc 
 .text.vector53
                0x00fcbaf0       0x3e build/obj/spc5_edma.o
                0x00fcbaf0                vector53
 *fill*         0x00fcbb2e        0x2 
 .text.vector54
                0x00fcbb30       0x3e build/obj/spc5_edma.o
                0x00fcbb30                vector54
 *fill*         0x00fcbb6e        0x2 
 .text.vector55
                0x00fcbb70       0x3e build/obj/spc5_edma.o
                0x00fcbb70                vector55
 *fill*         0x00fcbbae        0x2 
 .text.vector56
                0x00fcbbb0       0x3e build/obj/spc5_edma.o
                0x00fcbbb0                vector56
 *fill*         0x00fcbbee        0x2 
 .text.vector57
                0x00fcbbf0       0x3e build/obj/spc5_edma.o
                0x00fcbbf0                vector57
 *fill*         0x00fcbc2e        0x2 
 .text.vector58
                0x00fcbc30       0x3e build/obj/spc5_edma.o
                0x00fcbc30                vector58
 *fill*         0x00fcbc6e        0x2 
 .text.vector59
                0x00fcbc70       0x3e build/obj/spc5_edma.o
                0x00fcbc70                vector59
 *fill*         0x00fcbcae        0x2 
 .text.vector60
                0x00fcbcb0       0x3e build/obj/spc5_edma.o
                0x00fcbcb0                vector60
 *fill*         0x00fcbcee        0x2 
 .text.vector61
                0x00fcbcf0       0x3e build/obj/spc5_edma.o
                0x00fcbcf0                vector61
 *fill*         0x00fcbd2e        0x2 
 .text.vector62
                0x00fcbd30       0x3e build/obj/spc5_edma.o
                0x00fcbd30                vector62
 *fill*         0x00fcbd6e        0x2 
 .text.vector63
                0x00fcbd70       0x3e build/obj/spc5_edma.o
                0x00fcbd70                vector63
 *fill*         0x00fcbdae        0x2 
 .text.vector64
                0x00fcbdb0       0x3e build/obj/spc5_edma.o
                0x00fcbdb0                vector64
 *fill*         0x00fcbdee        0x2 
 .text.vector65
                0x00fcbdf0       0x3e build/obj/spc5_edma.o
                0x00fcbdf0                vector65
 *fill*         0x00fcbe2e        0x2 
 .text.vector66
                0x00fcbe30       0x3e build/obj/spc5_edma.o
                0x00fcbe30                vector66
 *fill*         0x00fcbe6e        0x2 
 .text.vector67
                0x00fcbe70       0x3e build/obj/spc5_edma.o
                0x00fcbe70                vector67
 *fill*         0x00fcbeae        0x2 
 .text.vector68
                0x00fcbeb0       0x3e build/obj/spc5_edma.o
                0x00fcbeb0                vector68
 *fill*         0x00fcbeee        0x2 
 .text.edmaInit
                0x00fcbef0       0x66 build/obj/spc5_edma.o
                0x00fcbef0                edmaInit
 *fill*         0x00fcbf56        0xa 
 .text.pal_init
                0x00fcbf60       0x9e build/obj/pal.o
                0x00fcbf60                pal_init
 *fill*         0x00fcbffe        0x2 
 .text.SPCSetRunMode
                0x00fcc000       0x30 build/obj/clock.o
                0x00fcc000                SPCSetRunMode
 .text.clockInit
                0x00fcc030       0x20 build/obj/clock.o
                0x00fcc030                clockInit
 .text.spc_clock_init
                0x00fcc050      0x232 build/obj/clock.o
                0x00fcc050                spc_clock_init
 *fill*         0x00fcc282        0xe 
 .text.__early_init
                0x00fcc290       0x14 build/obj/clock.o
                0x00fcc290                __early_init
 *fill*         0x00fcc2a4        0xc 
 .text.SPCSetPeripheralClockMode
                0x00fcc2b0       0x30 build/obj/clock.o
                0x00fcc2b0                SPCSetPeripheralClockMode
 .text.irqInit  0x00fcc2e0       0x2c build/obj/irq.o
                0x00fcc2e0                irqInit
 *fill*         0x00fcc30c        0x4 
 .text.irqSysHalt
                0x00fcc310        0x8 build/obj/irq.o
                0x00fcc310                irqSysHalt
 *fill*         0x00fcc318        0x8 
 .text.manage_eirq_interrupt
                0x00fcc320       0x6a build/obj/eirq.o
                0x00fcc320                manage_eirq_interrupt
 *fill*         0x00fcc38a        0x6 
 .text.vector243
                0x00fcc390       0x26 build/obj/eirq.o
                0x00fcc390                vector243
 *fill*         0x00fcc3b6        0xa 
 .text.vector244
                0x00fcc3c0       0x26 build/obj/eirq.o
                0x00fcc3c0                vector244
 *fill*         0x00fcc3e6        0xa 
 .text.vector245
                0x00fcc3f0       0x26 build/obj/eirq.o
                0x00fcc3f0                vector245
 *fill*         0x00fcc416        0xa 
 .text.vector246
                0x00fcc420       0x48 build/obj/eirq.o
                0x00fcc420                vector246
 *fill*         0x00fcc468        0x8 
 .text.eirqInit
                0x00fcc470       0xce build/obj/eirq.o
                0x00fcc470                eirqInit
 *fill*         0x00fcc53e        0x2 
 .text.osalIsrDisable
                0x00fcc540       0x30 build/obj/osal.o
 .text.osalIsrEnable
                0x00fcc570       0x2a build/obj/osal.o
 *fill*         0x00fcc59a        0x6 
 .text.osalInit
                0x00fcc5a0        0x2 build/obj/osal.o
                0x00fcc5a0                osalInit
 *fill*         0x00fcc5a2        0xe 
 .text.osalEnterCriticalFromISR
                0x00fcc5b0       0x14 build/obj/osal.o
                0x00fcc5b0                osalEnterCriticalFromISR
 *fill*         0x00fcc5c4        0xc 
 .text.osalExitCriticalFromISR
                0x00fcc5d0       0x14 build/obj/osal.o
                0x00fcc5d0                osalExitCriticalFromISR
 *fill*         0x00fcc5e4        0xc 
 .text.boardInit
                0x00fcc5f0       0x1c build/obj/board.o
                0x00fcc5f0                boardInit
 *fill*         0x00fcc60c        0x4 
 .text.irq_cfg_init
                0x00fcc610        0x2 build/obj/irq_cfg.o
                0x00fcc610                irq_cfg_init
 *fill*         0x00fcc612        0xe 
 .text.main     0x00fcc620       0x30 build/obj/main.o
                0x00fcc620                main
 .text.Rte_Init
                0x00fcc650       0x68 build/obj/Rte.o
                0x00fcc650                Rte_Init
 *fill*         0x00fcc6b8        0x8 
 .text.Rte_TimeTaskCtrl
                0x00fcc6c0      0x114 build/obj/Rte.o
                0x00fcc6c0                Rte_TimeTaskCtrl
 *fill*         0x00fcc7d4        0xc 
 .text.EEP_UPDATE_EEPROM
                0x00fcc7e0       0x9c build/obj/Bsw_Eeprom.o
                0x00fcc7e0                EEP_UPDATE_EEPROM
 *fill*         0x00fcc87c        0x4 
 .text.EEP_EEPROM_INIT
                0x00fcc880       0x2c build/obj/Bsw_Eeprom.o
                0x00fcc880                EEP_EEPROM_INIT
 *fill*         0x00fcc8ac        0x4 
 .text.EEP_EEPROM_READ
                0x00fcc8b0       0x5c build/obj/Bsw_Eeprom.o
                0x00fcc8b0                EEP_EEPROM_READ
 *fill*         0x00fcc90c        0x4 
 .text.EEP_GET_WRITE_BUFFER
                0x00fcc910        0xa build/obj/Bsw_Eeprom.o
                0x00fcc910                EEP_GET_WRITE_BUFFER
 *fill*         0x00fcc91a        0x6 
 .text.utils_memcpy
                0x00fcc920       0x1c build/obj/Bsw_Eeprom.o
                0x00fcc920                utils_memcpy
 *fill*         0x00fcc93c        0x4 
 .text.Bsw_CAN1_Init
                0x00fcc940       0x14 build/obj/Bsw_Can.o
                0x00fcc940                Bsw_CAN1_Init
 *fill*         0x00fcc954        0xc 
 .text.Bsw_CAN2_Init
                0x00fcc960       0x14 build/obj/Bsw_Can.o
                0x00fcc960                Bsw_CAN2_Init
 *fill*         0x00fcc974        0xc 
 .text.Bsw_Can_Tx
                0x00fcc980       0xe8 build/obj/Bsw_Can.o
                0x00fcc980                Bsw_Can_Tx
 *fill*         0x00fcca68        0x8 
 .text.Bsw_Can_Rx
                0x00fcca70       0xb2 build/obj/Bsw_Can.o
                0x00fcca70                Bsw_Can_Rx
 *fill*         0x00fccb22        0xe 
 .text.Bsw_Can_DM1_Init
                0x00fccb30       0x4e build/obj/Bsw_Can.o
                0x00fccb30                Bsw_Can_DM1_Init
 *fill*         0x00fccb7e        0x2 
 .text.Bsw_Can_DM1_Transmitter
                0x00fccb80      0x5c6 build/obj/Bsw_Can.o
                0x00fccb80                Bsw_Can_DM1_Transmitter
 *fill*         0x00fcd146        0xa 
 .text.Bsw_PwmInit
                0x00fcd150       0x14 build/obj/Bsw_Pwm.o
                0x00fcd150                Bsw_PwmInit
 *fill*         0x00fcd164        0xc 
 .text.Bsw_PwmSetShift
                0x00fcd170       0x14 build/obj/Bsw_Pwm.o
                0x00fcd170                Bsw_PwmSetShift
 *fill*         0x00fcd184        0xc 
 .text.Bsw_PwmEnable
                0x00fcd190       0x14 build/obj/Bsw_Pwm.o
                0x00fcd190                Bsw_PwmEnable
 *fill*         0x00fcd1a4        0xc 
 .text.Bsw_PwmDisable
                0x00fcd1b0       0x14 build/obj/Bsw_Pwm.o
                0x00fcd1b0                Bsw_PwmDisable
 *fill*         0x00fcd1c4        0xc 
 .text.Bsw_AdcInit
                0x00fcd1d0       0x14 build/obj/Bsw_Adc.o
                0x00fcd1d0                Bsw_AdcInit
 *fill*         0x00fcd1e4        0xc 
 .text.Bsw_ADC2REAL
                0x00fcd1f0       0x2e build/obj/Bsw_Adc.o
                0x00fcd1f0                Bsw_ADC2REAL
 *fill*         0x00fcd21e        0x2 
 .text.Bsw_PIT_Init
                0x00fcd220       0x14 build/obj/Bsw_PIT.o
                0x00fcd220                Bsw_PIT_Init
 *fill*         0x00fcd234        0xc 
 .text.Hal_PwmInit
                0x00fcd240      0x266 build/obj/Hal_Pwm.o
                0x00fcd240                Hal_PwmInit
 *fill*         0x00fcd4a6        0xa 
 .text.Hal_PwmSetShift
                0x00fcd4b0       0x12 build/obj/Hal_Pwm.o
                0x00fcd4b0                Hal_PwmSetShift
 *fill*         0x00fcd4c2        0xe 
 .text.Hal_PwmEnable
                0x00fcd4d0       0x36 build/obj/Hal_Pwm.o
                0x00fcd4d0                Hal_PwmEnable
 *fill*         0x00fcd506        0xa 
 .text.Hal_PwmDisable
                0x00fcd510       0x34 build/obj/Hal_Pwm.o
                0x00fcd510                Hal_PwmDisable
 *fill*         0x00fcd544        0xc 
 .text.vector742
                0x00fcd550       0x4e build/obj/Hal_Pwm.o
                0x00fcd550                vector742
 *fill*         0x00fcd59e        0x2 
 .text.Hal_MovingAvg
                0x00fcd5a0       0x2c build/obj/Hal_Adc.o
 *fill*         0x00fcd5cc        0x4 
 .text.Hal_AdcInit
                0x00fcd5d0       0x76 build/obj/Hal_Adc.o
                0x00fcd5d0                Hal_AdcInit
 *fill*         0x00fcd646        0xa 
 .text.Hal_Adc_Start
                0x00fcd650       0x10 build/obj/Hal_Adc.o
                0x00fcd650                Hal_Adc_Start
 .text.vector528
                0x00fcd660      0x15e build/obj/Hal_Adc.o
                0x00fcd660                vector528
 *fill*         0x00fcd7be        0x2 
 .text.Hal_PIT_Init
                0x00fcd7c0       0x44 build/obj/Hal_PIT.o
                0x00fcd7c0                Hal_PIT_Init
 *fill*         0x00fcd804        0xc 
 .text.Get_PIT_CH3_CVAL
                0x00fcd810        0xa build/obj/Hal_PIT.o
                0x00fcd810                Get_PIT_CH3_CVAL
 *fill*         0x00fcd81a        0x6 
 .text.vector229
                0x00fcd820       0x90 build/obj/Hal_PIT.o
                0x00fcd820                vector229
 .text.Hal_CAN1_Init
                0x00fcd8b0      0x1da build/obj/Hal_Can.o
                0x00fcd8b0                Hal_CAN1_Init
 *fill*         0x00fcda8a        0x6 
 .text.Hal_CAN2_Init
                0x00fcda90      0x1d8 build/obj/Hal_Can.o
                0x00fcda90                Hal_CAN2_Init
 *fill*         0x00fcdc68        0x8 
 .text.CAN1_Drv_SendFrame
                0x00fcdc70       0x9e build/obj/Hal_Can.o
                0x00fcdc70                CAN1_Drv_SendFrame
 *fill*         0x00fcdd0e        0x2 
 .text.CAN2_Drv_SendFrame
                0x00fcdd10       0x9e build/obj/Hal_Can.o
                0x00fcdd10                CAN2_Drv_SendFrame
 *fill*         0x00fcddae        0x2 
 .text.vector691
                0x00fcddb0      0x186 build/obj/Hal_Can.o
                0x00fcddb0                vector691
 *fill*         0x00fcdf36        0xa 
 .text.vector678
                0x00fcdf40      0x186 build/obj/Hal_Can.o
                0x00fcdf40                vector678
 *fill*         0x00fce0c6        0xa 
 .text.vector701
                0x00fce0d0       0x24 build/obj/Hal_Can.o
                0x00fce0d0                vector701
 *fill*         0x00fce0f4        0xc 
 .text.vector688
                0x00fce100       0x24 build/obj/Hal_Can.o
                0x00fce100                vector688
 *fill*         0x00fce124        0xc 
 .text.UdsSendResponse
                0x00fce130       0x7c build/obj/Uds_Func.o
 *fill*         0x00fce1ac        0x4 
 .text.ApplDescProcessDiagnosticSessionControl
                0x00fce1b0      0x152 build/obj/Uds_Func.o
 *fill*         0x00fce302        0xe 
 .text.ApplDescProcessSecurityAccess
                0x00fce310      0x210 build/obj/Uds_Func.o
 .text.ApplDescProcessWriteDataByIdentifier
                0x00fce520      0x190 build/obj/Uds_Func.o
 .text.ApplDescProcessReadDataByIdentifier
                0x00fce6b0      0x1d0 build/obj/Uds_Func.o
 .text.ApplDescProcessClearDiagnosticInformation
                0x00fce880       0x76 build/obj/Uds_Func.o
 *fill*         0x00fce8f6        0xa 
 .text.ApplDescProcessReadDTCInformation
                0x00fce900      0x14e build/obj/Uds_Func.o
 *fill*         0x00fcea4e        0x2 
 .text.ApplDescProcessControlDTCSetting
                0x00fcea50       0x90 build/obj/Uds_Func.o
 .text.ApplDescProcessTesterPresent
                0x00fceae0       0x3a build/obj/Uds_Func.o
 *fill*         0x00fceb1a        0x6 
 .text.ApplDescProcessCommunicatonControl
                0x00fceb20      0x110 build/obj/Uds_Func.o
 .text.ApplDescProcessEcuReset
                0x00fcec30       0x42 build/obj/Uds_Func.o
 *fill*         0x00fcec72        0xe 
 .text.Uds_Func_Init
                0x00fcec80       0x48 build/obj/Uds_Func.o
                0x00fcec80                Uds_Func_Init
 *fill*         0x00fcecc8        0x8 
 .text.Uds_Func
                0x00fcecd0      0x27a build/obj/Uds_Func.o
                0x00fcecd0                Uds_Func
 *fill*         0x00fcef4a        0x6 
 .text.TpSendFrame
                0x00fcef50       0xa6 build/obj/Tp_Func.o
 *fill*         0x00fceff6        0xa 
 .text.TpFlowControlFrame
                0x00fcf000       0x26 build/obj/Tp_Func.o
 *fill*         0x00fcf026        0xa 
 .text.Tp_Func_Init
                0x00fcf030       0x58 build/obj/Tp_Func.o
                0x00fcf030                Tp_Func_Init
 *fill*         0x00fcf088        0x8 
 .text.Tp_Func  0x00fcf090      0x10a build/obj/Tp_Func.o
                0x00fcf090                Tp_Func
 *fill*         0x00fcf19a        0x6 
 .text.TpRecvProc
                0x00fcf1a0      0x2a2 build/obj/Tp_Func.o
                0x00fcf1a0                TpRecvProc
 *fill*         0x00fcf442        0xe 
 .text.TpSingleFrame
                0x00fcf450       0x5a build/obj/Tp_Func.o
                0x00fcf450                TpSingleFrame
 *fill*         0x00fcf4aa        0x6 
 .text.TpFirstFrame
                0x00fcf4b0       0x70 build/obj/Tp_Func.o
                0x00fcf4b0                TpFirstFrame
 .text.Flash_Drv_Program
                0x00fcf520       0x6c build/obj/GpFunc.o
 *fill*         0x00fcf58c        0x4 
 .text.Gp_Func_Init
                0x00fcf590       0x2c build/obj/GpFunc.o
                0x00fcf590                Gp_Func_Init
 *fill*         0x00fcf5bc        0x4 
 .text.UDS_EEP_ReadDataByIdentifier
                0x00fcf5c0        0x4 build/obj/GpFunc.o
                0x00fcf5c0                UDS_EEP_ReadDataByIdentifier
 *fill*         0x00fcf5c4        0xc 
 .text.UDS_WDT_PulseOut
                0x00fcf5d0       0x12 build/obj/GpFunc.o
                0x00fcf5d0                UDS_WDT_PulseOut
 *fill*         0x00fcf5e2        0xe 
 .text.Flash_Drv_Erase
                0x00fcf5f0       0xae build/obj/GpFunc.o
 *fill*         0x00fcf69e        0x2 
 .text.SetBootMode
                0x00fcf6a0       0x48 build/obj/GpFunc.o
                0x00fcf6a0                SetBootMode
 *fill*         0x00fcf6e8        0x8 
 .text.Asw_GetIgnSts
                0x00fcf6f0        0x4 build/obj/Asw_Utility.o
                0x00fcf6f0                Asw_GetIgnSts
 *fill*         0x00fcf6f4        0xc 
 .text.Asw_DTC_Eeprom_Write
                0x00fcf700       0xcc build/obj/Asw_Utility.o
                0x00fcf700                Asw_DTC_Eeprom_Write
 *fill*         0x00fcf7cc        0x4 
 .text.Asw_DID_Eeprom_Read
                0x00fcf7d0       0x86 build/obj/Asw_Utility.o
                0x00fcf7d0                Asw_DID_Eeprom_Read
 *fill*         0x00fcf856        0xa 
 .text.Asw_DID_Eeprom_Write
                0x00fcf860       0x6e build/obj/Asw_Utility.o
                0x00fcf860                Asw_DID_Eeprom_Write
 *fill*         0x00fcf8ce        0x2 
 .text.Asw_IoRef_TemperDerating
                0x00fcf8d0       0x94 build/obj/Asw_Utility.o
                0x00fcf8d0                Asw_IoRef_TemperDerating
 *fill*         0x00fcf964        0xc 
 .text.Asw_LDC_OFF
                0x00fcf970       0x26 build/obj/Asw_Utility.o
                0x00fcf970                Asw_LDC_OFF
 *fill*         0x00fcf996        0xa 
 .text.GetRecoveryError
                0x00fcf9a0       0x42 build/obj/Asw_StateMachine.o
 *fill*         0x00fcf9e2        0xe 
 .text.GetNonRecoveryError
                0x00fcf9f0       0x1e build/obj/Asw_StateMachine.o
 *fill*         0x00fcfa0e        0x2 
 .text.Asw_LDC_Operation
                0x00fcfa10      0x47a build/obj/Asw_StateMachine.o
                0x00fcfa10                Asw_LDC_Operation
 *fill*         0x00fcfe8a        0x6 
 .text.DtcSetNormalFromError
                0x00fcfe90        0xe build/obj/Asw_DtcMng.o
 *fill*         0x00fcfe9e        0x2 
 .text.DtcMng_DtcCodeUpdate
                0x00fcfea0      0x2f0 build/obj/Asw_DtcMng.o
                0x00fcfea0                DtcMng_DtcCodeUpdate
 .text.Asw_Diagnostic_OverMode
                0x00fd0190       0x62 build/obj/Asw_FaultDetection.o
 *fill*         0x00fd01f2        0xe 
 .text.Asw_Diagnostic_NormalMode
                0x00fd0200       0x48 build/obj/Asw_FaultDetection.o
 *fill*         0x00fd0248        0x8 
 .text.Asw_Diagnostic_UnderMode
                0x00fd0250       0x6c build/obj/Asw_FaultDetection.o
 *fill*         0x00fd02bc        0x4 
 .text.Asw_Diagnostic_Init
                0x00fd02c0       0xb6 build/obj/Asw_FaultDetection.o
                0x00fd02c0                Asw_Diagnostic_Init
 *fill*         0x00fd0376        0xa 
 .text.Asw_Diagnostic_Fault
                0x00fd0380      0x5d8 build/obj/Asw_FaultDetection.o
                0x00fd0380                Asw_Diagnostic_Fault
 *fill*         0x00fd0958        0x8 
 .text.Asw_PI_Init
                0x00fd0960       0x52 build/obj/Asw_Pid.o
                0x00fd0960                Asw_PI_Init
 *fill*         0x00fd09b2        0xe 
 .text.Asw_PI_Controller
                0x00fd09c0       0xf4 build/obj/Asw_Pid.o
                0x00fd09c0                Asw_PI_Controller
 *fill*         0x00fd0ab4        0xc 
 .text.Asw_Ramp
                0x00fd0ac0       0x36 build/obj/Asw_Pid.o
                0x00fd0ac0                Asw_Ramp
 *fill*         0x00fd0af6        0xa 
 .text.componentsInit
                0x00fd0b00       0x2c build/obj/components.o
                0x00fd0b00                componentsInit
 *fill*         0x00fd0b2c        0x4 
 .text.srand    0x00fd0b30       0x14 c:/spc5studio/eclipse/plugins/com.st.tools.spc5.tools.gnu.gcc.ppcvle.win32_4.9.4.20190604105544/toolchain/bin/../lib/gcc/powerpc-eabivle/4.9.4/../../../../powerpc-eabivle/lib\libc.a(lib_a-rand.o)
                0x00fd0b30                srand
 *fill*         0x00fd0b44        0xc 
 .text.rand     0x00fd0b50       0x4a c:/spc5studio/eclipse/plugins/com.st.tools.spc5.tools.gnu.gcc.ppcvle.win32_4.9.4.20190604105544/toolchain/bin/../lib/gcc/powerpc-eabivle/4.9.4/../../../../powerpc-eabivle/lib\libc.a(lib_a-rand.o)
                0x00fd0b50                rand
 *fill*         0x00fd0b9a        0x6 
 .text.SetLock  0x00fd0ba0      0x17e ./components/flash_driver/lib/src/c55_freegcc.a(SetLock.o)
                0x00fd0ba0                SetLock
 *fill*         0x00fd0d1e        0x2 
 .text.FlashProgram
                0x00fd0d20      0x168 ./components/flash_driver/lib/src/c55_freegcc.a(FlashProgram.o)
                0x00fd0d20                FlashProgram
 *fill*         0x00fd0e88        0x8 
 .text.FlashInit
                0x00fd0e90       0x8e ./components/flash_driver/lib/src/c55_freegcc.a(FlashInit.o)
                0x00fd0e90                FlashInit
 *fill*         0x00fd0f1e        0x2 
 .text.FlashErase
                0x00fd0f20      0x1b2 ./components/flash_driver/lib/src/c55_freegcc.a(FlashErase.o)
                0x00fd0f20                FlashErase
 *fill*         0x00fd10d2        0xe 
 .text.FlashCheckStatus
                0x00fd10e0      0x2c8 ./components/flash_driver/lib/src/c55_freegcc.a(FlashCheckStatus.o)
                0x00fd10e0                FlashCheckStatus
 *fill*         0x00fd13a8        0x8 
 .text.BlankCheck
                0x00fd13b0       0x8a ./components/flash_driver/lib/src/c55_freegcc.a(BlankCheck.o)
                0x00fd13b0                BlankCheck
 *(.gnu.linkonce.t.*)

.glink          0x00fd143a        0x0
 .glink         0x00fd143a        0x0 build/obj/boot.o

.rodata         0x00fd1440      0x258
 *(.glue_7t)
 *(.glue_7)
 *(.gcc*)
 *(.rodata)
 *(.rodata.*)
 .rodata.dma1_g0
                0x00fd1440       0x10 build/obj/spc5_edma.o
 .rodata.spc_mscr_mux_init
                0x00fd1450       0x12 build/obj/board.o
 *fill*         0x00fd1462        0xe 
 .rodata.spc_mscr_io_init
                0x00fd1470       0x98 build/obj/board.o
 *fill*         0x00fd1508        0x8 
 .rodata.pal_default_config
                0x00fd1510        0x8 build/obj/board.o
 *fill*         0x00fd1518        0x8 
 .rodata.eirqconf
                0x00fd1520        0x8 build/obj/eirq_cfg.o
                0x00fd1520                eirqconf
 *fill*         0x00fd1528        0x8 
 .rodata.ApplDescProcessReadDataByIdentifier
                0x00fd1530       0x3c build/obj/Uds_Func.o
 *fill*         0x00fd156c        0x4 
 .rodata.ApplDescProcessCommunicatonControl
                0x00fd1570       0x10 build/obj/Uds_Func.o
 .rodata.sts_DescService.11695
                0x00fd1580       0x58 build/obj/Uds_Func.o
 *fill*         0x00fd15d8        0x8 
 .rodata.TpRecvProc
                0x00fd15e0       0x10 build/obj/Tp_Func.o
 .rodata.u8g_Asw_DTC_CODE_Array
                0x00fd15f0       0x14 build/obj/Asw_Utility.o
                0x00fd15f0                u8g_Asw_DTC_CODE_Array
 *fill*         0x00fd1604        0xc 
 .rodata.Asw_LDC_Operation
                0x00fd1610       0x20 build/obj/Asw_StateMachine.o
 .rodata.Asw_Diagnostic_Fault
                0x00fd1630       0x10 build/obj/Asw_FaultDetection.o
 .rodata.str1.4
                0x00fd1640        0x4 c:/spc5studio/eclipse/plugins/com.st.tools.spc5.tools.gnu.gcc.ppcvle.win32_4.9.4.20190604105544/toolchain/bin/../lib/gcc/powerpc-eabivle/4.9.4/../../../../powerpc-eabivle/lib\libc.a(lib_a-impure.o)
                                  0x2 (size before relaxing)
 *fill*         0x00fd1644        0xc 
 .rodata.SetLock
                0x00fd1650       0x18 ./components/flash_driver/lib/src/c55_freegcc.a(SetLock.o)
 *fill*         0x00fd1668        0x8 
 .rodata.FlashErase
                0x00fd1670       0x10 ./components/flash_driver/lib/src/c55_freegcc.a(FlashErase.o)
 .rodata.FlashCheckStatus
                0x00fd1680       0x18 ./components/flash_driver/lib/src/c55_freegcc.a(FlashCheckStatus.o)
 *(.rodata1)

.sdata2         0x00fd16a0        0x0
                0x00fd96a0                __sdata2_start__ = (. + 0x8000)
 *(.sdata2)
 .sdata2        0x00fd16a0        0x0 build/obj/boot.o
 *(.sdata2.*)
 *(.gnu.linkonce.s2.*)
 *(.sbss2)
 *(.sbss2.*)
 *(.gnu.linkonce.sb2.*)

.eh_frame_hdr
 *(.eh_frame_hdr)

.eh_frame       0x00fd16a0        0x0
 *(.eh_frame)
 .eh_frame      0x00fd16a0        0x0 build/obj/boot.o

.rela.dyn       0x00fd16a0        0x0
 .rela.iplt     0x00fd16a0        0x0 build/obj/boot.o
 .rela.vectors  0x00fd16a0        0x0 build/obj/boot.o
 .rela.text.eeprom_lld_flashinit
                0x00fd16a0        0x0 build/obj/boot.o
 .rela.text.eeprom_lld_unlock
                0x00fd16a0        0x0 build/obj/boot.o
 .rela.text.eeprom_lld_flasherase
                0x00fd16a0        0x0 build/obj/boot.o
 .rela.text.eeprom_lld_flashprogram64
                0x00fd16a0        0x0 build/obj/boot.o
 .rela.text.eeprom_lld_blankcheck
                0x00fd16a0        0x0 build/obj/boot.o
 .rela.text.manage_eirq_interrupt
                0x00fd16a0        0x0 build/obj/boot.o
 .rela.text.eirqInit
                0x00fd16a0        0x0 build/obj/boot.o
 .rela.text.main
                0x00fd16a0        0x0 build/obj/boot.o
 .rela.text.Rte_Init
                0x00fd16a0        0x0 build/obj/boot.o
 .rela.text.Rte_TimeTaskCtrl
                0x00fd16a0        0x0 build/obj/boot.o
 .rela.text.Bsw_Can_Tx
                0x00fd16a0        0x0 build/obj/boot.o
 .rela.text.Bsw_Can_Rx
                0x00fd16a0        0x0 build/obj/boot.o
 .rela.text.Bsw_Can_DM1_Transmitter
                0x00fd16a0        0x0 build/obj/boot.o
 .rela.text.vector229
                0x00fd16a0        0x0 build/obj/boot.o
 .rela.text.UdsSendResponse
                0x00fd16a0        0x0 build/obj/boot.o
 .rela.text.ApplDescProcessReadDataByIdentifier
                0x00fd16a0        0x0 build/obj/boot.o
 .rela.text.ApplDescProcessClearDiagnosticInformation
                0x00fd16a0        0x0 build/obj/boot.o
 .rela.text.ApplDescProcessReadDTCInformation
                0x00fd16a0        0x0 build/obj/boot.o
 .rela.text.Uds_Func
                0x00fd16a0        0x0 build/obj/boot.o
 .rela.text.UDS_EEP_WriteDataByIdentifier
                0x00fd16a0        0x0 build/obj/boot.o
 .rela.text.Asw_DTC_Eeprom_Write
                0x00fd16a0        0x0 build/obj/boot.o
 .rela.text.GetRecoveryError
                0x00fd16a0        0x0 build/obj/boot.o
 .rela.text.GetNonRecoveryError
                0x00fd16a0        0x0 build/obj/boot.o
 .rela.text.Asw_LDC_Operation
                0x00fd16a0        0x0 build/obj/boot.o
 .rela.text.DtcMng_DtcCodeUpdate
                0x00fd16a0        0x0 build/obj/boot.o
 .rela.text.srand
                0x00fd16a0        0x0 build/obj/boot.o
 .rela.text.rand
                0x00fd16a0        0x0 build/obj/boot.o

.romdata        0x00fd16a0        0x0
                0x00fd16a0                __romdata_start__ = .

.stacks         0x40000000      0x800
                0x40000000                . = ALIGN (0x8)
                0x40000000                __irq_stack_base__ = .
                0x40000000                . = (. + __irq_stack_size__)
                0x40000000                . = ALIGN (0x8)
                0x40000000                __irq_stack_end__ = .
                0x40000000                __process_stack_base__ = .
                0x40000000                __main_thread_stack_base__ = .
                0x40000800                . = (. + __process_stack_size__)
 *fill*         0x40000000      0x800 
                0x40000800                . = ALIGN (0x8)
                0x40000800                __process_stack_end__ = .
                0x40000800                __main_thread_stack_end__ = .

.data           0x40000800      0x540 load address 0x00fd16a0
                0x40000800                . = ALIGN (0x4)
                0x40000800                __data_start__ = .
 *(.data)
 *(.data.*)
 .data.blockconf
                0x40000800       0x18 build/obj/eeprom_cfg.o
                0x40000800                blockconf
 .data.eeprom_cfg
                0x40000818        0x8 build/obj/eeprom_cfg.o
                0x40000818                eeprom_cfg
 .data.ssdConfig
                0x40000820       0x4c build/obj/eeprom_lld_cfg.o
                0x40000820                ssdConfig
 .data.u8g_Hal_task_100m_cnt
                0x4000086c        0x1 build/obj/Hal_PIT.o
                0x4000086c                u8g_Hal_task_100m_cnt
 .data.u8g_Hal_task_flag_1m
                0x4000086d        0x1 build/obj/Hal_PIT.o
                0x4000086d                u8g_Hal_task_flag_1m
 .data.u8g_Hal_task_10m_cnt
                0x4000086e        0x1 build/obj/Hal_PIT.o
                0x4000086e                u8g_Hal_task_10m_cnt
 *fill*         0x4000086f        0x1 
 .data.sts_FlashCfg
                0x40000870       0x4c build/obj/GpFunc.o
 .data.pi_I     0x400008bc       0x34 build/obj/Asw_Pid.o
 .data.pi_V     0x400008f0       0x34 build/obj/Asw_Pid.o
 *fill*         0x40000924        0x4 
 .data.impure_data
                0x40000928      0x418 c:/spc5studio/eclipse/plugins/com.st.tools.spc5.tools.gnu.gcc.ppcvle.win32_4.9.4.20190604105544/toolchain/bin/../lib/gcc/powerpc-eabivle/4.9.4/../../../../powerpc-eabivle/lib\libc.a(lib_a-impure.o)
 *(.gnu.linkonce.d.*)

.sdata          0x40000d40        0x8 load address 0x00fd1be0
                0x40000d40                . = ALIGN (0x4)
                0x40008d40                __sdata_start__ = (. + 0x8000)
 *(.sdata)
 .sdata         0x40000d40        0x0 build/obj/boot.o
                0x40008d40                _SDA_BASE_
 .sdata         0x40000d40        0x8 c:/spc5studio/eclipse/plugins/com.st.tools.spc5.tools.gnu.gcc.ppcvle.win32_4.9.4.20190604105544/toolchain/bin/../lib/gcc/powerpc-eabivle/4.9.4/../../../../powerpc-eabivle/lib\libc.a(lib_a-impure.o)
                0x40000d40                _global_impure_ptr
                0x40000d44                _impure_ptr
 *(.sdata.*)
 *(.gnu.linkonce.s.*)
                0x40000d48                __data_end__ = .

.sbss           0x40000d48        0x0
                0x40000d48                __bss_start__ = .
 *(.sbss)
 *(.sbss.*)
 *(.gnu.linkonce.sb.*)
 *(.scommon)

.bss            0x40000d48      0x543 load address 0x00fd1be8
 *(.bss)
 *(.bss.*)
 .bss.EEPROMD   0x40000d48        0xc build/obj/eeprom.o
                0x40000d48                EEPROMD
 .bss.channels  0x40000d54       0x40 build/obj/spc5_edma.o
 .bss.osalIsExtIntEnable
                0x40000d94        0x4 build/obj/osal.o
 .bss.osalIsrCnt
                0x40000d98        0x4 build/obj/osal.o
 .bss.dtcBuffer.11117
                0x40000d9c       0x1d build/obj/Rte.o
 *fill*         0x40000db9        0x1 
 .bss.u16g_Rte_pwmShift
                0x40000dba        0x2 build/obj/Rte.o
                0x40000dba                u16g_Rte_pwmShift
 .bss.readBuffer
                0x40000dbc       0x28 build/obj/Bsw_Eeprom.o
 .bss.size      0x40000de4        0x4 build/obj/Bsw_Eeprom.o
 .bss.writeBuffer
                0x40000de8       0x28 build/obj/Bsw_Eeprom.o
 .bss.updateFlag
                0x40000e10        0x1 build/obj/Bsw_Eeprom.o
 *fill*         0x40000e11        0x3 
 .bss.returnvalue
                0x40000e14        0x4 build/obj/Bsw_Eeprom.o
 .bss.u16_1scnt.11115
                0x40000e18        0x2 build/obj/Bsw_Can.o
 *fill*         0x40000e1a        0x2 
 .bss.CAN_Buffer
                0x40000e1c       0x54 build/obj/Bsw_Can.o
 .bss.u8_numberofbytes.11117
                0x40000e70        0x1 build/obj/Bsw_Can.o
 *fill*         0x40000e71        0x3 
 .bss.g_can_TxData_18EBFF1A
                0x40000e74       0x10 build/obj/Bsw_Can.o
 .bss.g_can_TxData_18FECA1A
                0x40000e84       0x10 build/obj/Bsw_Can.o
 .bss.g_can_TxData_18FF041A
                0x40000e94       0x10 build/obj/Bsw_Can.o
 .bss.dtc_number.11113
                0x40000ea4        0x1 build/obj/Bsw_Can.o
 *fill*         0x40000ea5        0x3 
 .bss.g_can_TxData_18ECFF1A
                0x40000ea8       0x10 build/obj/Bsw_Can.o
 .bss.u8g_Bsw_can1ErrStatus
                0x40000eb8        0x1 build/obj/Bsw_Can.o
                0x40000eb8                u8g_Bsw_can1ErrStatus
 *fill*         0x40000eb9        0x3 
 .bss.DM1_Array
                0x40000ebc       0x14 build/obj/Bsw_Can.o
 .bss.u32s_LDC_ERR_Sts_bak.11116
                0x40000ed0        0x4 build/obj/Bsw_Can.o
 .bss.u16s_dm1_meg_cnt
                0x40000ed4        0x1 build/obj/Bsw_Can.o
 .bss.u8_numberofpackets.11118
                0x40000ed5        0x1 build/obj/Bsw_Can.o
 .bss.u8g_Bsw_can2ErrStatus
                0x40000ed6        0x1 build/obj/Bsw_Can.o
                0x40000ed6                u8g_Bsw_can2ErrStatus
 .bss.u8s_TpDt_cnt
                0x40000ed7        0x1 build/obj/Bsw_Can.o
 .bss.dtc_number_bak.11114
                0x40000ed8        0x1 build/obj/Bsw_Can.o
 .bss.u8_zerocount.11128
                0x40000ed9        0x1 build/obj/Bsw_Can.o
 .bss.u8_FFCount
                0x40000eda        0x1 build/obj/Bsw_Can.o
 *fill*         0x40000edb        0x1 
 .bss.u16g_Bsw_realVout
                0x40000edc        0x2 build/obj/Bsw_Adc.o
                0x40000edc                u16g_Bsw_realVout
 .bss.u16g_Bsw_realTemp
                0x40000ede        0x2 build/obj/Bsw_Adc.o
                0x40000ede                u16g_Bsw_realTemp
 .bss.u16g_Bsw_realIout
                0x40000ee0        0x2 build/obj/Bsw_Adc.o
                0x40000ee0                u16g_Bsw_realIout
 .bss.u16g_Bsw_realVin
                0x40000ee2        0x2 build/obj/Bsw_Adc.o
                0x40000ee2                u16g_Bsw_realVin
 .bss.u32g_Bsw_AdcIout_Q15
                0x40000ee4        0x4 build/obj/Bsw_Adc.o
                0x40000ee4                u32g_Bsw_AdcIout_Q15
 .bss.u16g_Bsw_realBatt
                0x40000ee8        0x2 build/obj/Bsw_Adc.o
                0x40000ee8                u16g_Bsw_realBatt
 *fill*         0x40000eea        0x2 
 .bss.u32g_Bsw_AdcVout_Q15
                0x40000eec        0x4 build/obj/Bsw_Adc.o
                0x40000eec                u32g_Bsw_AdcVout_Q15
 .bss.pwmB      0x40000ef0        0x4 build/obj/Hal_Pwm.o
 .bss.Hist_KeyIn.11096
                0x40000ef4        0xe build/obj/Hal_Adc.o
 .bss.Hist_Iout.11099
                0x40000f02        0xe build/obj/Hal_Adc.o
 .bss.u16g_Hal_AverAdc_KeyIn
                0x40000f10        0x2 build/obj/Hal_Adc.o
                0x40000f10                u16g_Hal_AverAdc_KeyIn
 .bss.u16g_Hal_AverAdc_Vin
                0x40000f12        0x2 build/obj/Hal_Adc.o
                0x40000f12                u16g_Hal_AverAdc_Vin
 .bss.Index.11095
                0x40000f14        0x2 build/obj/Hal_Adc.o
 .bss.u16g_Hal_AverAdc_Vout
                0x40000f16        0x2 build/obj/Hal_Adc.o
                0x40000f16                u16g_Hal_AverAdc_Vout
 .bss.u16g_Hal_AverAdc_Iout
                0x40000f18        0x2 build/obj/Hal_Adc.o
                0x40000f18                u16g_Hal_AverAdc_Iout
 .bss.Hist_Vin.11100
                0x40000f1a        0xe build/obj/Hal_Adc.o
 .bss.Hist_Vout.11098
                0x40000f28        0xe build/obj/Hal_Adc.o
 .bss.u16g_Hal_AverAdc_Batt
                0x40000f36        0x2 build/obj/Hal_Adc.o
                0x40000f36                u16g_Hal_AverAdc_Batt
 .bss.Hist_14VVCC.11097
                0x40000f38        0xe build/obj/Hal_Adc.o
 .bss.Hist_Temp.11101
                0x40000f46        0xe build/obj/Hal_Adc.o
 .bss.u16g_Hal_AverAdc_Temp
                0x40000f54        0x2 build/obj/Hal_Adc.o
                0x40000f54                u16g_Hal_AverAdc_Temp
 *fill*         0x40000f56        0x2 
 .bss.u32g_Hal_TimeoutCan1Cnt
                0x40000f58        0x4 build/obj/Hal_Can.o
                0x40000f58                u32g_Hal_TimeoutCan1Cnt
 .bss.g_can_RxData_18FF31EF
                0x40000f5c       0x10 build/obj/Hal_Can.o
                0x40000f5c                g_can_RxData_18FF31EF
 .bss.u8g_can1BusOffFlag
                0x40000f6c        0x1 build/obj/Hal_Can.o
                0x40000f6c                u8g_can1BusOffFlag
 *fill*         0x40000f6d        0x3 
 .bss.u32g_Hal_TimeoutCan2Cnt
                0x40000f70        0x4 build/obj/Hal_Can.o
                0x40000f70                u32g_Hal_TimeoutCan2Cnt
 .bss.u8g_Hal_RecvNewDataforDiag
                0x40000f74        0x1 build/obj/Hal_Can.o
                0x40000f74                u8g_Hal_RecvNewDataforDiag
 *fill*         0x40000f75        0x3 
 .bss.g_can_RxData_REQUEST
                0x40000f78       0x10 build/obj/Hal_Can.o
                0x40000f78                g_can_RxData_REQUEST
 .bss.u8g_can2BusOffFlag
                0x40000f88        0x1 build/obj/Hal_Can.o
                0x40000f88                u8g_can2BusOffFlag
 .bss.u8g_CAN_TX_Ctrl
                0x40000f89        0x1 build/obj/Uds_Func.o
                0x40000f89                u8g_CAN_TX_Ctrl
 *fill*         0x40000f8a        0x2 
 .bss.u8g_Eeprom_WriteData
                0x40000f8c       0x20 build/obj/Uds_Func.o
                0x40000f8c                u8g_Eeprom_WriteData
 .bss.u8g_ReqReset
                0x40000fac        0x1 build/obj/Uds_Func.o
                0x40000fac                u8g_ReqReset
 .bss.u8g_CAN_RX_Ctrl
                0x40000fad        0x1 build/obj/Uds_Func.o
                0x40000fad                u8g_CAN_RX_Ctrl
 .bss.u8_DtcControl
                0x40000fae        0x1 build/obj/Uds_Func.o
                0x40000fae                u8_DtcControl
 *fill*         0x40000faf        0x1 
 .bss.u16s_TestPresentTimeout_cnt
                0x40000fb0        0x2 build/obj/Uds_Func.o
 *fill*         0x40000fb2        0x2 
 .bss.u8s_Seed.11738
                0x40000fb4        0x4 build/obj/Uds_Func.o
 .bss.st_MsgContext.11696
                0x40000fb8       0x18 build/obj/Uds_Func.o
 .bss.u8s_Lockstate
                0x40000fd0        0x1 build/obj/Uds_Func.o
 .bss.u8s_SecuritySequence
                0x40000fd1        0x1 build/obj/Uds_Func.o
 .bss.u8s_Session
                0x40000fd2        0x1 build/obj/Uds_Func.o
 .bss.u8s_DescNegResCode
                0x40000fd3        0x1 build/obj/Uds_Func.o
 .bss.u8g_SingleRxBuf
                0x40000fd4        0x8 build/obj/Tp_Func.o
                0x40000fd4                u8g_SingleRxBuf
 .bss.u8s_TpTxDataCnt
                0x40000fdc        0x1 build/obj/Tp_Func.o
 .bss.u8g_RxFrameType
                0x40000fdd        0x1 build/obj/Tp_Func.o
                0x40000fdd                u8g_RxFrameType
 .bss.u8s_TpRxDataCnt
                0x40000fde        0x1 build/obj/Tp_Func.o
 .bss.u8s_TpRxDataSize
                0x40000fdf        0x1 build/obj/Tp_Func.o
 .bss.u8_FrameType.11114
                0x40000fe0        0x1 build/obj/Tp_Func.o
 *fill*         0x40000fe1        0x1 
 .bss.u16s_STminTickCnt
                0x40000fe2        0x2 build/obj/Tp_Func.o
 .bss.u8g_TpTxBuf
                0x40000fe4       0x96 build/obj/Tp_Func.o
                0x40000fe4                u8g_TpTxBuf
 .bss.u8s_TpRxBufIdx
                0x4000107a        0x1 build/obj/Tp_Func.o
 *fill*         0x4000107b        0x1 
 .bss.u8_CANFrameData.11119
                0x4000107c        0x8 build/obj/Tp_Func.o
 .bss.u8s_TpTxBufIdx
                0x40001084        0x1 build/obj/Tp_Func.o
 .bss.u8s_TpTxState
                0x40001085        0x1 build/obj/Tp_Func.o
 .bss.u8s_TpRxSeqNum
                0x40001086        0x1 build/obj/Tp_Func.o
 *fill*         0x40001087        0x1 
 .bss.u16s_STMin_tm
                0x40001088        0x2 build/obj/Tp_Func.o
 *fill*         0x4000108a        0x2 
 .bss.u8g_TpRxBuf
                0x4000108c       0x96 build/obj/Tp_Func.o
                0x4000108c                u8g_TpRxBuf
 .bss.u8s_TpTxSeqNum
                0x40001122        0x1 build/obj/Tp_Func.o
 *fill*         0x40001123        0x1 
 .bss.u32g_Asw_present_addr
                0x40001124        0x4 build/obj/Asw_Utility.o
                0x40001124                u32g_Asw_present_addr
 .bss.u8g_Asw_Ldc_State_Run
                0x40001128        0x1 build/obj/Asw_Utility.o
                0x40001128                u8g_Asw_Ldc_State_Run
 *fill*         0x40001129        0x3 
 .bss.u32g_Asw_EEPROM_BUFFER_DID
                0x4000112c       0x20 build/obj/Asw_Utility.o
                0x4000112c                u32g_Asw_EEPROM_BUFFER_DID
 .bss.u32g_Asw_EEPROM_LAST_BUFFER_DID
                0x4000114c       0x20 build/obj/Asw_Utility.o
                0x4000114c                u32g_Asw_EEPROM_LAST_BUFFER_DID
 .bss.u32s_LDC_ERR_Sts_bku.11113
                0x4000116c        0x4 build/obj/Asw_Utility.o
 .bss.u8g_Asw_LDC_ENB
                0x40001170        0x1 build/obj/Asw_Utility.o
                0x40001170                u8g_Asw_LDC_ENB
 *fill*         0x40001171        0x3 
 .bss.u32g_Asw_VoReference
                0x40001174        0x4 build/obj/Asw_Utility.o
                0x40001174                u32g_Asw_VoReference
 .bss.u8g_Asw_Ldc_State_Ready
                0x40001178        0x1 build/obj/Asw_Utility.o
                0x40001178                u8g_Asw_Ldc_State_Ready
 .bss.u8g_Asw_WriteEEPROM_Flag
                0x40001179        0x1 build/obj/Asw_Utility.o
                0x40001179                u8g_Asw_WriteEEPROM_Flag
 *fill*         0x4000117a        0x2 
 .bss.u32g_Asw_EEPROM_LAST_BUFFER_DTC
                0x4000117c       0x20 build/obj/Asw_Utility.o
                0x4000117c                u32g_Asw_EEPROM_LAST_BUFFER_DTC
 .bss.u32g_Asw_IoReference
                0x4000119c        0x4 build/obj/Asw_Utility.o
                0x4000119c                u32g_Asw_IoReference
 .bss.overTempFlag.11156
                0x400011a0        0x1 build/obj/Asw_Utility.o
 *fill*         0x400011a1        0x3 
 .bss.u32g_Asw_EEPROM_BUFFER_DTC
                0x400011a4       0x20 build/obj/Asw_Utility.o
                0x400011a4                u32g_Asw_EEPROM_BUFFER_DTC
 .bss.eng_LDC_Sts
                0x400011c4        0x4 build/obj/Asw_StateMachine.o
                0x400011c4                eng_LDC_Sts
 .bss.u16s_Check_cnt
                0x400011c8        0x2 build/obj/Asw_StateMachine.o
 .bss.u16s_PowerLatch_cnt
                0x400011ca        0x2 build/obj/Asw_StateMachine.o
 .bss.u32_IoRef_SS
                0x400011cc        0x4 build/obj/Asw_StateMachine.o
                0x400011cc                u32_IoRef_SS
 .bss.Dia_Iout  0x400011d0       0x20 build/obj/Asw_FaultDetection.o
                0x400011d0                Dia_Iout
 .bss.u8_nrm_cnt.11203
                0x400011f0        0x1 build/obj/Asw_FaultDetection.o
 .bss.u8_drt_cnt.11208
                0x400011f1        0x1 build/obj/Asw_FaultDetection.o
 *fill*         0x400011f2        0x2 
 .bss.Dia_Vin   0x400011f4       0x20 build/obj/Asw_FaultDetection.o
                0x400011f4                Dia_Vin
 .bss.Dia_Batt  0x40001214       0x20 build/obj/Asw_FaultDetection.o
                0x40001214                Dia_Batt
 .bss.Dia_Temp_Sens
                0x40001234        0xc build/obj/Asw_FaultDetection.o
                0x40001234                Dia_Temp_Sens
 .bss.Dia_CAN   0x40001240        0x8 build/obj/Asw_FaultDetection.o
                0x40001240                Dia_CAN
 .bss.Dia_Vout  0x40001248       0x20 build/obj/Asw_FaultDetection.o
                0x40001248                Dia_Vout
 .bss.u32g_LDC_ERR_Sts
                0x40001268        0x4 build/obj/Asw_FaultDetection.o
                0x40001268                u32g_LDC_ERR_Sts
 .bss.Dia_Iout_Sens
                0x4000126c        0xc build/obj/Asw_FaultDetection.o
                0x4000126c                Dia_Iout_Sens
 .bss.Dia_Temp  0x40001278       0x12 build/obj/Asw_FaultDetection.o
                0x40001278                Dia_Temp
 .bss.u8g_Asw_LDC_SYS_ERR_BATTERY_DIS
                0x4000128a        0x1 build/obj/Asw_FaultDetection.o
                0x4000128a                u8g_Asw_LDC_SYS_ERR_BATTERY_DIS
 *(.gnu.linkonce.b.*)
 *(COMMON)
                0x4000128b                __bss_end__ = .
                0x4000128b                __heap_base__ = __bss_end__
                0x4000c000                __heap_end__ = __ram_end__
LOAD ./components/flash_driver/lib/src/c55_freegcc.a
LOAD ./components/flash_driver/lib/src/c55_freegcc.a
LOAD c:/spc5studio/eclipse/plugins/com.st.tools.spc5.tools.gnu.gcc.ppcvle.win32_4.9.4.20190604105544/toolchain/bin/../lib/gcc/powerpc-eabivle/4.9.4\libgcc.a
LOAD c:/spc5studio/eclipse/plugins/com.st.tools.spc5.tools.gnu.gcc.ppcvle.win32_4.9.4.20190604105544/toolchain/bin/../lib/gcc/powerpc-eabivle/4.9.4/../../../../powerpc-eabivle/lib\libc.a
LOAD c:/spc5studio/eclipse/plugins/com.st.tools.spc5.tools.gnu.gcc.ppcvle.win32_4.9.4.20190604105544/toolchain/bin/../lib/gcc/powerpc-eabivle/4.9.4\libgcc.a
OUTPUT(build/out.elf elf32-powerpc)

.iplt           0x40001290        0x0 load address 0x00fd2130
 .iplt          0x40001290        0x0 build/obj/boot.o

.PPC.EMB.apuinfo
                0x00000000       0x1c
 .PPC.EMB.apuinfo
                0x00000000       0x18 build/obj/boot.o
 .PPC.EMB.apuinfo
                0x00000018       0x18 build/obj/crt0.o
 .PPC.EMB.apuinfo
                0x00000030       0x18 build/obj/vectors.o
 .PPC.EMB.apuinfo
                0x00000048       0x18 build/obj/ivor.o
 .PPC.EMB.apuinfo
                0x00000060       0x1c build/obj/eeprom.o
 .PPC.EMB.apuinfo
                0x0000007c       0x1c build/obj/eeprom_lld.o
 .PPC.EMB.apuinfo
                0x00000098       0x18 build/obj/spc5_lld.o
 .PPC.EMB.apuinfo
                0x000000b0       0x18 build/obj/spc5_edma.o
 .PPC.EMB.apuinfo
                0x000000c8       0x18 build/obj/pal.o
 .PPC.EMB.apuinfo
                0x000000e0       0x1c build/obj/clock.o
 .PPC.EMB.apuinfo
                0x000000fc       0x18 build/obj/irq.o
 .PPC.EMB.apuinfo
                0x00000114       0x18 build/obj/eirq.o
 .PPC.EMB.apuinfo
                0x0000012c       0x18 build/obj/osal.o
 .PPC.EMB.apuinfo
                0x00000144       0x18 build/obj/systimer.o
 .PPC.EMB.apuinfo
                0x0000015c       0x18 build/obj/board.o
 .PPC.EMB.apuinfo
                0x00000174       0x18 build/obj/irq_cfg.o
 .PPC.EMB.apuinfo
                0x0000018c       0x18 build/obj/main.o
 .PPC.EMB.apuinfo
                0x000001a4       0x18 build/obj/Rte.o
 .PPC.EMB.apuinfo
                0x000001bc       0x1c build/obj/Bsw_Eeprom.o
 .PPC.EMB.apuinfo
                0x000001d8       0x18 build/obj/Bsw_Can.o
 .PPC.EMB.apuinfo
                0x000001f0       0x18 build/obj/Bsw_Pwm.o
 .PPC.EMB.apuinfo
                0x00000208       0x18 build/obj/Bsw_Adc.o
 .PPC.EMB.apuinfo
                0x00000220       0x18 build/obj/Bsw_PIT.o
 .PPC.EMB.apuinfo
                0x00000238       0x18 build/obj/Hal_Pwm.o
 .PPC.EMB.apuinfo
                0x00000250       0x18 build/obj/Hal_Adc.o
 .PPC.EMB.apuinfo
                0x00000268       0x18 build/obj/Hal_PIT.o
 .PPC.EMB.apuinfo
                0x00000280       0x18 build/obj/Hal_Can.o
 .PPC.EMB.apuinfo
                0x00000298       0x18 build/obj/Uds_Func.o
 .PPC.EMB.apuinfo
                0x000002b0       0x18 build/obj/Tp_Func.o
 .PPC.EMB.apuinfo
                0x000002c8       0x1c build/obj/GpFunc.o
 .PPC.EMB.apuinfo
                0x000002e4       0x1c build/obj/Asw_Utility.o
 .PPC.EMB.apuinfo
                0x00000300       0x18 build/obj/Asw_StateMachine.o
 .PPC.EMB.apuinfo
                0x00000318       0x18 build/obj/Asw_DtcMng.o
 .PPC.EMB.apuinfo
                0x00000330       0x18 build/obj/Asw_FaultDetection.o
 .PPC.EMB.apuinfo
                0x00000348       0x1c build/obj/Asw_Pid.o
 .PPC.EMB.apuinfo
                0x00000364       0x18 build/obj/components.o
 .PPC.EMB.apuinfo
                0x0000037c       0x18 c:/spc5studio/eclipse/plugins/com.st.tools.spc5.tools.gnu.gcc.ppcvle.win32_4.9.4.20190604105544/toolchain/bin/../lib/gcc/powerpc-eabivle/4.9.4/../../../../powerpc-eabivle/lib\libc.a(lib_a-memset.o)
 .PPC.EMB.apuinfo
                0x00000394       0x18 c:/spc5studio/eclipse/plugins/com.st.tools.spc5.tools.gnu.gcc.ppcvle.win32_4.9.4.20190604105544/toolchain/bin/../lib/gcc/powerpc-eabivle/4.9.4/../../../../powerpc-eabivle/lib\libc.a(lib_a-rand.o)
 .PPC.EMB.apuinfo
                0x000003ac       0x1c ./components/flash_driver/lib/src/c55_freegcc.a(SetLock.o)
 .PPC.EMB.apuinfo
                0x000003c8       0x1c ./components/flash_driver/lib/src/c55_freegcc.a(FlashProgram.o)
 .PPC.EMB.apuinfo
                0x000003e4       0x18 ./components/flash_driver/lib/src/c55_freegcc.a(FlashInit.o)
 .PPC.EMB.apuinfo
                0x000003fc       0x18 ./components/flash_driver/lib/src/c55_freegcc.a(FlashErase.o)
 .PPC.EMB.apuinfo
                0x00000414       0x1c ./components/flash_driver/lib/src/c55_freegcc.a(FlashCheckStatus.o)
 .PPC.EMB.apuinfo
                0x00000430       0x1c ./components/flash_driver/lib/src/c55_freegcc.a(BlankCheck.o)
 .PPC.EMB.apuinfo
                0x0000044c       0x18 c:/spc5studio/eclipse/plugins/com.st.tools.spc5.tools.gnu.gcc.ppcvle.win32_4.9.4.20190604105544/toolchain/bin/../lib/gcc/powerpc-eabivle/4.9.4\libgcc.a(_ucmpdi2.o)

.comment        0x00000000       0x8e
 .comment       0x00000000       0x8e build/obj/eeprom.o
                                 0x8f (size before relaxing)
 .comment       0x0000008e       0x8f build/obj/eeprom_lld.o
 .comment       0x0000008e       0x8f build/obj/spc5_lld.o
 .comment       0x0000008e       0x8f build/obj/spc5_edma.o
 .comment       0x0000008e       0x8f build/obj/pal.o
 .comment       0x0000008e       0x8f build/obj/clock.o
 .comment       0x0000008e       0x8f build/obj/irq.o
 .comment       0x0000008e       0x8f build/obj/eirq.o
 .comment       0x0000008e       0x8f build/obj/osal.o
 .comment       0x0000008e       0x8f build/obj/systimer.o
 .comment       0x0000008e       0x8f build/obj/eeprom_cfg.o
 .comment       0x0000008e       0x8f build/obj/eeprom_lld_cfg.o
 .comment       0x0000008e       0x8f build/obj/board.o
 .comment       0x0000008e       0x8f build/obj/irq_cfg.o
 .comment       0x0000008e       0x8f build/obj/eirq_cfg.o
 .comment       0x0000008e       0x8f build/obj/main.o
 .comment       0x0000008e       0x8f build/obj/Rte.o
 .comment       0x0000008e       0x8f build/obj/Bsw_Eeprom.o
 .comment       0x0000008e       0x8f build/obj/Bsw_Can.o
 .comment       0x0000008e       0x8f build/obj/Bsw_Pwm.o
 .comment       0x0000008e       0x8f build/obj/Bsw_Adc.o
 .comment       0x0000008e       0x8f build/obj/Bsw_PIT.o
 .comment       0x0000008e       0x8f build/obj/Hal_Pwm.o
 .comment       0x0000008e       0x8f build/obj/Hal_Adc.o
 .comment       0x0000008e       0x8f build/obj/Hal_PIT.o
 .comment       0x0000008e       0x8f build/obj/Hal_Can.o
 .comment       0x0000008e       0x8f build/obj/Uds_Func.o
 .comment       0x0000008e       0x8f build/obj/Tp_Func.o
 .comment       0x0000008e       0x8f build/obj/GpFunc.o
 .comment       0x0000008e       0x8f build/obj/Asw_Utility.o
 .comment       0x0000008e       0x8f build/obj/Asw_StateMachine.o
 .comment       0x0000008e       0x8f build/obj/Asw_DtcMng.o
 .comment       0x0000008e       0x8f build/obj/Asw_FaultDetection.o
 .comment       0x0000008e       0x8f build/obj/Asw_Pid.o
 .comment       0x0000008e       0x8f build/obj/components.o
 .comment       0x0000008e       0x8f ./components/flash_driver/lib/src/c55_freegcc.a(SetLock.o)
 .comment       0x0000008e       0x8f ./components/flash_driver/lib/src/c55_freegcc.a(FlashProgram.o)
 .comment       0x0000008e       0x8f ./components/flash_driver/lib/src/c55_freegcc.a(FlashInit.o)
 .comment       0x0000008e       0x8f ./components/flash_driver/lib/src/c55_freegcc.a(FlashErase.o)
 .comment       0x0000008e       0x8f ./components/flash_driver/lib/src/c55_freegcc.a(FlashCheckStatus.o)
 .comment       0x0000008e       0x8f ./components/flash_driver/lib/src/c55_freegcc.a(BlankCheck.o)

.debug_info     0x00000000    0x1c58c
 .debug_info    0x00000000      0x937 build/obj/eeprom.o
 .debug_info    0x00000937      0x74e build/obj/eeprom_lld.o
 .debug_info    0x00001085       0xa6 build/obj/spc5_lld.o
 .debug_info    0x0000112b     0x272d build/obj/spc5_edma.o
 .debug_info    0x00003858      0xea0 build/obj/pal.o
 .debug_info    0x000046f8     0x6844 build/obj/clock.o
 .debug_info    0x0000af3c      0x121 build/obj/irq.o
 .debug_info    0x0000b05d      0xea1 build/obj/eirq.o
 .debug_info    0x0000befe      0x240 build/obj/osal.o
 .debug_info    0x0000c13e      0x3ba build/obj/systimer.o
 .debug_info    0x0000c4f8      0x14d build/obj/eeprom_cfg.o
 .debug_info    0x0000c645      0x199 build/obj/eeprom_lld_cfg.o
 .debug_info    0x0000c7de      0x247 build/obj/board.o
 .debug_info    0x0000ca25       0x8c build/obj/irq_cfg.o
 .debug_info    0x0000cab1      0x12b build/obj/eirq_cfg.o
 .debug_info    0x0000cbdc       0xe4 build/obj/main.o
 .debug_info    0x0000ccc0      0x699 build/obj/Rte.o
 .debug_info    0x0000d359      0x87a build/obj/Bsw_Eeprom.o
 .debug_info    0x0000dbd3      0x9f5 build/obj/Bsw_Can.o
 .debug_info    0x0000e5c8      0x15e build/obj/Bsw_Pwm.o
 .debug_info    0x0000e726      0x1c1 build/obj/Bsw_Adc.o
 .debug_info    0x0000e8e7       0xa5 build/obj/Bsw_PIT.o
 .debug_info    0x0000e98c      0xe37 build/obj/Hal_Pwm.o
 .debug_info    0x0000f7c3     0x3ff4 build/obj/Hal_Adc.o
 .debug_info    0x000137b7      0x4c9 build/obj/Hal_PIT.o
 .debug_info    0x00013c80     0x1ae1 build/obj/Hal_Can.o
 .debug_info    0x00015761      0xf71 build/obj/Uds_Func.o
 .debug_info    0x000166d2      0x545 build/obj/Tp_Func.o
 .debug_info    0x00016c17     0x1406 build/obj/GpFunc.o
 .debug_info    0x0001801d      0x5ff build/obj/Asw_Utility.o
 .debug_info    0x0001861c     0x1052 build/obj/Asw_StateMachine.o
 .debug_info    0x0001966e      0xe68 build/obj/Asw_DtcMng.o
 .debug_info    0x0001a4d6      0x987 build/obj/Asw_FaultDetection.o
 .debug_info    0x0001ae5d      0x330 build/obj/Asw_Pid.o
 .debug_info    0x0001b18d      0x118 build/obj/components.o
 .debug_info    0x0001b2a5      0x23d ./components/flash_driver/lib/src/c55_freegcc.a(SetLock.o)
 .debug_info    0x0001b4e2      0x3b9 ./components/flash_driver/lib/src/c55_freegcc.a(FlashProgram.o)
 .debug_info    0x0001b89b      0x1cb ./components/flash_driver/lib/src/c55_freegcc.a(FlashInit.o)
 .debug_info    0x0001ba66      0x28d ./components/flash_driver/lib/src/c55_freegcc.a(FlashErase.o)
 .debug_info    0x0001bcf3      0x510 ./components/flash_driver/lib/src/c55_freegcc.a(FlashCheckStatus.o)
 .debug_info    0x0001c203      0x389 ./components/flash_driver/lib/src/c55_freegcc.a(BlankCheck.o)

.debug_abbrev   0x00000000     0x3790
 .debug_abbrev  0x00000000      0x214 build/obj/eeprom.o
 .debug_abbrev  0x00000214      0x157 build/obj/eeprom_lld.o
 .debug_abbrev  0x0000036b       0x62 build/obj/spc5_lld.o
 .debug_abbrev  0x000003cd      0x2d1 build/obj/spc5_edma.o
 .debug_abbrev  0x0000069e      0x180 build/obj/pal.o
 .debug_abbrev  0x0000081e      0x206 build/obj/clock.o
 .debug_abbrev  0x00000a24       0xca build/obj/irq.o
 .debug_abbrev  0x00000aee      0x1d2 build/obj/eirq.o
 .debug_abbrev  0x00000cc0      0x114 build/obj/osal.o
 .debug_abbrev  0x00000dd4      0x194 build/obj/systimer.o
 .debug_abbrev  0x00000f68       0x7b build/obj/eeprom_cfg.o
 .debug_abbrev  0x00000fe3       0x6f build/obj/eeprom_lld_cfg.o
 .debug_abbrev  0x00001052       0xd1 build/obj/board.o
 .debug_abbrev  0x00001123       0x44 build/obj/irq_cfg.o
 .debug_abbrev  0x00001167       0x89 build/obj/eirq_cfg.o
 .debug_abbrev  0x000011f0       0x89 build/obj/main.o
 .debug_abbrev  0x00001279      0x1bf build/obj/Rte.o
 .debug_abbrev  0x00001438      0x265 build/obj/Bsw_Eeprom.o
 .debug_abbrev  0x0000169d      0x219 build/obj/Bsw_Can.o
 .debug_abbrev  0x000018b6       0x98 build/obj/Bsw_Pwm.o
 .debug_abbrev  0x0000194e       0xb1 build/obj/Bsw_Adc.o
 .debug_abbrev  0x000019ff       0x62 build/obj/Bsw_PIT.o
 .debug_abbrev  0x00001a61      0x1b3 build/obj/Hal_Pwm.o
 .debug_abbrev  0x00001c14      0x1ff build/obj/Hal_Adc.o
 .debug_abbrev  0x00001e13      0x1c9 build/obj/Hal_PIT.o
 .debug_abbrev  0x00001fdc      0x1fa build/obj/Hal_Can.o
 .debug_abbrev  0x000021d6      0x276 build/obj/Uds_Func.o
 .debug_abbrev  0x0000244c      0x1e9 build/obj/Tp_Func.o
 .debug_abbrev  0x00002635      0x2e6 build/obj/GpFunc.o
 .debug_abbrev  0x0000291b      0x202 build/obj/Asw_Utility.o
 .debug_abbrev  0x00002b1d      0x25a build/obj/Asw_StateMachine.o
 .debug_abbrev  0x00002d77      0x185 build/obj/Asw_DtcMng.o
 .debug_abbrev  0x00002efc      0x1fc build/obj/Asw_FaultDetection.o
 .debug_abbrev  0x000030f8      0x152 build/obj/Asw_Pid.o
 .debug_abbrev  0x0000324a       0x73 build/obj/components.o
 .debug_abbrev  0x000032bd       0xae ./components/flash_driver/lib/src/c55_freegcc.a(SetLock.o)
 .debug_abbrev  0x0000336b       0xd3 ./components/flash_driver/lib/src/c55_freegcc.a(FlashProgram.o)
 .debug_abbrev  0x0000343e       0xb0 ./components/flash_driver/lib/src/c55_freegcc.a(FlashInit.o)
 .debug_abbrev  0x000034ee       0xcc ./components/flash_driver/lib/src/c55_freegcc.a(FlashErase.o)
 .debug_abbrev  0x000035ba      0x103 ./components/flash_driver/lib/src/c55_freegcc.a(FlashCheckStatus.o)
 .debug_abbrev  0x000036bd       0xd3 ./components/flash_driver/lib/src/c55_freegcc.a(BlankCheck.o)

.debug_loc      0x00000000     0x5dd7
 .debug_loc     0x00000000      0xdbb build/obj/eeprom.o
 .debug_loc     0x00000dbb      0x2c7 build/obj/eeprom_lld.o
 .debug_loc     0x00001082       0x2c build/obj/spc5_lld.o
 .debug_loc     0x000010ae      0x3e6 build/obj/spc5_edma.o
 .debug_loc     0x00001494       0x83 build/obj/pal.o
 .debug_loc     0x00001517      0x163 build/obj/clock.o
 .debug_loc     0x0000167a       0x2c build/obj/irq.o
 .debug_loc     0x000016a6      0x1e3 build/obj/eirq.o
 .debug_loc     0x00001889       0xcf build/obj/osal.o
 .debug_loc     0x00001958       0x58 build/obj/systimer.o
 .debug_loc     0x000019b0       0x2c build/obj/board.o
 .debug_loc     0x000019dc       0x20 build/obj/main.o
 .debug_loc     0x000019fc       0x58 build/obj/Rte.o
 .debug_loc     0x00001a54      0x4b9 build/obj/Bsw_Eeprom.o
 .debug_loc     0x00001f0d      0x3f2 build/obj/Bsw_Can.o
 .debug_loc     0x000022ff       0xd1 build/obj/Bsw_Pwm.o
 .debug_loc     0x000023d0       0x2c build/obj/Bsw_Adc.o
 .debug_loc     0x000023fc       0x2c build/obj/Bsw_PIT.o
 .debug_loc     0x00002428       0x4b build/obj/Hal_Pwm.o
 .debug_loc     0x00002473       0xd6 build/obj/Hal_Adc.o
 .debug_loc     0x00002549       0x58 build/obj/Hal_PIT.o
 .debug_loc     0x000025a1      0x1bc build/obj/Hal_Can.o
 .debug_loc     0x0000275d      0xd1d build/obj/Uds_Func.o
 .debug_loc     0x0000347a      0x68b build/obj/Tp_Func.o
 .debug_loc     0x00003b05      0x2f1 build/obj/GpFunc.o
 .debug_loc     0x00003df6      0x6f7 build/obj/Asw_Utility.o
 .debug_loc     0x000044ed       0xd7 build/obj/Asw_StateMachine.o
 .debug_loc     0x000045c4      0x463 build/obj/Asw_DtcMng.o
 .debug_loc     0x00004a27      0x15b build/obj/Asw_FaultDetection.o
 .debug_loc     0x00004b82      0x257 build/obj/Asw_Pid.o
 .debug_loc     0x00004dd9       0x2c build/obj/components.o
 .debug_loc     0x00004e05      0x455 ./components/flash_driver/lib/src/c55_freegcc.a(SetLock.o)
 .debug_loc     0x0000525a      0x2a0 ./components/flash_driver/lib/src/c55_freegcc.a(FlashProgram.o)
 .debug_loc     0x000054fa       0x82 ./components/flash_driver/lib/src/c55_freegcc.a(FlashInit.o)
 .debug_loc     0x0000557c      0x1c9 ./components/flash_driver/lib/src/c55_freegcc.a(FlashErase.o)
 .debug_loc     0x00005745      0x582 ./components/flash_driver/lib/src/c55_freegcc.a(FlashCheckStatus.o)
 .debug_loc     0x00005cc7      0x110 ./components/flash_driver/lib/src/c55_freegcc.a(BlankCheck.o)

.debug_aranges  0x00000000      0x8f8
 .debug_aranges
                0x00000000       0x58 build/obj/eeprom.o
 .debug_aranges
                0x00000058       0x40 build/obj/eeprom_lld.o
 .debug_aranges
                0x00000098       0x20 build/obj/spc5_lld.o
 .debug_aranges
                0x000000b8       0xb8 build/obj/spc5_edma.o
 .debug_aranges
                0x00000170       0x38 build/obj/pal.o
 .debug_aranges
                0x000001a8       0x50 build/obj/clock.o
 .debug_aranges
                0x000001f8       0x28 build/obj/irq.o
 .debug_aranges
                0x00000220       0x48 build/obj/eirq.o
 .debug_aranges
                0x00000268       0x50 build/obj/osal.o
 .debug_aranges
                0x000002b8       0x28 build/obj/systimer.o
 .debug_aranges
                0x000002e0       0x18 build/obj/eeprom_cfg.o
 .debug_aranges
                0x000002f8       0x18 build/obj/eeprom_lld_cfg.o
 .debug_aranges
                0x00000310       0x20 build/obj/board.o
 .debug_aranges
                0x00000330       0x20 build/obj/irq_cfg.o
 .debug_aranges
                0x00000350       0x18 build/obj/eirq_cfg.o
 .debug_aranges
                0x00000368       0x20 build/obj/main.o
 .debug_aranges
                0x00000388       0x28 build/obj/Rte.o
 .debug_aranges
                0x000003b0       0x58 build/obj/Bsw_Eeprom.o
 .debug_aranges
                0x00000408       0x48 build/obj/Bsw_Can.o
 .debug_aranges
                0x00000450       0x38 build/obj/Bsw_Pwm.o
 .debug_aranges
                0x00000488       0x28 build/obj/Bsw_Adc.o
 .debug_aranges
                0x000004b0       0x20 build/obj/Bsw_PIT.o
 .debug_aranges
                0x000004d0       0x40 build/obj/Hal_Pwm.o
 .debug_aranges
                0x00000510       0x38 build/obj/Hal_Adc.o
 .debug_aranges
                0x00000548       0x30 build/obj/Hal_PIT.o
 .debug_aranges
                0x00000578       0x58 build/obj/Hal_Can.o
 .debug_aranges
                0x000005d0       0x80 build/obj/Uds_Func.o
 .debug_aranges
                0x00000650       0x50 build/obj/Tp_Func.o
 .debug_aranges
                0x000006a0       0x50 build/obj/GpFunc.o
 .debug_aranges
                0x000006f0       0x60 build/obj/Asw_Utility.o
 .debug_aranges
                0x00000750       0x30 build/obj/Asw_StateMachine.o
 .debug_aranges
                0x00000780       0x28 build/obj/Asw_DtcMng.o
 .debug_aranges
                0x000007a8       0x40 build/obj/Asw_FaultDetection.o
 .debug_aranges
                0x000007e8       0x30 build/obj/Asw_Pid.o
 .debug_aranges
                0x00000818       0x20 build/obj/components.o
 .debug_aranges
                0x00000838       0x20 ./components/flash_driver/lib/src/c55_freegcc.a(SetLock.o)
 .debug_aranges
                0x00000858       0x20 ./components/flash_driver/lib/src/c55_freegcc.a(FlashProgram.o)
 .debug_aranges
                0x00000878       0x20 ./components/flash_driver/lib/src/c55_freegcc.a(FlashInit.o)
 .debug_aranges
                0x00000898       0x20 ./components/flash_driver/lib/src/c55_freegcc.a(FlashErase.o)
 .debug_aranges
                0x000008b8       0x20 ./components/flash_driver/lib/src/c55_freegcc.a(FlashCheckStatus.o)
 .debug_aranges
                0x000008d8       0x20 ./components/flash_driver/lib/src/c55_freegcc.a(BlankCheck.o)

.debug_ranges   0x00000000      0x698
 .debug_ranges  0x00000000       0x48 build/obj/eeprom.o
 .debug_ranges  0x00000048       0x30 build/obj/eeprom_lld.o
 .debug_ranges  0x00000078       0x10 build/obj/spc5_lld.o
 .debug_ranges  0x00000088       0xa8 build/obj/spc5_edma.o
 .debug_ranges  0x00000130       0x28 build/obj/pal.o
 .debug_ranges  0x00000158       0x40 build/obj/clock.o
 .debug_ranges  0x00000198       0x18 build/obj/irq.o
 .debug_ranges  0x000001b0       0x38 build/obj/eirq.o
 .debug_ranges  0x000001e8       0x40 build/obj/osal.o
 .debug_ranges  0x00000228       0x18 build/obj/systimer.o
 .debug_ranges  0x00000240       0x10 build/obj/board.o
 .debug_ranges  0x00000250       0x10 build/obj/irq_cfg.o
 .debug_ranges  0x00000260       0x10 build/obj/main.o
 .debug_ranges  0x00000270       0x18 build/obj/Rte.o
 .debug_ranges  0x00000288       0x48 build/obj/Bsw_Eeprom.o
 .debug_ranges  0x000002d0       0x38 build/obj/Bsw_Can.o
 .debug_ranges  0x00000308       0x28 build/obj/Bsw_Pwm.o
 .debug_ranges  0x00000330       0x18 build/obj/Bsw_Adc.o
 .debug_ranges  0x00000348       0x10 build/obj/Bsw_PIT.o
 .debug_ranges  0x00000358       0x30 build/obj/Hal_Pwm.o
 .debug_ranges  0x00000388       0x28 build/obj/Hal_Adc.o
 .debug_ranges  0x000003b0       0x20 build/obj/Hal_PIT.o
 .debug_ranges  0x000003d0       0x48 build/obj/Hal_Can.o
 .debug_ranges  0x00000418       0x70 build/obj/Uds_Func.o
 .debug_ranges  0x00000488       0x40 build/obj/Tp_Func.o
 .debug_ranges  0x000004c8       0x40 build/obj/GpFunc.o
 .debug_ranges  0x00000508       0x50 build/obj/Asw_Utility.o
 .debug_ranges  0x00000558       0x38 build/obj/Asw_StateMachine.o
 .debug_ranges  0x00000590       0x18 build/obj/Asw_DtcMng.o
 .debug_ranges  0x000005a8       0x60 build/obj/Asw_FaultDetection.o
 .debug_ranges  0x00000608       0x20 build/obj/Asw_Pid.o
 .debug_ranges  0x00000628       0x10 build/obj/components.o
 .debug_ranges  0x00000638       0x10 ./components/flash_driver/lib/src/c55_freegcc.a(SetLock.o)
 .debug_ranges  0x00000648       0x10 ./components/flash_driver/lib/src/c55_freegcc.a(FlashProgram.o)
 .debug_ranges  0x00000658       0x10 ./components/flash_driver/lib/src/c55_freegcc.a(FlashInit.o)
 .debug_ranges  0x00000668       0x10 ./components/flash_driver/lib/src/c55_freegcc.a(FlashErase.o)
 .debug_ranges  0x00000678       0x10 ./components/flash_driver/lib/src/c55_freegcc.a(FlashCheckStatus.o)
 .debug_ranges  0x00000688       0x10 ./components/flash_driver/lib/src/c55_freegcc.a(BlankCheck.o)

.debug_line     0x00000000     0x5e1a
 .debug_line    0x00000000      0x49f build/obj/eeprom.o
 .debug_line    0x0000049f      0x27d build/obj/eeprom_lld.o
 .debug_line    0x0000071c       0xd0 build/obj/spc5_lld.o
 .debug_line    0x000007ec      0x4a1 build/obj/spc5_edma.o
 .debug_line    0x00000c8d      0x295 build/obj/pal.o
 .debug_line    0x00000f22      0x344 build/obj/clock.o
 .debug_line    0x00001266      0x23e build/obj/irq.o
 .debug_line    0x000014a4      0x338 build/obj/eirq.o
 .debug_line    0x000017dc      0x263 build/obj/osal.o
 .debug_line    0x00001a3f      0x24a build/obj/systimer.o
 .debug_line    0x00001c89      0x1bf build/obj/eeprom_cfg.o
 .debug_line    0x00001e48       0x9c build/obj/eeprom_lld_cfg.o
 .debug_line    0x00001ee4      0x1f2 build/obj/board.o
 .debug_line    0x000020d6       0x66 build/obj/irq_cfg.o
 .debug_line    0x0000213c      0x1c3 build/obj/eirq_cfg.o
 .debug_line    0x000022ff      0x19f build/obj/main.o
 .debug_line    0x0000249e      0x31b build/obj/Rte.o
 .debug_line    0x000027b9      0x2dd build/obj/Bsw_Eeprom.o
 .debug_line    0x00002a96      0x31c build/obj/Bsw_Can.o
 .debug_line    0x00002db2      0x1c5 build/obj/Bsw_Pwm.o
 .debug_line    0x00002f77      0x1a3 build/obj/Bsw_Adc.o
 .debug_line    0x0000311a       0x63 build/obj/Bsw_PIT.o
 .debug_line    0x0000317d      0x2a0 build/obj/Hal_Pwm.o
 .debug_line    0x0000341d      0x289 build/obj/Hal_Adc.o
 .debug_line    0x000036a6      0x2c8 build/obj/Hal_PIT.o
 .debug_line    0x0000396e      0x363 build/obj/Hal_Can.o
 .debug_line    0x00003cd1      0x4e0 build/obj/Uds_Func.o
 .debug_line    0x000041b1      0x320 build/obj/Tp_Func.o
 .debug_line    0x000044d1      0x2ca build/obj/GpFunc.o
 .debug_line    0x0000479b      0x31c build/obj/Asw_Utility.o
 .debug_line    0x00004ab7      0x2f8 build/obj/Asw_StateMachine.o
 .debug_line    0x00004daf      0x2a6 build/obj/Asw_DtcMng.o
 .debug_line    0x00005055      0x305 build/obj/Asw_FaultDetection.o
 .debug_line    0x0000535a      0x1db build/obj/Asw_Pid.o
 .debug_line    0x00005535      0x1f2 build/obj/components.o
 .debug_line    0x00005727      0x123 ./components/flash_driver/lib/src/c55_freegcc.a(SetLock.o)
 .debug_line    0x0000584a      0x13b ./components/flash_driver/lib/src/c55_freegcc.a(FlashProgram.o)
 .debug_line    0x00005985       0xd8 ./components/flash_driver/lib/src/c55_freegcc.a(FlashInit.o)
 .debug_line    0x00005a5d      0x12b ./components/flash_driver/lib/src/c55_freegcc.a(FlashErase.o)
 .debug_line    0x00005b88      0x1b2 ./components/flash_driver/lib/src/c55_freegcc.a(FlashCheckStatus.o)
 .debug_line    0x00005d3a       0xe0 ./components/flash_driver/lib/src/c55_freegcc.a(BlankCheck.o)

.debug_str      0x00000000     0x6fcb
 .debug_str     0x00000000      0x438 build/obj/eeprom.o
                                0x4df (size before relaxing)
 .debug_str     0x00000438      0x2f0 build/obj/eeprom_lld.o
                                0x5be (size before relaxing)
 .debug_str     0x00000728       0x5f build/obj/spc5_lld.o
                                0x23a (size before relaxing)
 .debug_str     0x00000787      0xa8b build/obj/spc5_edma.o
                                0xcdf (size before relaxing)
 .debug_str     0x00001212      0x3d4 build/obj/pal.o
                                0x633 (size before relaxing)
 .debug_str     0x000015e6     0x1561 build/obj/clock.o
                               0x18bb (size before relaxing)
 .debug_str     0x00002b47       0x5b build/obj/irq.o
                                0x26f (size before relaxing)
 .debug_str     0x00002ba2      0x11d build/obj/eirq.o
                                0x5f8 (size before relaxing)
 .debug_str     0x00002cbf       0xca build/obj/osal.o
                                0x2f8 (size before relaxing)
 .debug_str     0x00002d89       0x83 build/obj/systimer.o
                                0x319 (size before relaxing)
 .debug_str     0x00002e0c       0x4b build/obj/eeprom_cfg.o
                                0x29b (size before relaxing)
 .debug_str     0x00002e57       0x3a build/obj/eeprom_lld_cfg.o
                                0x320 (size before relaxing)
 .debug_str     0x00002e91       0x86 build/obj/board.o
                                0x330 (size before relaxing)
 .debug_str     0x00002f17       0x37 build/obj/irq_cfg.o
                                0x21f (size before relaxing)
 .debug_str     0x00002f4e       0x38 build/obj/eirq_cfg.o
                                0x291 (size before relaxing)
 .debug_str     0x00002f86       0x3b build/obj/main.o
                                0x228 (size before relaxing)
 .debug_str     0x00002fc1      0x3fb build/obj/Rte.o
                                0x685 (size before relaxing)
 .debug_str     0x000033bc       0xc4 build/obj/Bsw_Eeprom.o
                                0x592 (size before relaxing)
 .debug_str     0x00003480      0x519 build/obj/Bsw_Can.o
                                0x7da (size before relaxing)
 .debug_str     0x00003999       0x87 build/obj/Bsw_Pwm.o
                                0x282 (size before relaxing)
 .debug_str     0x00003a20       0x89 build/obj/Bsw_Adc.o
                                0x2ec (size before relaxing)
 .debug_str     0x00003aa9       0x24 build/obj/Bsw_PIT.o
                                0x20c (size before relaxing)
 .debug_str     0x00003acd      0x258 build/obj/Hal_Pwm.o
                                0x53c (size before relaxing)
 .debug_str     0x00003d25     0x1927 build/obj/Hal_Adc.o
                               0x1d4e (size before relaxing)
 .debug_str     0x0000564c       0x97 build/obj/Hal_PIT.o
                                0x3e6 (size before relaxing)
 .debug_str     0x000056e3      0x505 build/obj/Hal_Can.o
                                0x87d (size before relaxing)
 .debug_str     0x00005be8      0x511 build/obj/Uds_Func.o
                                0x80b (size before relaxing)
 .debug_str     0x000060f9      0x189 build/obj/Tp_Func.o
                                0x478 (size before relaxing)
 .debug_str     0x00006282      0x1a5 build/obj/GpFunc.o
                                0x8ee (size before relaxing)
 .debug_str     0x00006427      0x18c build/obj/Asw_Utility.o
                                0x58a (size before relaxing)
 .debug_str     0x000065b3      0x130 build/obj/Asw_StateMachine.o
                                0x786 (size before relaxing)
 .debug_str     0x000066e3      0x1d1 build/obj/Asw_DtcMng.o
                                0x6df (size before relaxing)
 .debug_str     0x000068b4      0x215 build/obj/Asw_FaultDetection.o
                                0x762 (size before relaxing)
 .debug_str     0x00006ac9       0xc7 build/obj/Asw_Pid.o
                                0x2f9 (size before relaxing)
 .debug_str     0x00006b90       0x1a build/obj/components.o
                                0x24a (size before relaxing)
 .debug_str     0x00006baa      0x226 ./components/flash_driver/lib/src/c55_freegcc.a(SetLock.o)
                                0x39b (size before relaxing)
 .debug_str     0x00006dd0       0x7a ./components/flash_driver/lib/src/c55_freegcc.a(FlashProgram.o)
                                0x425 (size before relaxing)
 .debug_str     0x00006e4a       0x3d ./components/flash_driver/lib/src/c55_freegcc.a(FlashInit.o)
                                0x355 (size before relaxing)
 .debug_str     0x00006e87       0x56 ./components/flash_driver/lib/src/c55_freegcc.a(FlashErase.o)
                                0x422 (size before relaxing)
 .debug_str     0x00006edd       0xb0 ./components/flash_driver/lib/src/c55_freegcc.a(FlashCheckStatus.o)
                                0x493 (size before relaxing)
 .debug_str     0x00006f8d       0x3e ./components/flash_driver/lib/src/c55_freegcc.a(BlankCheck.o)
                                0x3f0 (size before relaxing)

.debug_frame    0x00000000     0x1618
 .debug_frame   0x00000000      0x1f8 build/obj/eeprom.o
 .debug_frame   0x000001f8       0xc0 build/obj/eeprom_lld.o
 .debug_frame   0x000002b8       0x30 build/obj/spc5_lld.o
 .debug_frame   0x000002e8      0x284 build/obj/spc5_edma.o
 .debug_frame   0x0000056c       0x50 build/obj/pal.o
 .debug_frame   0x000005bc       0xc0 build/obj/clock.o
 .debug_frame   0x0000067c       0x40 build/obj/irq.o
 .debug_frame   0x000006bc       0xec build/obj/eirq.o
 .debug_frame   0x000007a8       0xc0 build/obj/osal.o
 .debug_frame   0x00000868       0x44 build/obj/systimer.o
 .debug_frame   0x000008ac       0x30 build/obj/board.o
 .debug_frame   0x000008dc       0x20 build/obj/irq_cfg.o
 .debug_frame   0x000008fc       0x30 build/obj/main.o
 .debug_frame   0x0000092c       0x54 build/obj/Rte.o
 .debug_frame   0x00000980       0xf0 build/obj/Bsw_Eeprom.o
 .debug_frame   0x00000a70       0xd8 build/obj/Bsw_Can.o
 .debug_frame   0x00000b48       0x90 build/obj/Bsw_Pwm.o
 .debug_frame   0x00000bd8       0x40 build/obj/Bsw_Adc.o
 .debug_frame   0x00000c18       0x30 build/obj/Bsw_PIT.o
 .debug_frame   0x00000c48       0x70 build/obj/Hal_Pwm.o
 .debug_frame   0x00000cb8       0x74 build/obj/Hal_Adc.o
 .debug_frame   0x00000d2c       0x6c build/obj/Hal_PIT.o
 .debug_frame   0x00000d98       0xb0 build/obj/Hal_Can.o
 .debug_frame   0x00000e48      0x170 build/obj/Uds_Func.o
 .debug_frame   0x00000fb8       0xec build/obj/Tp_Func.o
 .debug_frame   0x000010a4       0xf4 build/obj/GpFunc.o
 .debug_frame   0x00001198      0x168 build/obj/Asw_Utility.o
 .debug_frame   0x00001300       0x50 build/obj/Asw_StateMachine.o
 .debug_frame   0x00001350       0x44 build/obj/Asw_DtcMng.o
 .debug_frame   0x00001394       0x74 build/obj/Asw_FaultDetection.o
 .debug_frame   0x00001408       0x40 build/obj/Asw_Pid.o
 .debug_frame   0x00001448       0x30 build/obj/components.o
 .debug_frame   0x00001478       0x20 c:/spc5studio/eclipse/plugins/com.st.tools.spc5.tools.gnu.gcc.ppcvle.win32_4.9.4.20190604105544/toolchain/bin/../lib/gcc/powerpc-eabivle/4.9.4/../../../../powerpc-eabivle/lib\libc.a(lib_a-memset.o)
 .debug_frame   0x00001498       0x30 c:/spc5studio/eclipse/plugins/com.st.tools.spc5.tools.gnu.gcc.ppcvle.win32_4.9.4.20190604105544/toolchain/bin/../lib/gcc/powerpc-eabivle/4.9.4/../../../../powerpc-eabivle/lib\libc.a(lib_a-rand.o)
 .debug_frame   0x000014c8       0x20 ./components/flash_driver/lib/src/c55_freegcc.a(SetLock.o)
 .debug_frame   0x000014e8       0x30 ./components/flash_driver/lib/src/c55_freegcc.a(FlashProgram.o)
 .debug_frame   0x00001518       0x34 ./components/flash_driver/lib/src/c55_freegcc.a(FlashInit.o)
 .debug_frame   0x0000154c       0x40 ./components/flash_driver/lib/src/c55_freegcc.a(FlashErase.o)
 .debug_frame   0x0000158c       0x4c ./components/flash_driver/lib/src/c55_freegcc.a(FlashCheckStatus.o)
 .debug_frame   0x000015d8       0x20 ./components/flash_driver/lib/src/c55_freegcc.a(BlankCheck.o)
 .debug_frame   0x000015f8       0x20 c:/spc5studio/eclipse/plugins/com.st.tools.spc5.tools.gnu.gcc.ppcvle.win32_4.9.4.20190604105544/toolchain/bin/../lib/gcc/powerpc-eabivle/4.9.4\libgcc.a(_ucmpdi2.o)

Cross Reference Table

Symbol                                            File
Asw_DID_Eeprom_Read                               build/obj/Asw_Utility.o
                                                  build/obj/Uds_Func.o
Asw_DID_Eeprom_Write                              build/obj/Asw_Utility.o
                                                  build/obj/Uds_Func.o
Asw_DTC_Eeprom_Read                               build/obj/Asw_Utility.o
Asw_DTC_Eeprom_Write                              build/obj/Asw_Utility.o
                                                  build/obj/Rte.o
Asw_Diagnostic_Fault                              build/obj/Asw_FaultDetection.o
                                                  build/obj/Rte.o
Asw_Diagnostic_Init                               build/obj/Asw_FaultDetection.o
                                                  build/obj/Rte.o
Asw_FindCurrentAdd                                build/obj/Asw_Utility.o
Asw_GetIgnSts                                     build/obj/Asw_Utility.o
                                                  build/obj/Asw_StateMachine.o
                                                  build/obj/Bsw_Can.o
Asw_IoRef_TemperDerating                          build/obj/Asw_Utility.o
                                                  build/obj/Asw_StateMachine.o
Asw_LDC_OFF                                       build/obj/Asw_Utility.o
                                                  build/obj/Rte.o
Asw_LDC_Operation                                 build/obj/Asw_StateMachine.o
                                                  build/obj/Rte.o
Asw_PI_Controller                                 build/obj/Asw_Pid.o
                                                  build/obj/Hal_PIT.o
Asw_PI_Init                                       build/obj/Asw_Pid.o
                                                  build/obj/Asw_StateMachine.o
Asw_Ramp                                          build/obj/Asw_Pid.o
                                                  build/obj/Hal_PIT.o
BlankCheck                                        ./components/flash_driver/lib/src/c55_freegcc.a(BlankCheck.o)
                                                  build/obj/eeprom_lld.o
Bsw_ADC2REAL                                      build/obj/Bsw_Adc.o
                                                  build/obj/Rte.o
Bsw_AdcInit                                       build/obj/Bsw_Adc.o
                                                  build/obj/Rte.o
Bsw_CAN1_Init                                     build/obj/Bsw_Can.o
                                                  build/obj/Rte.o
Bsw_CAN2_Init                                     build/obj/Bsw_Can.o
                                                  build/obj/Rte.o
Bsw_Can_DM1_Init                                  build/obj/Bsw_Can.o
                                                  build/obj/Rte.o
Bsw_Can_DM1_Transmitter                           build/obj/Bsw_Can.o
                                                  build/obj/Rte.o
Bsw_Can_Rx                                        build/obj/Bsw_Can.o
                                                  build/obj/Rte.o
Bsw_Can_Tx                                        build/obj/Bsw_Can.o
                                                  build/obj/Rte.o
Bsw_PIT_Init                                      build/obj/Bsw_PIT.o
                                                  build/obj/Rte.o
Bsw_PwmDisable                                    build/obj/Bsw_Pwm.o
                                                  build/obj/Asw_Utility.o
Bsw_PwmEnable                                     build/obj/Bsw_Pwm.o
                                                  build/obj/Asw_StateMachine.o
Bsw_PwmInit                                       build/obj/Bsw_Pwm.o
                                                  build/obj/Rte.o
Bsw_PwmSetShift                                   build/obj/Bsw_Pwm.o
                                                  build/obj/Hal_PIT.o
CAN1_Drv_SendFrame                                build/obj/Hal_Can.o
                                                  build/obj/Tp_Func.o
                                                  build/obj/Bsw_Can.o
CAN2_Drv_SendFrame                                build/obj/Hal_Can.o
                                                  build/obj/Tp_Func.o
                                                  build/obj/Bsw_Can.o
Dia_Batt                                          build/obj/Asw_FaultDetection.o
                                                  build/obj/Asw_DtcMng.o
                                                  build/obj/Bsw_Can.o
Dia_CAN                                           build/obj/Asw_FaultDetection.o
                                                  build/obj/Asw_DtcMng.o
                                                  build/obj/Bsw_Can.o
Dia_Iout                                          build/obj/Asw_FaultDetection.o
                                                  build/obj/Asw_DtcMng.o
                                                  build/obj/Bsw_Can.o
Dia_Iout_Sens                                     build/obj/Asw_FaultDetection.o
                                                  build/obj/Asw_DtcMng.o
                                                  build/obj/Bsw_Can.o
Dia_Temp                                          build/obj/Asw_FaultDetection.o
                                                  build/obj/Asw_DtcMng.o
                                                  build/obj/Bsw_Can.o
Dia_Temp_Sens                                     build/obj/Asw_FaultDetection.o
                                                  build/obj/Asw_DtcMng.o
                                                  build/obj/Bsw_Can.o
Dia_Vin                                           build/obj/Asw_FaultDetection.o
                                                  build/obj/Asw_DtcMng.o
                                                  build/obj/Bsw_Can.o
Dia_Vout                                          build/obj/Asw_FaultDetection.o
                                                  build/obj/Asw_DtcMng.o
                                                  build/obj/Bsw_Can.o
DtcMng_DtcCodeUpdate                              build/obj/Asw_DtcMng.o
                                                  build/obj/Rte.o
EEPROMD                                           build/obj/eeprom.o
                                                  build/obj/Bsw_Eeprom.o
EEP_CMP_BUFFER                                    build/obj/Bsw_Eeprom.o
EEP_DTC_CLEAR                                     build/obj/Bsw_Eeprom.o
EEP_EEPROM_INIT                                   build/obj/Bsw_Eeprom.o
                                                  build/obj/Rte.o
EEP_EEPROM_READ                                   build/obj/Bsw_Eeprom.o
                                                  build/obj/Rte.o
EEP_EEPROM_WRITE                                  build/obj/Bsw_Eeprom.o
EEP_GET_WRITE_BUFFER                              build/obj/Bsw_Eeprom.o
                                                  build/obj/Rte.o
EEP_UPDATE_EEPROM                                 build/obj/Bsw_Eeprom.o
                                                  build/obj/Rte.o
FlashCheckStatus                                  ./components/flash_driver/lib/src/c55_freegcc.a(FlashCheckStatus.o)
                                                  build/obj/GpFunc.o
                                                  build/obj/eeprom_lld.o
FlashErase                                        ./components/flash_driver/lib/src/c55_freegcc.a(FlashErase.o)
                                                  build/obj/GpFunc.o
                                                  build/obj/eeprom_lld.o
FlashInit                                         ./components/flash_driver/lib/src/c55_freegcc.a(FlashInit.o)
                                                  build/obj/GpFunc.o
                                                  build/obj/eeprom_lld.o
FlashProgram                                      ./components/flash_driver/lib/src/c55_freegcc.a(FlashProgram.o)
                                                  build/obj/GpFunc.o
                                                  build/obj/eeprom_lld.o
Get_PIT_CH3_CVAL                                  build/obj/Hal_PIT.o
                                                  build/obj/Uds_Func.o
Gp_Func_Init                                      build/obj/GpFunc.o
                                                  build/obj/Rte.o
Hal_AdcInit                                       build/obj/Hal_Adc.o
                                                  build/obj/Bsw_Adc.o
Hal_Adc_Start                                     build/obj/Hal_Adc.o
                                                  build/obj/Hal_PIT.o
Hal_CAN1_Init                                     build/obj/Hal_Can.o
                                                  build/obj/Bsw_Can.o
Hal_CAN2_Init                                     build/obj/Hal_Can.o
                                                  build/obj/Bsw_Can.o
Hal_PIT_Init                                      build/obj/Hal_PIT.o
                                                  build/obj/Bsw_PIT.o
Hal_PwmDisable                                    build/obj/Hal_Pwm.o
                                                  build/obj/Bsw_Pwm.o
Hal_PwmEnable                                     build/obj/Hal_Pwm.o
                                                  build/obj/Bsw_Pwm.o
Hal_PwmInit                                       build/obj/Hal_Pwm.o
                                                  build/obj/Bsw_Pwm.o
Hal_PwmSetShift                                   build/obj/Hal_Pwm.o
                                                  build/obj/Bsw_Pwm.o
IVORS                                             build/obj/boot.o
Rte_Init                                          build/obj/Rte.o
                                                  build/obj/main.o
Rte_TimeTaskCtrl                                  build/obj/Rte.o
                                                  build/obj/main.o
SPCGetPeripheralClock                             build/obj/clock.o
                                                  build/obj/systimer.o
SPCGetSystemClock                                 build/obj/clock.o
SPCSetPeripheralClockMode                         build/obj/clock.o
                                                  build/obj/Hal_Can.o
                                                  build/obj/Hal_PIT.o
                                                  build/obj/Hal_Adc.o
                                                  build/obj/Hal_Pwm.o
                                                  build/obj/systimer.o
                                                  build/obj/spc5_edma.o
SPCSetRunMode                                     build/obj/clock.o
SetBootMode                                       build/obj/GpFunc.o
                                                  build/obj/Uds_Func.o
SetLock                                           ./components/flash_driver/lib/src/c55_freegcc.a(SetLock.o)
                                                  build/obj/GpFunc.o
                                                  build/obj/eeprom_lld.o
TpFirstFrame                                      build/obj/Tp_Func.o
                                                  build/obj/Uds_Func.o
TpRecvProc                                        build/obj/Tp_Func.o
                                                  build/obj/Uds_Func.o
TpSingleFrame                                     build/obj/Tp_Func.o
                                                  build/obj/Uds_Func.o
Tp_Func                                           build/obj/Tp_Func.o
                                                  build/obj/Rte.o
Tp_Func_Init                                      build/obj/Tp_Func.o
                                                  build/obj/Rte.o
UDS_EEP_ReadDataByIdentifier                      build/obj/GpFunc.o
                                                  build/obj/Asw_Utility.o
UDS_EEP_WriteDataByIdentifier                     build/obj/GpFunc.o
UDS_WDT_PulseOut                                  build/obj/GpFunc.o
                                                  build/obj/Rte.o
UTILS_REF_INV                                     build/obj/Asw_Utility.o
Uds_Func                                          build/obj/Uds_Func.o
                                                  build/obj/Rte.o
Uds_Func_Init                                     build/obj/Uds_Func.o
                                                  build/obj/Rte.o
_IVOR0                                            build/obj/boot.o
_IVOR1                                            build/obj/boot.o
_IVOR10                                           build/obj/boot.o
_IVOR11                                           build/obj/boot.o
_IVOR12                                           build/obj/boot.o
_IVOR13                                           build/obj/boot.o
_IVOR14                                           build/obj/boot.o
_IVOR15                                           build/obj/boot.o
_IVOR2                                            build/obj/boot.o
_IVOR3                                            build/obj/boot.o
_IVOR4                                            build/obj/ivor.o
                                                  build/obj/boot.o
_IVOR5                                            build/obj/boot.o
_IVOR6                                            build/obj/boot.o
_IVOR7                                            build/obj/boot.o
_IVOR8                                            build/obj/boot.o
_IVOR9                                            build/obj/boot.o
_SDA2_BASE_                                       build/obj/boot.o
_SDA_BASE_                                        build/obj/boot.o
__bss_end__                                       build/obj/crt0.o
__bss_start__                                     build/obj/crt0.o
__data_end__                                      build/obj/crt0.o
__data_start__                                    build/obj/crt0.o
__eabi                                            build/obj/crt0.o
                                                  build/obj/main.o
__early_init                                      build/obj/clock.o
                                                  build/obj/crt0.o
__ivpr_base__                                     build/obj/boot.o
__late_init                                       build/obj/crt0.o
__process_stack_end__                             build/obj/crt0.o
__ram_end__                                       build/obj/boot.o
__ram_start__                                     build/obj/boot.o
__romdata_start__                                 build/obj/crt0.o
__sdata2_start__                                  build/obj/crt0.o
__sdata_start__                                   build/obj/crt0.o
__ucmpdi2                                         c:/spc5studio/eclipse/plugins/com.st.tools.spc5.tools.gnu.gcc.ppcvle.win32_4.9.4.20190604105544/toolchain/bin/../lib/gcc/powerpc-eabivle/4.9.4\libgcc.a(_ucmpdi2.o)
                                                  build/obj/eeprom.o
_boot_address                                     build/obj/crt0.o
                                                  build/obj/boot.o
_global_impure_ptr                                c:/spc5studio/eclipse/plugins/com.st.tools.spc5.tools.gnu.gcc.ppcvle.win32_4.9.4.20190604105544/toolchain/bin/../lib/gcc/powerpc-eabivle/4.9.4/../../../../powerpc-eabivle/lib\libc.a(lib_a-impure.o)
_impure_ptr                                       c:/spc5studio/eclipse/plugins/com.st.tools.spc5.tools.gnu.gcc.ppcvle.win32_4.9.4.20190604105544/toolchain/bin/../lib/gcc/powerpc-eabivle/4.9.4/../../../../powerpc-eabivle/lib\libc.a(lib_a-impure.o)
                                                  c:/spc5studio/eclipse/plugins/com.st.tools.spc5.tools.gnu.gcc.ppcvle.win32_4.9.4.20190604105544/toolchain/bin/../lib/gcc/powerpc-eabivle/4.9.4/../../../../powerpc-eabivle/lib\libc.a(lib_a-rand.o)
_main_exit_handler                                build/obj/crt0.o
_pal_readgroup                                    build/obj/pal.o
_pal_setgroupmode                                 build/obj/pal.o
_pal_writegroup                                   build/obj/pal.o
_reset_address                                    build/obj/boot.o
_unhandled_exception                              build/obj/boot.o
_unhandled_irq                                    build/obj/vectors.o
_vectors                                          build/obj/vectors.o
                                                  build/obj/irq.o
blockconf                                         build/obj/eeprom_cfg.o
boardInit                                         build/obj/board.o
                                                  build/obj/components.o
clockInit                                         build/obj/clock.o
                                                  build/obj/components.o
componentsInit                                    build/obj/components.o
                                                  build/obj/Rte.o
edmaChannelAllocate                               build/obj/spc5_edma.o
edmaChannelRelease                                build/obj/spc5_edma.o
edmaInit                                          build/obj/spc5_edma.o
                                                  build/obj/spc5_lld.o
eeprom_blockswap                                  build/obj/eeprom.o
eeprom_cfg                                        build/obj/eeprom_cfg.o
                                                  build/obj/Bsw_Eeprom.o
eeprom_delete                                     build/obj/eeprom.o
eeprom_init                                       build/obj/eeprom.o
                                                  build/obj/components.o
eeprom_lld_blankcheck                             build/obj/eeprom_lld.o
                                                  build/obj/eeprom.o
eeprom_lld_flasherase                             build/obj/eeprom_lld.o
                                                  build/obj/eeprom.o
eeprom_lld_flashinit                              build/obj/eeprom_lld.o
                                                  build/obj/eeprom.o
eeprom_lld_flashprogram64                         build/obj/eeprom_lld.o
                                                  build/obj/eeprom.o
eeprom_lld_unlock                                 build/obj/eeprom_lld.o
                                                  build/obj/eeprom.o
eeprom_read                                       build/obj/eeprom.o
                                                  build/obj/Bsw_Eeprom.o
eeprom_remove                                     build/obj/eeprom.o
eeprom_searchID                                   build/obj/eeprom.o
eeprom_start                                      build/obj/eeprom.o
                                                  build/obj/Bsw_Eeprom.o
eeprom_write                                      build/obj/eeprom.o
                                                  build/obj/Bsw_Eeprom.o
eirqInit                                          build/obj/eirq.o
                                                  build/obj/components.o
eirqconf                                          build/obj/eirq_cfg.o
                                                  build/obj/eirq.o
eng_LDC_Sts                                       build/obj/Asw_StateMachine.o
                                                  build/obj/Asw_FaultDetection.o
                                                  build/obj/Rte.o
g_can_RxData_18FF31EF                             build/obj/Hal_Can.o
                                                  build/obj/Bsw_Can.o
g_can_RxData_REQUEST                              build/obj/Hal_Can.o
                                                  build/obj/Tp_Func.o
                                                  build/obj/Uds_Func.o
irqInit                                           build/obj/irq.o
                                                  build/obj/components.o
irqSysHalt                                        build/obj/irq.o
                                                  build/obj/clock.o
                                                  build/obj/spc5_edma.o
irq_cfg_init                                      build/obj/irq_cfg.o
                                                  build/obj/irq.o
main                                              build/obj/main.o
                                                  build/obj/crt0.o
manage_eirq_interrupt                             build/obj/eirq.o
memset                                            c:/spc5studio/eclipse/plugins/com.st.tools.spc5.tools.gnu.gcc.ppcvle.win32_4.9.4.20190604105544/toolchain/bin/../lib/gcc/powerpc-eabivle/4.9.4/../../../../powerpc-eabivle/lib\libc.a(lib_a-memset.o)
                                                  build/obj/Bsw_Eeprom.o
osalEnterCritical                                 build/obj/osal.o
osalEnterCriticalFromISR                          build/obj/osal.o
                                                  build/obj/eirq.o
osalExitCritical                                  build/obj/osal.o
osalExitCriticalFromISR                           build/obj/osal.o
                                                  build/obj/eirq.o
osalInit                                          build/obj/osal.o
                                                  build/obj/components.o
pal_init                                          build/obj/pal.o
                                                  build/obj/board.o
rand                                              c:/spc5studio/eclipse/plugins/com.st.tools.spc5.tools.gnu.gcc.ppcvle.win32_4.9.4.20190604105544/toolchain/bin/../lib/gcc/powerpc-eabivle/4.9.4/../../../../powerpc-eabivle/lib\libc.a(lib_a-rand.o)
                                                  build/obj/Uds_Func.o
spc5LLDInit                                       build/obj/spc5_lld.o
                                                  build/obj/components.o
spc_clock_init                                    build/obj/clock.o
srand                                             c:/spc5studio/eclipse/plugins/com.st.tools.spc5.tools.gnu.gcc.ppcvle.win32_4.9.4.20190604105544/toolchain/bin/../lib/gcc/powerpc-eabivle/4.9.4/../../../../powerpc-eabivle/lib\libc.a(lib_a-rand.o)
                                                  build/obj/Uds_Func.o
ssdConfig                                         build/obj/eeprom_lld_cfg.o
                                                  build/obj/eeprom_lld.o
sysTimeReset                                      build/obj/systimer.o
sysTimeSetup                                      build/obj/systimer.o
u16_AdcIout                                       build/obj/Bsw_Adc.o
u16_AdcVout                                       build/obj/Bsw_Adc.o
u16_Iout                                          build/obj/Bsw_Adc.o
u16_Vout                                          build/obj/Bsw_Adc.o
u16g_Bsw_realBatt                                 build/obj/Bsw_Adc.o
                                                  build/obj/Asw_FaultDetection.o
u16g_Bsw_realIout                                 build/obj/Bsw_Adc.o
                                                  build/obj/Asw_FaultDetection.o
                                                  build/obj/Bsw_Can.o
u16g_Bsw_realTemp                                 build/obj/Bsw_Adc.o
                                                  build/obj/Asw_FaultDetection.o
                                                  build/obj/Asw_StateMachine.o
                                                  build/obj/Bsw_Can.o
u16g_Bsw_realVin                                  build/obj/Bsw_Adc.o
                                                  build/obj/Asw_FaultDetection.o
                                                  build/obj/Bsw_Can.o
u16g_Bsw_realVout                                 build/obj/Bsw_Adc.o
                                                  build/obj/Asw_FaultDetection.o
                                                  build/obj/Bsw_Can.o
u16g_Hal_AverAdc_Batt                             build/obj/Hal_Adc.o
u16g_Hal_AverAdc_Iout                             build/obj/Hal_Adc.o
                                                  build/obj/Hal_PIT.o
u16g_Hal_AverAdc_KeyIn                            build/obj/Hal_Adc.o
u16g_Hal_AverAdc_Temp                             build/obj/Hal_Adc.o
u16g_Hal_AverAdc_Vin                              build/obj/Hal_Adc.o
u16g_Hal_AverAdc_Vout                             build/obj/Hal_Adc.o
                                                  build/obj/Hal_PIT.o
u16g_Rte_pwmShift                                 build/obj/Rte.o
                                                  build/obj/Hal_PIT.o
u32_IoRef_SS                                      build/obj/Asw_StateMachine.o
                                                  build/obj/Hal_PIT.o
u32g_Asw_EEPROM_BUFFER_DID                        build/obj/Asw_Utility.o
u32g_Asw_EEPROM_BUFFER_DTC                        build/obj/Asw_Utility.o
                                                  build/obj/Uds_Func.o
u32g_Asw_EEPROM_LAST_BUFFER_DID                   build/obj/Asw_Utility.o
                                                  build/obj/Uds_Func.o
u32g_Asw_EEPROM_LAST_BUFFER_DTC                   build/obj/Asw_Utility.o
                                                  build/obj/Uds_Func.o
u32g_Asw_IoReference                              build/obj/Asw_Utility.o
                                                  build/obj/Asw_StateMachine.o
                                                  build/obj/Hal_PIT.o
u32g_Asw_VoReference                              build/obj/Asw_Utility.o
                                                  build/obj/Asw_StateMachine.o
                                                  build/obj/Hal_PIT.o
u32g_Asw_present_addr                             build/obj/Asw_Utility.o
                                                  build/obj/GpFunc.o
                                                  build/obj/Uds_Func.o
u32g_Bsw_AdcIout_Q15                              build/obj/Bsw_Adc.o
                                                  build/obj/Hal_PIT.o
                                                  build/obj/Hal_Adc.o
u32g_Bsw_AdcVout_Q15                              build/obj/Bsw_Adc.o
                                                  build/obj/Hal_PIT.o
u32g_Hal_TimeoutCan1Cnt                           build/obj/Hal_Can.o
                                                  build/obj/Bsw_Can.o
u32g_Hal_TimeoutCan2Cnt                           build/obj/Hal_Can.o
                                                  build/obj/Bsw_Can.o
u32g_LDC_ERR_Sts                                  build/obj/Asw_FaultDetection.o
                                                  build/obj/Asw_StateMachine.o
                                                  build/obj/Asw_Utility.o
                                                  build/obj/Bsw_Can.o
u8_DtcControl                                     build/obj/Uds_Func.o
                                                  build/obj/Rte.o
u8g_Asw_DTC_CODE_Array                            build/obj/Asw_Utility.o
                                                  build/obj/Uds_Func.o
                                                  build/obj/Bsw_Can.o
u8g_Asw_LDC_ENB                                   build/obj/Asw_Utility.o
                                                  build/obj/Asw_StateMachine.o
                                                  build/obj/Bsw_Can.o
u8g_Asw_LDC_SYS_ERR_BATTERY_DIS                   build/obj/Asw_FaultDetection.o
                                                  build/obj/Asw_StateMachine.o
u8g_Asw_Ldc_State_Ready                           build/obj/Asw_Utility.o
                                                  build/obj/Asw_StateMachine.o
                                                  build/obj/Bsw_Can.o
                                                  build/obj/Rte.o
u8g_Asw_Ldc_State_Run                             build/obj/Asw_Utility.o
                                                  build/obj/Asw_StateMachine.o
                                                  build/obj/Bsw_Can.o
                                                  build/obj/Rte.o
u8g_Asw_WriteEEPROM_Flag                          build/obj/Asw_Utility.o
                                                  build/obj/Uds_Func.o
u8g_Bsw_can1ErrStatus                             build/obj/Bsw_Can.o
u8g_Bsw_can2ErrStatus                             build/obj/Bsw_Can.o
u8g_CAN_RX_Ctrl                                   build/obj/Uds_Func.o
                                                  build/obj/Bsw_Can.o
u8g_CAN_TX_Ctrl                                   build/obj/Uds_Func.o
                                                  build/obj/Bsw_Can.o
                                                  build/obj/Rte.o
u8g_Eeprom_WriteData                              build/obj/Uds_Func.o
                                                  build/obj/Asw_Utility.o
u8g_Hal_RecvNewDataforDiag                        build/obj/Hal_Can.o
                                                  build/obj/Uds_Func.o
u8g_Hal_task_100m_cnt                             build/obj/Hal_PIT.o
                                                  build/obj/Rte.o
u8g_Hal_task_10m_cnt                              build/obj/Hal_PIT.o
                                                  build/obj/Rte.o
u8g_Hal_task_flag_1m                              build/obj/Hal_PIT.o
                                                  build/obj/main.o
u8g_ReqReset                                      build/obj/Uds_Func.o
                                                  build/obj/Rte.o
u8g_RxFrameType                                   build/obj/Tp_Func.o
                                                  build/obj/Uds_Func.o
u8g_SingleRxBuf                                   build/obj/Tp_Func.o
                                                  build/obj/Uds_Func.o
u8g_TpRxBuf                                       build/obj/Tp_Func.o
                                                  build/obj/Uds_Func.o
u8g_TpTxBuf                                       build/obj/Tp_Func.o
                                                  build/obj/Uds_Func.o
u8g_can1BusOffFlag                                build/obj/Hal_Can.o
u8g_can2BusOffFlag                                build/obj/Hal_Can.o
utils_memcpy                                      build/obj/Bsw_Eeprom.o
                                                  build/obj/Rte.o
vector0                                           build/obj/vectors.o
vector1                                           build/obj/vectors.o
vector10                                          build/obj/vectors.o
vector100                                         build/obj/vectors.o
vector1000                                        build/obj/vectors.o
vector1001                                        build/obj/vectors.o
vector1002                                        build/obj/vectors.o
vector1003                                        build/obj/vectors.o
vector1004                                        build/obj/vectors.o
vector1005                                        build/obj/vectors.o
vector1006                                        build/obj/vectors.o
vector1007                                        build/obj/vectors.o
vector1008                                        build/obj/vectors.o
vector1009                                        build/obj/vectors.o
vector101                                         build/obj/vectors.o
vector1010                                        build/obj/vectors.o
vector1011                                        build/obj/vectors.o
vector1012                                        build/obj/vectors.o
vector1013                                        build/obj/vectors.o
vector1014                                        build/obj/vectors.o
vector1015                                        build/obj/vectors.o
vector1016                                        build/obj/vectors.o
vector1017                                        build/obj/vectors.o
vector1018                                        build/obj/vectors.o
vector1019                                        build/obj/vectors.o
vector102                                         build/obj/vectors.o
vector1020                                        build/obj/vectors.o
vector1021                                        build/obj/vectors.o
vector1022                                        build/obj/vectors.o
vector1023                                        build/obj/vectors.o
vector103                                         build/obj/vectors.o
vector104                                         build/obj/vectors.o
vector105                                         build/obj/vectors.o
vector106                                         build/obj/vectors.o
vector107                                         build/obj/vectors.o
vector108                                         build/obj/vectors.o
vector109                                         build/obj/vectors.o
vector11                                          build/obj/vectors.o
vector110                                         build/obj/vectors.o
vector111                                         build/obj/vectors.o
vector112                                         build/obj/vectors.o
vector113                                         build/obj/vectors.o
vector114                                         build/obj/vectors.o
vector115                                         build/obj/vectors.o
vector116                                         build/obj/vectors.o
vector117                                         build/obj/vectors.o
vector118                                         build/obj/vectors.o
vector119                                         build/obj/vectors.o
vector12                                          build/obj/vectors.o
vector120                                         build/obj/vectors.o
vector121                                         build/obj/vectors.o
vector122                                         build/obj/vectors.o
vector123                                         build/obj/vectors.o
vector124                                         build/obj/vectors.o
vector125                                         build/obj/vectors.o
vector126                                         build/obj/vectors.o
vector127                                         build/obj/vectors.o
vector128                                         build/obj/vectors.o
vector129                                         build/obj/vectors.o
vector13                                          build/obj/vectors.o
vector130                                         build/obj/vectors.o
vector131                                         build/obj/vectors.o
vector132                                         build/obj/vectors.o
vector133                                         build/obj/vectors.o
vector134                                         build/obj/vectors.o
vector135                                         build/obj/vectors.o
vector136                                         build/obj/vectors.o
vector137                                         build/obj/vectors.o
vector138                                         build/obj/vectors.o
vector139                                         build/obj/vectors.o
vector14                                          build/obj/vectors.o
vector140                                         build/obj/vectors.o
vector141                                         build/obj/vectors.o
vector142                                         build/obj/vectors.o
vector143                                         build/obj/vectors.o
vector144                                         build/obj/vectors.o
vector145                                         build/obj/vectors.o
vector146                                         build/obj/vectors.o
vector147                                         build/obj/vectors.o
vector148                                         build/obj/vectors.o
vector149                                         build/obj/vectors.o
vector15                                          build/obj/vectors.o
vector150                                         build/obj/vectors.o
vector151                                         build/obj/vectors.o
vector152                                         build/obj/vectors.o
vector153                                         build/obj/vectors.o
vector154                                         build/obj/vectors.o
vector155                                         build/obj/vectors.o
vector156                                         build/obj/vectors.o
vector157                                         build/obj/vectors.o
vector158                                         build/obj/vectors.o
vector159                                         build/obj/vectors.o
vector16                                          build/obj/vectors.o
vector160                                         build/obj/vectors.o
vector161                                         build/obj/vectors.o
vector162                                         build/obj/vectors.o
vector163                                         build/obj/vectors.o
vector164                                         build/obj/vectors.o
vector165                                         build/obj/vectors.o
vector166                                         build/obj/vectors.o
vector167                                         build/obj/vectors.o
vector168                                         build/obj/vectors.o
vector169                                         build/obj/vectors.o
vector17                                          build/obj/vectors.o
vector170                                         build/obj/vectors.o
vector171                                         build/obj/vectors.o
vector172                                         build/obj/vectors.o
vector173                                         build/obj/vectors.o
vector174                                         build/obj/vectors.o
vector175                                         build/obj/vectors.o
vector176                                         build/obj/vectors.o
vector177                                         build/obj/vectors.o
vector178                                         build/obj/vectors.o
vector179                                         build/obj/vectors.o
vector18                                          build/obj/vectors.o
vector180                                         build/obj/vectors.o
vector181                                         build/obj/vectors.o
vector182                                         build/obj/vectors.o
vector183                                         build/obj/vectors.o
vector184                                         build/obj/vectors.o
vector185                                         build/obj/vectors.o
vector186                                         build/obj/vectors.o
vector187                                         build/obj/vectors.o
vector188                                         build/obj/vectors.o
vector189                                         build/obj/vectors.o
vector19                                          build/obj/vectors.o
vector190                                         build/obj/vectors.o
vector191                                         build/obj/vectors.o
vector192                                         build/obj/vectors.o
vector193                                         build/obj/vectors.o
vector194                                         build/obj/vectors.o
vector195                                         build/obj/vectors.o
vector196                                         build/obj/vectors.o
vector197                                         build/obj/vectors.o
vector198                                         build/obj/vectors.o
vector199                                         build/obj/vectors.o
vector2                                           build/obj/vectors.o
vector20                                          build/obj/vectors.o
vector200                                         build/obj/vectors.o
vector201                                         build/obj/vectors.o
vector202                                         build/obj/vectors.o
vector203                                         build/obj/vectors.o
vector204                                         build/obj/vectors.o
vector205                                         build/obj/vectors.o
vector206                                         build/obj/vectors.o
vector207                                         build/obj/vectors.o
vector208                                         build/obj/vectors.o
vector209                                         build/obj/vectors.o
vector21                                          build/obj/vectors.o
vector210                                         build/obj/vectors.o
vector211                                         build/obj/vectors.o
vector212                                         build/obj/vectors.o
vector213                                         build/obj/vectors.o
vector214                                         build/obj/vectors.o
vector215                                         build/obj/vectors.o
vector216                                         build/obj/vectors.o
vector217                                         build/obj/vectors.o
vector218                                         build/obj/vectors.o
vector219                                         build/obj/vectors.o
vector22                                          build/obj/vectors.o
vector220                                         build/obj/vectors.o
vector221                                         build/obj/vectors.o
vector222                                         build/obj/vectors.o
vector223                                         build/obj/vectors.o
vector224                                         build/obj/vectors.o
vector225                                         build/obj/vectors.o
vector226                                         build/obj/vectors.o
vector227                                         build/obj/vectors.o
vector228                                         build/obj/vectors.o
vector229                                         build/obj/Hal_PIT.o
                                                  build/obj/vectors.o
vector23                                          build/obj/vectors.o
vector230                                         build/obj/vectors.o
vector231                                         build/obj/vectors.o
vector232                                         build/obj/vectors.o
vector233                                         build/obj/vectors.o
vector234                                         build/obj/vectors.o
vector235                                         build/obj/vectors.o
vector236                                         build/obj/vectors.o
vector237                                         build/obj/vectors.o
vector238                                         build/obj/vectors.o
vector239                                         build/obj/vectors.o
vector24                                          build/obj/vectors.o
vector240                                         build/obj/vectors.o
vector241                                         build/obj/vectors.o
vector242                                         build/obj/vectors.o
vector243                                         build/obj/eirq.o
                                                  build/obj/vectors.o
vector244                                         build/obj/eirq.o
                                                  build/obj/vectors.o
vector245                                         build/obj/eirq.o
                                                  build/obj/vectors.o
vector246                                         build/obj/eirq.o
                                                  build/obj/vectors.o
vector247                                         build/obj/vectors.o
vector248                                         build/obj/vectors.o
vector249                                         build/obj/vectors.o
vector25                                          build/obj/vectors.o
vector250                                         build/obj/vectors.o
vector251                                         build/obj/vectors.o
vector252                                         build/obj/vectors.o
vector253                                         build/obj/vectors.o
vector254                                         build/obj/vectors.o
vector255                                         build/obj/vectors.o
vector256                                         build/obj/vectors.o
vector257                                         build/obj/vectors.o
vector258                                         build/obj/vectors.o
vector259                                         build/obj/vectors.o
vector26                                          build/obj/vectors.o
vector260                                         build/obj/vectors.o
vector261                                         build/obj/vectors.o
vector262                                         build/obj/vectors.o
vector263                                         build/obj/vectors.o
vector264                                         build/obj/vectors.o
vector265                                         build/obj/vectors.o
vector266                                         build/obj/vectors.o
vector267                                         build/obj/vectors.o
vector268                                         build/obj/vectors.o
vector269                                         build/obj/vectors.o
vector27                                          build/obj/vectors.o
vector270                                         build/obj/vectors.o
vector271                                         build/obj/vectors.o
vector272                                         build/obj/vectors.o
vector273                                         build/obj/vectors.o
vector274                                         build/obj/vectors.o
vector275                                         build/obj/vectors.o
vector276                                         build/obj/vectors.o
vector277                                         build/obj/vectors.o
vector278                                         build/obj/vectors.o
vector279                                         build/obj/vectors.o
vector28                                          build/obj/vectors.o
vector280                                         build/obj/vectors.o
vector281                                         build/obj/vectors.o
vector282                                         build/obj/vectors.o
vector283                                         build/obj/vectors.o
vector284                                         build/obj/vectors.o
vector285                                         build/obj/vectors.o
vector286                                         build/obj/vectors.o
vector287                                         build/obj/vectors.o
vector288                                         build/obj/vectors.o
vector289                                         build/obj/vectors.o
vector29                                          build/obj/vectors.o
vector290                                         build/obj/vectors.o
vector291                                         build/obj/vectors.o
vector292                                         build/obj/vectors.o
vector293                                         build/obj/vectors.o
vector294                                         build/obj/vectors.o
vector295                                         build/obj/vectors.o
vector296                                         build/obj/vectors.o
vector297                                         build/obj/vectors.o
vector298                                         build/obj/vectors.o
vector299                                         build/obj/vectors.o
vector3                                           build/obj/vectors.o
vector30                                          build/obj/vectors.o
vector300                                         build/obj/vectors.o
vector301                                         build/obj/vectors.o
vector302                                         build/obj/vectors.o
vector303                                         build/obj/vectors.o
vector304                                         build/obj/vectors.o
vector305                                         build/obj/vectors.o
vector306                                         build/obj/vectors.o
vector307                                         build/obj/vectors.o
vector308                                         build/obj/vectors.o
vector309                                         build/obj/vectors.o
vector31                                          build/obj/vectors.o
vector310                                         build/obj/vectors.o
vector311                                         build/obj/vectors.o
vector312                                         build/obj/vectors.o
vector313                                         build/obj/vectors.o
vector314                                         build/obj/vectors.o
vector315                                         build/obj/vectors.o
vector316                                         build/obj/vectors.o
vector317                                         build/obj/vectors.o
vector318                                         build/obj/vectors.o
vector319                                         build/obj/vectors.o
vector32                                          build/obj/vectors.o
vector320                                         build/obj/vectors.o
vector321                                         build/obj/vectors.o
vector322                                         build/obj/vectors.o
vector323                                         build/obj/vectors.o
vector324                                         build/obj/vectors.o
vector325                                         build/obj/vectors.o
vector326                                         build/obj/vectors.o
vector327                                         build/obj/vectors.o
vector328                                         build/obj/vectors.o
vector329                                         build/obj/vectors.o
vector33                                          build/obj/vectors.o
vector330                                         build/obj/vectors.o
vector331                                         build/obj/vectors.o
vector332                                         build/obj/vectors.o
vector333                                         build/obj/vectors.o
vector334                                         build/obj/vectors.o
vector335                                         build/obj/vectors.o
vector336                                         build/obj/vectors.o
vector337                                         build/obj/vectors.o
vector338                                         build/obj/vectors.o
vector339                                         build/obj/vectors.o
vector34                                          build/obj/vectors.o
vector340                                         build/obj/vectors.o
vector341                                         build/obj/vectors.o
vector342                                         build/obj/vectors.o
vector343                                         build/obj/vectors.o
vector344                                         build/obj/vectors.o
vector345                                         build/obj/vectors.o
vector346                                         build/obj/vectors.o
vector347                                         build/obj/vectors.o
vector348                                         build/obj/vectors.o
vector349                                         build/obj/vectors.o
vector35                                          build/obj/vectors.o
vector350                                         build/obj/vectors.o
vector351                                         build/obj/vectors.o
vector352                                         build/obj/vectors.o
vector353                                         build/obj/vectors.o
vector354                                         build/obj/vectors.o
vector355                                         build/obj/vectors.o
vector356                                         build/obj/vectors.o
vector357                                         build/obj/vectors.o
vector358                                         build/obj/vectors.o
vector359                                         build/obj/vectors.o
vector36                                          build/obj/vectors.o
vector360                                         build/obj/vectors.o
vector361                                         build/obj/vectors.o
vector362                                         build/obj/vectors.o
vector363                                         build/obj/vectors.o
vector364                                         build/obj/vectors.o
vector365                                         build/obj/vectors.o
vector366                                         build/obj/vectors.o
vector367                                         build/obj/vectors.o
vector368                                         build/obj/vectors.o
vector369                                         build/obj/vectors.o
vector37                                          build/obj/vectors.o
vector370                                         build/obj/vectors.o
vector371                                         build/obj/vectors.o
vector372                                         build/obj/vectors.o
vector373                                         build/obj/vectors.o
vector374                                         build/obj/vectors.o
vector375                                         build/obj/vectors.o
vector376                                         build/obj/vectors.o
vector377                                         build/obj/vectors.o
vector378                                         build/obj/vectors.o
vector379                                         build/obj/vectors.o
vector38                                          build/obj/vectors.o
vector380                                         build/obj/vectors.o
vector381                                         build/obj/vectors.o
vector382                                         build/obj/vectors.o
vector383                                         build/obj/vectors.o
vector384                                         build/obj/vectors.o
vector385                                         build/obj/vectors.o
vector386                                         build/obj/vectors.o
vector387                                         build/obj/vectors.o
vector388                                         build/obj/vectors.o
vector389                                         build/obj/vectors.o
vector39                                          build/obj/vectors.o
vector390                                         build/obj/vectors.o
vector391                                         build/obj/vectors.o
vector392                                         build/obj/vectors.o
vector393                                         build/obj/vectors.o
vector394                                         build/obj/vectors.o
vector395                                         build/obj/vectors.o
vector396                                         build/obj/vectors.o
vector397                                         build/obj/vectors.o
vector398                                         build/obj/vectors.o
vector399                                         build/obj/vectors.o
vector4                                           build/obj/vectors.o
vector40                                          build/obj/vectors.o
vector400                                         build/obj/vectors.o
vector401                                         build/obj/vectors.o
vector402                                         build/obj/vectors.o
vector403                                         build/obj/vectors.o
vector404                                         build/obj/vectors.o
vector405                                         build/obj/vectors.o
vector406                                         build/obj/vectors.o
vector407                                         build/obj/vectors.o
vector408                                         build/obj/vectors.o
vector409                                         build/obj/vectors.o
vector41                                          build/obj/vectors.o
vector410                                         build/obj/vectors.o
vector411                                         build/obj/vectors.o
vector412                                         build/obj/vectors.o
vector413                                         build/obj/vectors.o
vector414                                         build/obj/vectors.o
vector415                                         build/obj/vectors.o
vector416                                         build/obj/vectors.o
vector417                                         build/obj/vectors.o
vector418                                         build/obj/vectors.o
vector419                                         build/obj/vectors.o
vector42                                          build/obj/vectors.o
vector420                                         build/obj/vectors.o
vector421                                         build/obj/vectors.o
vector422                                         build/obj/vectors.o
vector423                                         build/obj/vectors.o
vector424                                         build/obj/vectors.o
vector425                                         build/obj/vectors.o
vector426                                         build/obj/vectors.o
vector427                                         build/obj/vectors.o
vector428                                         build/obj/vectors.o
vector429                                         build/obj/vectors.o
vector43                                          build/obj/vectors.o
vector430                                         build/obj/vectors.o
vector431                                         build/obj/vectors.o
vector432                                         build/obj/vectors.o
vector433                                         build/obj/vectors.o
vector434                                         build/obj/vectors.o
vector435                                         build/obj/vectors.o
vector436                                         build/obj/vectors.o
vector437                                         build/obj/vectors.o
vector438                                         build/obj/vectors.o
vector439                                         build/obj/vectors.o
vector44                                          build/obj/vectors.o
vector440                                         build/obj/vectors.o
vector441                                         build/obj/vectors.o
vector442                                         build/obj/vectors.o
vector443                                         build/obj/vectors.o
vector444                                         build/obj/vectors.o
vector445                                         build/obj/vectors.o
vector446                                         build/obj/vectors.o
vector447                                         build/obj/vectors.o
vector448                                         build/obj/vectors.o
vector449                                         build/obj/vectors.o
vector45                                          build/obj/vectors.o
vector450                                         build/obj/vectors.o
vector451                                         build/obj/vectors.o
vector452                                         build/obj/vectors.o
vector453                                         build/obj/vectors.o
vector454                                         build/obj/vectors.o
vector455                                         build/obj/vectors.o
vector456                                         build/obj/vectors.o
vector457                                         build/obj/vectors.o
vector458                                         build/obj/vectors.o
vector459                                         build/obj/vectors.o
vector46                                          build/obj/vectors.o
vector460                                         build/obj/vectors.o
vector461                                         build/obj/vectors.o
vector462                                         build/obj/vectors.o
vector463                                         build/obj/vectors.o
vector464                                         build/obj/vectors.o
vector465                                         build/obj/vectors.o
vector466                                         build/obj/vectors.o
vector467                                         build/obj/vectors.o
vector468                                         build/obj/vectors.o
vector469                                         build/obj/vectors.o
vector47                                          build/obj/vectors.o
vector470                                         build/obj/vectors.o
vector471                                         build/obj/vectors.o
vector472                                         build/obj/vectors.o
vector473                                         build/obj/vectors.o
vector474                                         build/obj/vectors.o
vector475                                         build/obj/vectors.o
vector476                                         build/obj/vectors.o
vector477                                         build/obj/vectors.o
vector478                                         build/obj/vectors.o
vector479                                         build/obj/vectors.o
vector48                                          build/obj/vectors.o
vector480                                         build/obj/vectors.o
vector481                                         build/obj/vectors.o
vector482                                         build/obj/vectors.o
vector483                                         build/obj/vectors.o
vector484                                         build/obj/vectors.o
vector485                                         build/obj/vectors.o
vector486                                         build/obj/vectors.o
vector487                                         build/obj/vectors.o
vector488                                         build/obj/vectors.o
vector489                                         build/obj/vectors.o
vector49                                          build/obj/vectors.o
vector490                                         build/obj/vectors.o
vector491                                         build/obj/vectors.o
vector492                                         build/obj/vectors.o
vector493                                         build/obj/vectors.o
vector494                                         build/obj/vectors.o
vector495                                         build/obj/vectors.o
vector496                                         build/obj/vectors.o
vector497                                         build/obj/vectors.o
vector498                                         build/obj/vectors.o
vector499                                         build/obj/vectors.o
vector5                                           build/obj/vectors.o
vector50                                          build/obj/vectors.o
vector500                                         build/obj/vectors.o
vector501                                         build/obj/vectors.o
vector502                                         build/obj/vectors.o
vector503                                         build/obj/vectors.o
vector504                                         build/obj/vectors.o
vector505                                         build/obj/vectors.o
vector506                                         build/obj/vectors.o
vector507                                         build/obj/vectors.o
vector508                                         build/obj/vectors.o
vector509                                         build/obj/vectors.o
vector51                                          build/obj/vectors.o
vector510                                         build/obj/vectors.o
vector511                                         build/obj/vectors.o
vector512                                         build/obj/vectors.o
vector513                                         build/obj/vectors.o
vector514                                         build/obj/vectors.o
vector515                                         build/obj/vectors.o
vector516                                         build/obj/vectors.o
vector517                                         build/obj/vectors.o
vector518                                         build/obj/vectors.o
vector519                                         build/obj/vectors.o
vector52                                          build/obj/spc5_edma.o
                                                  build/obj/vectors.o
vector520                                         build/obj/vectors.o
vector521                                         build/obj/vectors.o
vector522                                         build/obj/vectors.o
vector523                                         build/obj/vectors.o
vector524                                         build/obj/vectors.o
vector525                                         build/obj/vectors.o
vector526                                         build/obj/vectors.o
vector527                                         build/obj/vectors.o
vector528                                         build/obj/Hal_Adc.o
                                                  build/obj/vectors.o
vector529                                         build/obj/vectors.o
vector53                                          build/obj/spc5_edma.o
                                                  build/obj/vectors.o
vector530                                         build/obj/vectors.o
vector531                                         build/obj/vectors.o
vector532                                         build/obj/vectors.o
vector533                                         build/obj/vectors.o
vector534                                         build/obj/vectors.o
vector535                                         build/obj/vectors.o
vector536                                         build/obj/vectors.o
vector537                                         build/obj/vectors.o
vector538                                         build/obj/vectors.o
vector539                                         build/obj/vectors.o
vector54                                          build/obj/spc5_edma.o
                                                  build/obj/vectors.o
vector540                                         build/obj/vectors.o
vector541                                         build/obj/vectors.o
vector542                                         build/obj/vectors.o
vector543                                         build/obj/vectors.o
vector544                                         build/obj/vectors.o
vector545                                         build/obj/vectors.o
vector546                                         build/obj/vectors.o
vector547                                         build/obj/vectors.o
vector548                                         build/obj/vectors.o
vector549                                         build/obj/vectors.o
vector55                                          build/obj/spc5_edma.o
                                                  build/obj/vectors.o
vector550                                         build/obj/vectors.o
vector551                                         build/obj/vectors.o
vector552                                         build/obj/vectors.o
vector553                                         build/obj/vectors.o
vector554                                         build/obj/vectors.o
vector555                                         build/obj/vectors.o
vector556                                         build/obj/vectors.o
vector557                                         build/obj/vectors.o
vector558                                         build/obj/vectors.o
vector559                                         build/obj/vectors.o
vector56                                          build/obj/spc5_edma.o
                                                  build/obj/vectors.o
vector560                                         build/obj/vectors.o
vector561                                         build/obj/vectors.o
vector562                                         build/obj/vectors.o
vector563                                         build/obj/vectors.o
vector564                                         build/obj/vectors.o
vector565                                         build/obj/vectors.o
vector566                                         build/obj/vectors.o
vector567                                         build/obj/vectors.o
vector568                                         build/obj/vectors.o
vector569                                         build/obj/vectors.o
vector57                                          build/obj/spc5_edma.o
                                                  build/obj/vectors.o
vector570                                         build/obj/vectors.o
vector571                                         build/obj/vectors.o
vector572                                         build/obj/vectors.o
vector573                                         build/obj/vectors.o
vector574                                         build/obj/vectors.o
vector575                                         build/obj/vectors.o
vector576                                         build/obj/vectors.o
vector577                                         build/obj/vectors.o
vector578                                         build/obj/vectors.o
vector579                                         build/obj/vectors.o
vector58                                          build/obj/spc5_edma.o
                                                  build/obj/vectors.o
vector580                                         build/obj/vectors.o
vector581                                         build/obj/vectors.o
vector582                                         build/obj/vectors.o
vector583                                         build/obj/vectors.o
vector584                                         build/obj/vectors.o
vector585                                         build/obj/vectors.o
vector586                                         build/obj/vectors.o
vector587                                         build/obj/vectors.o
vector588                                         build/obj/vectors.o
vector589                                         build/obj/vectors.o
vector59                                          build/obj/spc5_edma.o
                                                  build/obj/vectors.o
vector590                                         build/obj/vectors.o
vector591                                         build/obj/vectors.o
vector592                                         build/obj/vectors.o
vector593                                         build/obj/vectors.o
vector594                                         build/obj/vectors.o
vector595                                         build/obj/vectors.o
vector596                                         build/obj/vectors.o
vector597                                         build/obj/vectors.o
vector598                                         build/obj/vectors.o
vector599                                         build/obj/vectors.o
vector6                                           build/obj/vectors.o
vector60                                          build/obj/spc5_edma.o
                                                  build/obj/vectors.o
vector600                                         build/obj/vectors.o
vector601                                         build/obj/vectors.o
vector602                                         build/obj/vectors.o
vector603                                         build/obj/vectors.o
vector604                                         build/obj/vectors.o
vector605                                         build/obj/vectors.o
vector606                                         build/obj/vectors.o
vector607                                         build/obj/vectors.o
vector608                                         build/obj/vectors.o
vector609                                         build/obj/vectors.o
vector61                                          build/obj/spc5_edma.o
                                                  build/obj/vectors.o
vector610                                         build/obj/vectors.o
vector611                                         build/obj/vectors.o
vector612                                         build/obj/vectors.o
vector613                                         build/obj/vectors.o
vector614                                         build/obj/vectors.o
vector615                                         build/obj/vectors.o
vector616                                         build/obj/vectors.o
vector617                                         build/obj/vectors.o
vector618                                         build/obj/vectors.o
vector619                                         build/obj/vectors.o
vector62                                          build/obj/spc5_edma.o
                                                  build/obj/vectors.o
vector620                                         build/obj/vectors.o
vector621                                         build/obj/vectors.o
vector622                                         build/obj/vectors.o
vector623                                         build/obj/vectors.o
vector624                                         build/obj/vectors.o
vector625                                         build/obj/vectors.o
vector626                                         build/obj/vectors.o
vector627                                         build/obj/vectors.o
vector628                                         build/obj/vectors.o
vector629                                         build/obj/vectors.o
vector63                                          build/obj/spc5_edma.o
                                                  build/obj/vectors.o
vector630                                         build/obj/vectors.o
vector631                                         build/obj/vectors.o
vector632                                         build/obj/vectors.o
vector633                                         build/obj/vectors.o
vector634                                         build/obj/vectors.o
vector635                                         build/obj/vectors.o
vector636                                         build/obj/vectors.o
vector637                                         build/obj/vectors.o
vector638                                         build/obj/vectors.o
vector639                                         build/obj/vectors.o
vector64                                          build/obj/spc5_edma.o
                                                  build/obj/vectors.o
vector640                                         build/obj/vectors.o
vector641                                         build/obj/vectors.o
vector642                                         build/obj/vectors.o
vector643                                         build/obj/vectors.o
vector644                                         build/obj/vectors.o
vector645                                         build/obj/vectors.o
vector646                                         build/obj/vectors.o
vector647                                         build/obj/vectors.o
vector648                                         build/obj/vectors.o
vector649                                         build/obj/vectors.o
vector65                                          build/obj/spc5_edma.o
                                                  build/obj/vectors.o
vector650                                         build/obj/vectors.o
vector651                                         build/obj/vectors.o
vector652                                         build/obj/vectors.o
vector653                                         build/obj/vectors.o
vector654                                         build/obj/vectors.o
vector655                                         build/obj/vectors.o
vector656                                         build/obj/vectors.o
vector657                                         build/obj/vectors.o
vector658                                         build/obj/vectors.o
vector659                                         build/obj/vectors.o
vector66                                          build/obj/spc5_edma.o
                                                  build/obj/vectors.o
vector660                                         build/obj/vectors.o
vector661                                         build/obj/vectors.o
vector662                                         build/obj/vectors.o
vector663                                         build/obj/vectors.o
vector664                                         build/obj/vectors.o
vector665                                         build/obj/vectors.o
vector666                                         build/obj/vectors.o
vector667                                         build/obj/vectors.o
vector668                                         build/obj/vectors.o
vector669                                         build/obj/vectors.o
vector67                                          build/obj/spc5_edma.o
                                                  build/obj/vectors.o
vector670                                         build/obj/vectors.o
vector671                                         build/obj/vectors.o
vector672                                         build/obj/vectors.o
vector673                                         build/obj/vectors.o
vector674                                         build/obj/vectors.o
vector675                                         build/obj/vectors.o
vector676                                         build/obj/vectors.o
vector677                                         build/obj/vectors.o
vector678                                         build/obj/Hal_Can.o
                                                  build/obj/vectors.o
vector679                                         build/obj/vectors.o
vector68                                          build/obj/spc5_edma.o
                                                  build/obj/vectors.o
vector680                                         build/obj/vectors.o
vector681                                         build/obj/vectors.o
vector682                                         build/obj/vectors.o
vector683                                         build/obj/vectors.o
vector684                                         build/obj/vectors.o
vector685                                         build/obj/vectors.o
vector686                                         build/obj/vectors.o
vector687                                         build/obj/vectors.o
vector688                                         build/obj/Hal_Can.o
                                                  build/obj/vectors.o
vector689                                         build/obj/vectors.o
vector69                                          build/obj/vectors.o
vector690                                         build/obj/vectors.o
vector691                                         build/obj/Hal_Can.o
                                                  build/obj/vectors.o
vector692                                         build/obj/vectors.o
vector693                                         build/obj/vectors.o
vector694                                         build/obj/vectors.o
vector695                                         build/obj/vectors.o
vector696                                         build/obj/vectors.o
vector697                                         build/obj/vectors.o
vector698                                         build/obj/vectors.o
vector699                                         build/obj/vectors.o
vector7                                           build/obj/vectors.o
vector70                                          build/obj/vectors.o
vector700                                         build/obj/vectors.o
vector701                                         build/obj/Hal_Can.o
                                                  build/obj/vectors.o
vector702                                         build/obj/vectors.o
vector703                                         build/obj/vectors.o
vector704                                         build/obj/vectors.o
vector705                                         build/obj/vectors.o
vector706                                         build/obj/vectors.o
vector707                                         build/obj/vectors.o
vector708                                         build/obj/vectors.o
vector709                                         build/obj/vectors.o
vector71                                          build/obj/vectors.o
vector710                                         build/obj/vectors.o
vector711                                         build/obj/vectors.o
vector712                                         build/obj/vectors.o
vector713                                         build/obj/vectors.o
vector714                                         build/obj/vectors.o
vector715                                         build/obj/vectors.o
vector716                                         build/obj/vectors.o
vector717                                         build/obj/vectors.o
vector718                                         build/obj/vectors.o
vector719                                         build/obj/vectors.o
vector72                                          build/obj/vectors.o
vector720                                         build/obj/vectors.o
vector721                                         build/obj/vectors.o
vector722                                         build/obj/vectors.o
vector723                                         build/obj/vectors.o
vector724                                         build/obj/vectors.o
vector725                                         build/obj/vectors.o
vector726                                         build/obj/vectors.o
vector727                                         build/obj/vectors.o
vector728                                         build/obj/vectors.o
vector729                                         build/obj/vectors.o
vector73                                          build/obj/vectors.o
vector730                                         build/obj/vectors.o
vector731                                         build/obj/vectors.o
vector732                                         build/obj/vectors.o
vector733                                         build/obj/vectors.o
vector734                                         build/obj/vectors.o
vector735                                         build/obj/vectors.o
vector736                                         build/obj/vectors.o
vector737                                         build/obj/vectors.o
vector738                                         build/obj/vectors.o
vector739                                         build/obj/vectors.o
vector74                                          build/obj/vectors.o
vector740                                         build/obj/vectors.o
vector741                                         build/obj/vectors.o
vector742                                         build/obj/Hal_Pwm.o
                                                  build/obj/vectors.o
vector743                                         build/obj/vectors.o
vector744                                         build/obj/vectors.o
vector745                                         build/obj/vectors.o
vector746                                         build/obj/vectors.o
vector747                                         build/obj/vectors.o
vector748                                         build/obj/vectors.o
vector749                                         build/obj/vectors.o
vector75                                          build/obj/vectors.o
vector750                                         build/obj/vectors.o
vector751                                         build/obj/vectors.o
vector752                                         build/obj/vectors.o
vector753                                         build/obj/vectors.o
vector754                                         build/obj/vectors.o
vector755                                         build/obj/vectors.o
vector756                                         build/obj/vectors.o
vector757                                         build/obj/vectors.o
vector758                                         build/obj/vectors.o
vector759                                         build/obj/vectors.o
vector76                                          build/obj/vectors.o
vector760                                         build/obj/vectors.o
vector761                                         build/obj/vectors.o
vector762                                         build/obj/vectors.o
vector763                                         build/obj/vectors.o
vector764                                         build/obj/vectors.o
vector765                                         build/obj/vectors.o
vector766                                         build/obj/vectors.o
vector767                                         build/obj/vectors.o
vector768                                         build/obj/vectors.o
vector769                                         build/obj/vectors.o
vector77                                          build/obj/vectors.o
vector770                                         build/obj/vectors.o
vector771                                         build/obj/vectors.o
vector772                                         build/obj/vectors.o
vector773                                         build/obj/vectors.o
vector774                                         build/obj/vectors.o
vector775                                         build/obj/vectors.o
vector776                                         build/obj/vectors.o
vector777                                         build/obj/vectors.o
vector778                                         build/obj/vectors.o
vector779                                         build/obj/vectors.o
vector78                                          build/obj/vectors.o
vector780                                         build/obj/vectors.o
vector781                                         build/obj/vectors.o
vector782                                         build/obj/vectors.o
vector783                                         build/obj/vectors.o
vector784                                         build/obj/vectors.o
vector785                                         build/obj/vectors.o
vector786                                         build/obj/vectors.o
vector787                                         build/obj/vectors.o
vector788                                         build/obj/vectors.o
vector789                                         build/obj/vectors.o
vector79                                          build/obj/vectors.o
vector790                                         build/obj/vectors.o
vector791                                         build/obj/vectors.o
vector792                                         build/obj/vectors.o
vector793                                         build/obj/vectors.o
vector794                                         build/obj/vectors.o
vector795                                         build/obj/vectors.o
vector796                                         build/obj/vectors.o
vector797                                         build/obj/vectors.o
vector798                                         build/obj/vectors.o
vector799                                         build/obj/vectors.o
vector8                                           build/obj/vectors.o
vector80                                          build/obj/vectors.o
vector800                                         build/obj/vectors.o
vector801                                         build/obj/vectors.o
vector802                                         build/obj/vectors.o
vector803                                         build/obj/vectors.o
vector804                                         build/obj/vectors.o
vector805                                         build/obj/vectors.o
vector806                                         build/obj/vectors.o
vector807                                         build/obj/vectors.o
vector808                                         build/obj/vectors.o
vector809                                         build/obj/vectors.o
vector81                                          build/obj/vectors.o
vector810                                         build/obj/vectors.o
vector811                                         build/obj/vectors.o
vector812                                         build/obj/vectors.o
vector813                                         build/obj/vectors.o
vector814                                         build/obj/vectors.o
vector815                                         build/obj/vectors.o
vector816                                         build/obj/vectors.o
vector817                                         build/obj/vectors.o
vector818                                         build/obj/vectors.o
vector819                                         build/obj/vectors.o
vector82                                          build/obj/vectors.o
vector820                                         build/obj/vectors.o
vector821                                         build/obj/vectors.o
vector822                                         build/obj/vectors.o
vector823                                         build/obj/vectors.o
vector824                                         build/obj/vectors.o
vector825                                         build/obj/vectors.o
vector826                                         build/obj/vectors.o
vector827                                         build/obj/vectors.o
vector828                                         build/obj/vectors.o
vector829                                         build/obj/vectors.o
vector83                                          build/obj/vectors.o
vector830                                         build/obj/vectors.o
vector831                                         build/obj/vectors.o
vector832                                         build/obj/vectors.o
vector833                                         build/obj/vectors.o
vector834                                         build/obj/vectors.o
vector835                                         build/obj/vectors.o
vector836                                         build/obj/vectors.o
vector837                                         build/obj/vectors.o
vector838                                         build/obj/vectors.o
vector839                                         build/obj/vectors.o
vector84                                          build/obj/vectors.o
vector840                                         build/obj/vectors.o
vector841                                         build/obj/vectors.o
vector842                                         build/obj/vectors.o
vector843                                         build/obj/vectors.o
vector844                                         build/obj/vectors.o
vector845                                         build/obj/vectors.o
vector846                                         build/obj/vectors.o
vector847                                         build/obj/vectors.o
vector848                                         build/obj/vectors.o
vector849                                         build/obj/vectors.o
vector85                                          build/obj/vectors.o
vector850                                         build/obj/vectors.o
vector851                                         build/obj/vectors.o
vector852                                         build/obj/vectors.o
vector853                                         build/obj/vectors.o
vector854                                         build/obj/vectors.o
vector855                                         build/obj/vectors.o
vector856                                         build/obj/vectors.o
vector857                                         build/obj/vectors.o
vector858                                         build/obj/vectors.o
vector859                                         build/obj/vectors.o
vector86                                          build/obj/vectors.o
vector860                                         build/obj/vectors.o
vector861                                         build/obj/vectors.o
vector862                                         build/obj/vectors.o
vector863                                         build/obj/vectors.o
vector864                                         build/obj/vectors.o
vector865                                         build/obj/vectors.o
vector866                                         build/obj/vectors.o
vector867                                         build/obj/vectors.o
vector868                                         build/obj/vectors.o
vector869                                         build/obj/vectors.o
vector87                                          build/obj/vectors.o
vector870                                         build/obj/vectors.o
vector871                                         build/obj/vectors.o
vector872                                         build/obj/vectors.o
vector873                                         build/obj/vectors.o
vector874                                         build/obj/vectors.o
vector875                                         build/obj/vectors.o
vector876                                         build/obj/vectors.o
vector877                                         build/obj/vectors.o
vector878                                         build/obj/vectors.o
vector879                                         build/obj/vectors.o
vector88                                          build/obj/vectors.o
vector880                                         build/obj/vectors.o
vector881                                         build/obj/vectors.o
vector882                                         build/obj/vectors.o
vector883                                         build/obj/vectors.o
vector884                                         build/obj/vectors.o
vector885                                         build/obj/vectors.o
vector886                                         build/obj/vectors.o
vector887                                         build/obj/vectors.o
vector888                                         build/obj/vectors.o
vector889                                         build/obj/vectors.o
vector89                                          build/obj/vectors.o
vector890                                         build/obj/vectors.o
vector891                                         build/obj/vectors.o
vector892                                         build/obj/vectors.o
vector893                                         build/obj/vectors.o
vector894                                         build/obj/vectors.o
vector895                                         build/obj/vectors.o
vector896                                         build/obj/vectors.o
vector897                                         build/obj/vectors.o
vector898                                         build/obj/vectors.o
vector899                                         build/obj/vectors.o
vector9                                           build/obj/vectors.o
vector90                                          build/obj/vectors.o
vector900                                         build/obj/vectors.o
vector901                                         build/obj/vectors.o
vector902                                         build/obj/vectors.o
vector903                                         build/obj/vectors.o
vector904                                         build/obj/vectors.o
vector905                                         build/obj/vectors.o
vector906                                         build/obj/vectors.o
vector907                                         build/obj/vectors.o
vector908                                         build/obj/vectors.o
vector909                                         build/obj/vectors.o
vector91                                          build/obj/vectors.o
vector910                                         build/obj/vectors.o
vector911                                         build/obj/vectors.o
vector912                                         build/obj/vectors.o
vector913                                         build/obj/vectors.o
vector914                                         build/obj/vectors.o
vector915                                         build/obj/vectors.o
vector916                                         build/obj/vectors.o
vector917                                         build/obj/vectors.o
vector918                                         build/obj/vectors.o
vector919                                         build/obj/vectors.o
vector92                                          build/obj/vectors.o
vector920                                         build/obj/vectors.o
vector921                                         build/obj/vectors.o
vector922                                         build/obj/vectors.o
vector923                                         build/obj/vectors.o
vector924                                         build/obj/vectors.o
vector925                                         build/obj/vectors.o
vector926                                         build/obj/vectors.o
vector927                                         build/obj/vectors.o
vector928                                         build/obj/vectors.o
vector929                                         build/obj/vectors.o
vector93                                          build/obj/vectors.o
vector930                                         build/obj/vectors.o
vector931                                         build/obj/vectors.o
vector932                                         build/obj/vectors.o
vector933                                         build/obj/vectors.o
vector934                                         build/obj/vectors.o
vector935                                         build/obj/vectors.o
vector936                                         build/obj/vectors.o
vector937                                         build/obj/vectors.o
vector938                                         build/obj/vectors.o
vector939                                         build/obj/vectors.o
vector94                                          build/obj/vectors.o
vector940                                         build/obj/vectors.o
vector941                                         build/obj/vectors.o
vector942                                         build/obj/vectors.o
vector943                                         build/obj/vectors.o
vector944                                         build/obj/vectors.o
vector945                                         build/obj/vectors.o
vector946                                         build/obj/vectors.o
vector947                                         build/obj/vectors.o
vector948                                         build/obj/vectors.o
vector949                                         build/obj/vectors.o
vector95                                          build/obj/vectors.o
vector950                                         build/obj/vectors.o
vector951                                         build/obj/vectors.o
vector952                                         build/obj/vectors.o
vector953                                         build/obj/vectors.o
vector954                                         build/obj/vectors.o
vector955                                         build/obj/vectors.o
vector956                                         build/obj/vectors.o
vector957                                         build/obj/vectors.o
vector958                                         build/obj/vectors.o
vector959                                         build/obj/vectors.o
vector96                                          build/obj/vectors.o
vector960                                         build/obj/vectors.o
vector961                                         build/obj/vectors.o
vector962                                         build/obj/vectors.o
vector963                                         build/obj/vectors.o
vector964                                         build/obj/vectors.o
vector965                                         build/obj/vectors.o
vector966                                         build/obj/vectors.o
vector967                                         build/obj/vectors.o
vector968                                         build/obj/vectors.o
vector969                                         build/obj/vectors.o
vector97                                          build/obj/vectors.o
vector970                                         build/obj/vectors.o
vector971                                         build/obj/vectors.o
vector972                                         build/obj/vectors.o
vector973                                         build/obj/vectors.o
vector974                                         build/obj/vectors.o
vector975                                         build/obj/vectors.o
vector976                                         build/obj/vectors.o
vector977                                         build/obj/vectors.o
vector978                                         build/obj/vectors.o
vector979                                         build/obj/vectors.o
vector98                                          build/obj/vectors.o
vector980                                         build/obj/vectors.o
vector981                                         build/obj/vectors.o
vector982                                         build/obj/vectors.o
vector983                                         build/obj/vectors.o
vector984                                         build/obj/vectors.o
vector985                                         build/obj/vectors.o
vector986                                         build/obj/vectors.o
vector987                                         build/obj/vectors.o
vector988                                         build/obj/vectors.o
vector989                                         build/obj/vectors.o
vector99                                          build/obj/vectors.o
vector990                                         build/obj/vectors.o
vector991                                         build/obj/vectors.o
vector992                                         build/obj/vectors.o
vector993                                         build/obj/vectors.o
vector994                                         build/obj/vectors.o
vector995                                         build/obj/vectors.o
vector996                                         build/obj/vectors.o
vector997                                         build/obj/vectors.o
vector998                                         build/obj/vectors.o
vector999                                         build/obj/vectors.o
